Archive member included to satisfy reference by file (symbol)

/home/charles/linux/code/tfa/mp157_alientek/tf-a-stm32mp-2.2.r1-r0/tf-a-stm32mp-2.2.r1/../build/optee/lib/libfdt.a(fdt.o)
                              /home/charles/linux/code/tfa/mp157_alientek/tf-a-stm32mp-2.2.r1-r0/tf-a-stm32mp-2.2.r1/../build/optee/bl2/stm32mp_dt.o (fdt_check_header)
/home/charles/linux/code/tfa/mp157_alientek/tf-a-stm32mp-2.2.r1-r0/tf-a-stm32mp-2.2.r1/../build/optee/lib/libfdt.a(fdt_addresses.o)
                              /home/charles/linux/code/tfa/mp157_alientek/tf-a-stm32mp-2.2.r1-r0/tf-a-stm32mp-2.2.r1/../build/optee/bl2/stm32mp_dt.o (fdt_address_cells)
/home/charles/linux/code/tfa/mp157_alientek/tf-a-stm32mp-2.2.r1-r0/tf-a-stm32mp-2.2.r1/../build/optee/lib/libfdt.a(fdt_ro.o)
                              /home/charles/linux/code/tfa/mp157_alientek/tf-a-stm32mp-2.2.r1-r0/tf-a-stm32mp-2.2.r1/../build/optee/bl2/stm32mp_clkfunc.o (fdt_get_name)
/home/charles/linux/code/tfa/mp157_alientek/tf-a-stm32mp-2.2.r1-r0/tf-a-stm32mp-2.2.r1/../build/optee/lib/libc.a(assert.o)
                              /home/charles/linux/code/tfa/mp157_alientek/tf-a-stm32mp-2.2.r1-r0/tf-a-stm32mp-2.2.r1/../build/optee/bl2/io_block.o (__assert)
/home/charles/linux/code/tfa/mp157_alientek/tf-a-stm32mp-2.2.r1-r0/tf-a-stm32mp-2.2.r1/../build/optee/lib/libc.a(memchr.o)
                              /home/charles/linux/code/tfa/mp157_alientek/tf-a-stm32mp-2.2.r1-r0/tf-a-stm32mp-2.2.r1/../build/optee/lib/libfdt.a(fdt_ro.o) (memchr)
/home/charles/linux/code/tfa/mp157_alientek/tf-a-stm32mp-2.2.r1-r0/tf-a-stm32mp-2.2.r1/../build/optee/lib/libc.a(memcmp.o)
                              /home/charles/linux/code/tfa/mp157_alientek/tf-a-stm32mp-2.2.r1-r0/tf-a-stm32mp-2.2.r1/../build/optee/bl2/stm32mp_crypto_lib.o (memcmp)
/home/charles/linux/code/tfa/mp157_alientek/tf-a-stm32mp-2.2.r1-r0/tf-a-stm32mp-2.2.r1/../build/optee/lib/libc.a(memcpy.o)
                              /home/charles/linux/code/tfa/mp157_alientek/tf-a-stm32mp-2.2.r1-r0/tf-a-stm32mp-2.2.r1/../build/optee/bl2/io_block.o (memcpy)
/home/charles/linux/code/tfa/mp157_alientek/tf-a-stm32mp-2.2.r1-r0/tf-a-stm32mp-2.2.r1/../build/optee/lib/libc.a(memmove.o)
                              /home/charles/linux/code/tfa/mp157_alientek/tf-a-stm32mp-2.2.r1-r0/tf-a-stm32mp-2.2.r1/../build/optee/bl2/xlat_tables_core.o (memmove)
/home/charles/linux/code/tfa/mp157_alientek/tf-a-stm32mp-2.2.r1-r0/tf-a-stm32mp-2.2.r1/../build/optee/lib/libc.a(memset.o)
                              /home/charles/linux/code/tfa/mp157_alientek/tf-a-stm32mp-2.2.r1-r0/tf-a-stm32mp-2.2.r1/../build/optee/bl2/xlat_tables_core.o (memset)
/home/charles/linux/code/tfa/mp157_alientek/tf-a-stm32mp-2.2.r1-r0/tf-a-stm32mp-2.2.r1/../build/optee/lib/libc.a(printf.o)
                              /home/charles/linux/code/tfa/mp157_alientek/tf-a-stm32mp-2.2.r1-r0/tf-a-stm32mp-2.2.r1/../build/optee/bl2/tf_log.o (vprintf)
/home/charles/linux/code/tfa/mp157_alientek/tf-a-stm32mp-2.2.r1-r0/tf-a-stm32mp-2.2.r1/../build/optee/lib/libc.a(putchar.o)
                              /home/charles/linux/code/tfa/mp157_alientek/tf-a-stm32mp-2.2.r1-r0/tf-a-stm32mp-2.2.r1/../build/optee/bl2/tf_log.o (putchar)
/home/charles/linux/code/tfa/mp157_alientek/tf-a-stm32mp-2.2.r1-r0/tf-a-stm32mp-2.2.r1/../build/optee/lib/libc.a(snprintf.o)
                              /home/charles/linux/code/tfa/mp157_alientek/tf-a-stm32mp-2.2.r1-r0/tf-a-stm32mp-2.2.r1/../build/optee/bl2/stm32mp1_clk.o (snprintf)
/home/charles/linux/code/tfa/mp157_alientek/tf-a-stm32mp-2.2.r1-r0/tf-a-stm32mp-2.2.r1/../build/optee/lib/libc.a(strchr.o)
                              /home/charles/linux/code/tfa/mp157_alientek/tf-a-stm32mp-2.2.r1-r0/tf-a-stm32mp-2.2.r1/../build/optee/bl2/stm32mp_dt.o (strchr)
/home/charles/linux/code/tfa/mp157_alientek/tf-a-stm32mp-2.2.r1-r0/tf-a-stm32mp-2.2.r1/../build/optee/lib/libc.a(strcmp.o)
                              /home/charles/linux/code/tfa/mp157_alientek/tf-a-stm32mp-2.2.r1-r0/tf-a-stm32mp-2.2.r1/../build/optee/bl2/partition.o (strcmp)
/home/charles/linux/code/tfa/mp157_alientek/tf-a-stm32mp-2.2.r1-r0/tf-a-stm32mp-2.2.r1/../build/optee/lib/libc.a(strlen.o)
                              /home/charles/linux/code/tfa/mp157_alientek/tf-a-stm32mp-2.2.r1-r0/tf-a-stm32mp-2.2.r1/../build/optee/bl2/stpmic1.o (strlen)
/home/charles/linux/code/tfa/mp157_alientek/tf-a-stm32mp-2.2.r1-r0/tf-a-stm32mp-2.2.r1/../build/optee/lib/libc.a(strncmp.o)
                              /home/charles/linux/code/tfa/mp157_alientek/tf-a-stm32mp-2.2.r1-r0/tf-a-stm32mp-2.2.r1/../build/optee/bl2/raw_nand.o (strncmp)
/home/charles/linux/code/tfa/mp157_alientek/tf-a-stm32mp-2.2.r1-r0/tf-a-stm32mp-2.2.r1/../build/optee/lib/libc.a(strnlen.o)
                              /home/charles/linux/code/tfa/mp157_alientek/tf-a-stm32mp-2.2.r1-r0/tf-a-stm32mp-2.2.r1/../build/optee/lib/libfdt.a(fdt_ro.o) (strnlen)
/home/charles/linux/code/tfa/mp157_alientek/tf-a-stm32mp-2.2.r1-r0/tf-a-stm32mp-2.2.r1/../build/optee/lib/libc.a(strrchr.o)
                              /home/charles/linux/code/tfa/mp157_alientek/tf-a-stm32mp-2.2.r1-r0/tf-a-stm32mp-2.2.r1/../build/optee/lib/libfdt.a(fdt_ro.o) (strrchr)

Allocating common symbols
Common symbol       size              file

mmu_cfg_params      0x18              /home/charles/linux/code/tfa/mp157_alientek/tf-a-stm32mp-2.2.r1-r0/tf-a-stm32mp-2.2.r1/../build/optee/bl2/xlat_tables_context.o
auth_img_flags      0x78              /home/charles/linux/code/tfa/mp157_alientek/tf-a-stm32mp-2.2.r1-r0/tf-a-stm32mp-2.2.r1/../build/optee/bl2/stm32mp_cot.o
console_list        0x4               /home/charles/linux/code/tfa/mp157_alientek/tf-a-stm32mp-2.2.r1-r0/tf-a-stm32mp-2.2.r1/../build/optee/bl2/multi_console.o

Discarded input sections

 .text          0x0000000000000000        0x0 /home/charles/linux/code/tfa/mp157_alientek/tf-a-stm32mp-2.2.r1-r0/tf-a-stm32mp-2.2.r1/../build/optee/bl2/build_message.o
 .data          0x0000000000000000        0x0 /home/charles/linux/code/tfa/mp157_alientek/tf-a-stm32mp-2.2.r1-r0/tf-a-stm32mp-2.2.r1/../build/optee/bl2/build_message.o
 .bss           0x0000000000000000        0x0 /home/charles/linux/code/tfa/mp157_alientek/tf-a-stm32mp-2.2.r1-r0/tf-a-stm32mp-2.2.r1/../build/optee/bl2/build_message.o
 .text          0x0000000000000000        0x0 /home/charles/linux/code/tfa/mp157_alientek/tf-a-stm32mp-2.2.r1-r0/tf-a-stm32mp-2.2.r1/../build/optee/bl2/io_block.o
 .data          0x0000000000000000        0x0 /home/charles/linux/code/tfa/mp157_alientek/tf-a-stm32mp-2.2.r1-r0/tf-a-stm32mp-2.2.r1/../build/optee/bl2/io_block.o
 .bss           0x0000000000000000        0x0 /home/charles/linux/code/tfa/mp157_alientek/tf-a-stm32mp-2.2.r1-r0/tf-a-stm32mp-2.2.r1/../build/optee/bl2/io_block.o
 .text          0x0000000000000000        0x0 /home/charles/linux/code/tfa/mp157_alientek/tf-a-stm32mp-2.2.r1-r0/tf-a-stm32mp-2.2.r1/../build/optee/bl2/io_dummy.o
 .data          0x0000000000000000        0x0 /home/charles/linux/code/tfa/mp157_alientek/tf-a-stm32mp-2.2.r1-r0/tf-a-stm32mp-2.2.r1/../build/optee/bl2/io_dummy.o
 .bss           0x0000000000000000        0x0 /home/charles/linux/code/tfa/mp157_alientek/tf-a-stm32mp-2.2.r1-r0/tf-a-stm32mp-2.2.r1/../build/optee/bl2/io_dummy.o
 .text          0x0000000000000000        0x0 /home/charles/linux/code/tfa/mp157_alientek/tf-a-stm32mp-2.2.r1-r0/tf-a-stm32mp-2.2.r1/../build/optee/bl2/io_mtd.o
 .data          0x0000000000000000        0x0 /home/charles/linux/code/tfa/mp157_alientek/tf-a-stm32mp-2.2.r1-r0/tf-a-stm32mp-2.2.r1/../build/optee/bl2/io_mtd.o
 .bss           0x0000000000000000        0x0 /home/charles/linux/code/tfa/mp157_alientek/tf-a-stm32mp-2.2.r1-r0/tf-a-stm32mp-2.2.r1/../build/optee/bl2/io_mtd.o
 .text          0x0000000000000000        0x0 /home/charles/linux/code/tfa/mp157_alientek/tf-a-stm32mp-2.2.r1-r0/tf-a-stm32mp-2.2.r1/../build/optee/bl2/io_storage.o
 .data          0x0000000000000000        0x0 /home/charles/linux/code/tfa/mp157_alientek/tf-a-stm32mp-2.2.r1-r0/tf-a-stm32mp-2.2.r1/../build/optee/bl2/io_storage.o
 .bss           0x0000000000000000        0x0 /home/charles/linux/code/tfa/mp157_alientek/tf-a-stm32mp-2.2.r1-r0/tf-a-stm32mp-2.2.r1/../build/optee/bl2/io_storage.o
 .text.io_write
                0x0000000000000000       0x48 /home/charles/linux/code/tfa/mp157_alientek/tf-a-stm32mp-2.2.r1-r0/tf-a-stm32mp-2.2.r1/../build/optee/bl2/io_storage.o
 .text          0x0000000000000000        0x0 /home/charles/linux/code/tfa/mp157_alientek/tf-a-stm32mp-2.2.r1-r0/tf-a-stm32mp-2.2.r1/../build/optee/bl2/stm32_hash.o
 .data          0x0000000000000000        0x0 /home/charles/linux/code/tfa/mp157_alientek/tf-a-stm32mp-2.2.r1-r0/tf-a-stm32mp-2.2.r1/../build/optee/bl2/stm32_hash.o
 .bss           0x0000000000000000        0x0 /home/charles/linux/code/tfa/mp157_alientek/tf-a-stm32mp-2.2.r1-r0/tf-a-stm32mp-2.2.r1/../build/optee/bl2/stm32_hash.o
 .text          0x0000000000000000        0x0 /home/charles/linux/code/tfa/mp157_alientek/tf-a-stm32mp-2.2.r1-r0/tf-a-stm32mp-2.2.r1/../build/optee/bl2/io_stm32image.o
 .data          0x0000000000000000        0x0 /home/charles/linux/code/tfa/mp157_alientek/tf-a-stm32mp-2.2.r1-r0/tf-a-stm32mp-2.2.r1/../build/optee/bl2/io_stm32image.o
 .bss           0x0000000000000000        0x0 /home/charles/linux/code/tfa/mp157_alientek/tf-a-stm32mp-2.2.r1-r0/tf-a-stm32mp-2.2.r1/../build/optee/bl2/io_stm32image.o
 .text          0x0000000000000000        0x0 /home/charles/linux/code/tfa/mp157_alientek/tf-a-stm32mp-2.2.r1-r0/tf-a-stm32mp-2.2.r1/../build/optee/bl2/bl2_io_storage.o
 .data          0x0000000000000000        0x0 /home/charles/linux/code/tfa/mp157_alientek/tf-a-stm32mp-2.2.r1-r0/tf-a-stm32mp-2.2.r1/../build/optee/bl2/bl2_io_storage.o
 .bss           0x0000000000000000        0x0 /home/charles/linux/code/tfa/mp157_alientek/tf-a-stm32mp-2.2.r1-r0/tf-a-stm32mp-2.2.r1/../build/optee/bl2/bl2_io_storage.o
 .text          0x0000000000000000        0x0 /home/charles/linux/code/tfa/mp157_alientek/tf-a-stm32mp-2.2.r1-r0/tf-a-stm32mp-2.2.r1/../build/optee/bl2/bl2_plat_setup.o
 .data          0x0000000000000000        0x0 /home/charles/linux/code/tfa/mp157_alientek/tf-a-stm32mp-2.2.r1-r0/tf-a-stm32mp-2.2.r1/../build/optee/bl2/bl2_plat_setup.o
 .bss           0x0000000000000000        0x0 /home/charles/linux/code/tfa/mp157_alientek/tf-a-stm32mp-2.2.r1-r0/tf-a-stm32mp-2.2.r1/../build/optee/bl2/bl2_plat_setup.o
 .text          0x0000000000000000        0x0 /home/charles/linux/code/tfa/mp157_alientek/tf-a-stm32mp-2.2.r1-r0/tf-a-stm32mp-2.2.r1/../build/optee/bl2/auth_mod.o
 .data          0x0000000000000000        0x0 /home/charles/linux/code/tfa/mp157_alientek/tf-a-stm32mp-2.2.r1-r0/tf-a-stm32mp-2.2.r1/../build/optee/bl2/auth_mod.o
 .bss           0x0000000000000000        0x0 /home/charles/linux/code/tfa/mp157_alientek/tf-a-stm32mp-2.2.r1-r0/tf-a-stm32mp-2.2.r1/../build/optee/bl2/auth_mod.o
 .text          0x0000000000000000        0x0 /home/charles/linux/code/tfa/mp157_alientek/tf-a-stm32mp-2.2.r1-r0/tf-a-stm32mp-2.2.r1/../build/optee/bl2/crypto_mod.o
 .data          0x0000000000000000        0x0 /home/charles/linux/code/tfa/mp157_alientek/tf-a-stm32mp-2.2.r1-r0/tf-a-stm32mp-2.2.r1/../build/optee/bl2/crypto_mod.o
 .bss           0x0000000000000000        0x0 /home/charles/linux/code/tfa/mp157_alientek/tf-a-stm32mp-2.2.r1-r0/tf-a-stm32mp-2.2.r1/../build/optee/bl2/crypto_mod.o
 .text          0x0000000000000000        0x0 /home/charles/linux/code/tfa/mp157_alientek/tf-a-stm32mp-2.2.r1-r0/tf-a-stm32mp-2.2.r1/../build/optee/bl2/img_parser_mod.o
 .data          0x0000000000000000        0x0 /home/charles/linux/code/tfa/mp157_alientek/tf-a-stm32mp-2.2.r1-r0/tf-a-stm32mp-2.2.r1/../build/optee/bl2/img_parser_mod.o
 .bss           0x0000000000000000        0x0 /home/charles/linux/code/tfa/mp157_alientek/tf-a-stm32mp-2.2.r1-r0/tf-a-stm32mp-2.2.r1/../build/optee/bl2/img_parser_mod.o
 .text          0x0000000000000000        0x0 /home/charles/linux/code/tfa/mp157_alientek/tf-a-stm32mp-2.2.r1-r0/tf-a-stm32mp-2.2.r1/../build/optee/bl2/stm32mp_cot.o
 .data          0x0000000000000000        0x0 /home/charles/linux/code/tfa/mp157_alientek/tf-a-stm32mp-2.2.r1-r0/tf-a-stm32mp-2.2.r1/../build/optee/bl2/stm32mp_cot.o
 .bss           0x0000000000000000        0x0 /home/charles/linux/code/tfa/mp157_alientek/tf-a-stm32mp-2.2.r1-r0/tf-a-stm32mp-2.2.r1/../build/optee/bl2/stm32mp_cot.o
 .text          0x0000000000000000        0x0 /home/charles/linux/code/tfa/mp157_alientek/tf-a-stm32mp-2.2.r1-r0/tf-a-stm32mp-2.2.r1/../build/optee/bl2/stm32mp_crypto_lib.o
 .data          0x0000000000000000        0x0 /home/charles/linux/code/tfa/mp157_alientek/tf-a-stm32mp-2.2.r1-r0/tf-a-stm32mp-2.2.r1/../build/optee/bl2/stm32mp_crypto_lib.o
 .bss           0x0000000000000000        0x0 /home/charles/linux/code/tfa/mp157_alientek/tf-a-stm32mp-2.2.r1-r0/tf-a-stm32mp-2.2.r1/../build/optee/bl2/stm32mp_crypto_lib.o
 .text          0x0000000000000000        0x0 /home/charles/linux/code/tfa/mp157_alientek/tf-a-stm32mp-2.2.r1-r0/tf-a-stm32mp-2.2.r1/../build/optee/bl2/stm32mp_img_parser_lib.o
 .data          0x0000000000000000        0x0 /home/charles/linux/code/tfa/mp157_alientek/tf-a-stm32mp-2.2.r1-r0/tf-a-stm32mp-2.2.r1/../build/optee/bl2/stm32mp_img_parser_lib.o
 .bss           0x0000000000000000        0x0 /home/charles/linux/code/tfa/mp157_alientek/tf-a-stm32mp-2.2.r1-r0/tf-a-stm32mp-2.2.r1/../build/optee/bl2/stm32mp_img_parser_lib.o
 .text          0x0000000000000000        0x0 /home/charles/linux/code/tfa/mp157_alientek/tf-a-stm32mp-2.2.r1-r0/tf-a-stm32mp-2.2.r1/../build/optee/bl2/stm32mp_trusted_boot.o
 .data          0x0000000000000000        0x0 /home/charles/linux/code/tfa/mp157_alientek/tf-a-stm32mp-2.2.r1-r0/tf-a-stm32mp-2.2.r1/../build/optee/bl2/stm32mp_trusted_boot.o
 .bss           0x0000000000000000        0x0 /home/charles/linux/code/tfa/mp157_alientek/tf-a-stm32mp-2.2.r1-r0/tf-a-stm32mp-2.2.r1/../build/optee/bl2/stm32mp_trusted_boot.o
 .text          0x0000000000000000        0x0 /home/charles/linux/code/tfa/mp157_alientek/tf-a-stm32mp-2.2.r1-r0/tf-a-stm32mp-2.2.r1/../build/optee/bl2/mmc.o
 .data          0x0000000000000000        0x0 /home/charles/linux/code/tfa/mp157_alientek/tf-a-stm32mp-2.2.r1-r0/tf-a-stm32mp-2.2.r1/../build/optee/bl2/mmc.o
 .bss           0x0000000000000000        0x0 /home/charles/linux/code/tfa/mp157_alientek/tf-a-stm32mp-2.2.r1-r0/tf-a-stm32mp-2.2.r1/../build/optee/bl2/mmc.o
 .text.mmc_write_blocks
                0x0000000000000000       0xc4 /home/charles/linux/code/tfa/mp157_alientek/tf-a-stm32mp-2.2.r1-r0/tf-a-stm32mp-2.2.r1/../build/optee/bl2/mmc.o
 .text.mmc_erase_blocks
                0x0000000000000000       0x6c /home/charles/linux/code/tfa/mp157_alientek/tf-a-stm32mp-2.2.r1-r0/tf-a-stm32mp-2.2.r1/../build/optee/bl2/mmc.o
 .text.mmc_rpmb_read_blocks
                0x0000000000000000       0x28 /home/charles/linux/code/tfa/mp157_alientek/tf-a-stm32mp-2.2.r1-r0/tf-a-stm32mp-2.2.r1/../build/optee/bl2/mmc.o
 .text.mmc_rpmb_write_blocks
                0x0000000000000000       0x28 /home/charles/linux/code/tfa/mp157_alientek/tf-a-stm32mp-2.2.r1-r0/tf-a-stm32mp-2.2.r1/../build/optee/bl2/mmc.o
 .text.mmc_rpmb_erase_blocks
                0x0000000000000000       0x24 /home/charles/linux/code/tfa/mp157_alientek/tf-a-stm32mp-2.2.r1-r0/tf-a-stm32mp-2.2.r1/../build/optee/bl2/mmc.o
 .text          0x0000000000000000        0x0 /home/charles/linux/code/tfa/mp157_alientek/tf-a-stm32mp-2.2.r1-r0/tf-a-stm32mp-2.2.r1/../build/optee/bl2/gpt.o
 .data          0x0000000000000000        0x0 /home/charles/linux/code/tfa/mp157_alientek/tf-a-stm32mp-2.2.r1-r0/tf-a-stm32mp-2.2.r1/../build/optee/bl2/gpt.o
 .bss           0x0000000000000000        0x0 /home/charles/linux/code/tfa/mp157_alientek/tf-a-stm32mp-2.2.r1-r0/tf-a-stm32mp-2.2.r1/../build/optee/bl2/gpt.o
 .text          0x0000000000000000        0x0 /home/charles/linux/code/tfa/mp157_alientek/tf-a-stm32mp-2.2.r1-r0/tf-a-stm32mp-2.2.r1/../build/optee/bl2/partition.o
 .data          0x0000000000000000        0x0 /home/charles/linux/code/tfa/mp157_alientek/tf-a-stm32mp-2.2.r1-r0/tf-a-stm32mp-2.2.r1/../build/optee/bl2/partition.o
 .bss           0x0000000000000000        0x0 /home/charles/linux/code/tfa/mp157_alientek/tf-a-stm32mp-2.2.r1-r0/tf-a-stm32mp-2.2.r1/../build/optee/bl2/partition.o
 .text.get_partition_entry_list
                0x0000000000000000        0x8 /home/charles/linux/code/tfa/mp157_alientek/tf-a-stm32mp-2.2.r1-r0/tf-a-stm32mp-2.2.r1/../build/optee/bl2/partition.o
 .text          0x0000000000000000        0x0 /home/charles/linux/code/tfa/mp157_alientek/tf-a-stm32mp-2.2.r1-r0/tf-a-stm32mp-2.2.r1/../build/optee/bl2/io_mmc.o
 .data          0x0000000000000000        0x0 /home/charles/linux/code/tfa/mp157_alientek/tf-a-stm32mp-2.2.r1-r0/tf-a-stm32mp-2.2.r1/../build/optee/bl2/io_mmc.o
 .bss           0x0000000000000000        0x0 /home/charles/linux/code/tfa/mp157_alientek/tf-a-stm32mp-2.2.r1-r0/tf-a-stm32mp-2.2.r1/../build/optee/bl2/io_mmc.o
 .text          0x0000000000000000        0x0 /home/charles/linux/code/tfa/mp157_alientek/tf-a-stm32mp-2.2.r1-r0/tf-a-stm32mp-2.2.r1/../build/optee/bl2/stm32_sdmmc2.o
 .data          0x0000000000000000        0x0 /home/charles/linux/code/tfa/mp157_alientek/tf-a-stm32mp-2.2.r1-r0/tf-a-stm32mp-2.2.r1/../build/optee/bl2/stm32_sdmmc2.o
 .bss           0x0000000000000000        0x0 /home/charles/linux/code/tfa/mp157_alientek/tf-a-stm32mp-2.2.r1-r0/tf-a-stm32mp-2.2.r1/../build/optee/bl2/stm32_sdmmc2.o
 .text          0x0000000000000000        0x0 /home/charles/linux/code/tfa/mp157_alientek/tf-a-stm32mp-2.2.r1-r0/tf-a-stm32mp-2.2.r1/../build/optee/bl2/raw_nand.o
 .data          0x0000000000000000        0x0 /home/charles/linux/code/tfa/mp157_alientek/tf-a-stm32mp-2.2.r1-r0/tf-a-stm32mp-2.2.r1/../build/optee/bl2/raw_nand.o
 .bss           0x0000000000000000        0x0 /home/charles/linux/code/tfa/mp157_alientek/tf-a-stm32mp-2.2.r1-r0/tf-a-stm32mp-2.2.r1/../build/optee/bl2/raw_nand.o
 .text.plat_get_raw_nand_data
                0x0000000000000000        0x4 /home/charles/linux/code/tfa/mp157_alientek/tf-a-stm32mp-2.2.r1-r0/tf-a-stm32mp-2.2.r1/../build/optee/bl2/raw_nand.o
 .text          0x0000000000000000        0x0 /home/charles/linux/code/tfa/mp157_alientek/tf-a-stm32mp-2.2.r1-r0/tf-a-stm32mp-2.2.r1/../build/optee/bl2/stm32_fmc2_nand.o
 .data          0x0000000000000000        0x0 /home/charles/linux/code/tfa/mp157_alientek/tf-a-stm32mp-2.2.r1-r0/tf-a-stm32mp-2.2.r1/../build/optee/bl2/stm32_fmc2_nand.o
 .bss           0x0000000000000000        0x0 /home/charles/linux/code/tfa/mp157_alientek/tf-a-stm32mp-2.2.r1-r0/tf-a-stm32mp-2.2.r1/../build/optee/bl2/stm32_fmc2_nand.o
 .text          0x0000000000000000        0x0 /home/charles/linux/code/tfa/mp157_alientek/tf-a-stm32mp-2.2.r1-r0/tf-a-stm32mp-2.2.r1/../build/optee/bl2/spi_nand.o
 .data          0x0000000000000000        0x0 /home/charles/linux/code/tfa/mp157_alientek/tf-a-stm32mp-2.2.r1-r0/tf-a-stm32mp-2.2.r1/../build/optee/bl2/spi_nand.o
 .bss           0x0000000000000000        0x0 /home/charles/linux/code/tfa/mp157_alientek/tf-a-stm32mp-2.2.r1-r0/tf-a-stm32mp-2.2.r1/../build/optee/bl2/spi_nand.o
 .text.plat_get_spi_nand_data
                0x0000000000000000        0x4 /home/charles/linux/code/tfa/mp157_alientek/tf-a-stm32mp-2.2.r1-r0/tf-a-stm32mp-2.2.r1/../build/optee/bl2/spi_nand.o
 .text          0x0000000000000000        0x0 /home/charles/linux/code/tfa/mp157_alientek/tf-a-stm32mp-2.2.r1-r0/tf-a-stm32mp-2.2.r1/../build/optee/bl2/spi_nor.o
 .data          0x0000000000000000        0x0 /home/charles/linux/code/tfa/mp157_alientek/tf-a-stm32mp-2.2.r1-r0/tf-a-stm32mp-2.2.r1/../build/optee/bl2/spi_nor.o
 .bss           0x0000000000000000        0x0 /home/charles/linux/code/tfa/mp157_alientek/tf-a-stm32mp-2.2.r1-r0/tf-a-stm32mp-2.2.r1/../build/optee/bl2/spi_nor.o
 .text.plat_get_nor_data
                0x0000000000000000        0x4 /home/charles/linux/code/tfa/mp157_alientek/tf-a-stm32mp-2.2.r1-r0/tf-a-stm32mp-2.2.r1/../build/optee/bl2/spi_nor.o
 .text          0x0000000000000000        0x0 /home/charles/linux/code/tfa/mp157_alientek/tf-a-stm32mp-2.2.r1-r0/tf-a-stm32mp-2.2.r1/../build/optee/bl2/spi_mem.o
 .data          0x0000000000000000        0x0 /home/charles/linux/code/tfa/mp157_alientek/tf-a-stm32mp-2.2.r1-r0/tf-a-stm32mp-2.2.r1/../build/optee/bl2/spi_mem.o
 .bss           0x0000000000000000        0x0 /home/charles/linux/code/tfa/mp157_alientek/tf-a-stm32mp-2.2.r1-r0/tf-a-stm32mp-2.2.r1/../build/optee/bl2/spi_mem.o
 .text          0x0000000000000000        0x0 /home/charles/linux/code/tfa/mp157_alientek/tf-a-stm32mp-2.2.r1-r0/tf-a-stm32mp-2.2.r1/../build/optee/bl2/stm32_qspi.o
 .data          0x0000000000000000        0x0 /home/charles/linux/code/tfa/mp157_alientek/tf-a-stm32mp-2.2.r1-r0/tf-a-stm32mp-2.2.r1/../build/optee/bl2/stm32_qspi.o
 .bss           0x0000000000000000        0x0 /home/charles/linux/code/tfa/mp157_alientek/tf-a-stm32mp-2.2.r1-r0/tf-a-stm32mp-2.2.r1/../build/optee/bl2/stm32_qspi.o
 .text          0x0000000000000000        0x0 /home/charles/linux/code/tfa/mp157_alientek/tf-a-stm32mp-2.2.r1-r0/tf-a-stm32mp-2.2.r1/../build/optee/bl2/core.o
 .data          0x0000000000000000        0x0 /home/charles/linux/code/tfa/mp157_alientek/tf-a-stm32mp-2.2.r1-r0/tf-a-stm32mp-2.2.r1/../build/optee/bl2/core.o
 .bss           0x0000000000000000        0x0 /home/charles/linux/code/tfa/mp157_alientek/tf-a-stm32mp-2.2.r1-r0/tf-a-stm32mp-2.2.r1/../build/optee/bl2/core.o
 .text          0x0000000000000000        0x0 /home/charles/linux/code/tfa/mp157_alientek/tf-a-stm32mp-2.2.r1-r0/tf-a-stm32mp-2.2.r1/../build/optee/bl2/stm32mp1_boot_device.o
 .data          0x0000000000000000        0x0 /home/charles/linux/code/tfa/mp157_alientek/tf-a-stm32mp-2.2.r1-r0/tf-a-stm32mp-2.2.r1/../build/optee/bl2/stm32mp1_boot_device.o
 .bss           0x0000000000000000        0x0 /home/charles/linux/code/tfa/mp157_alientek/tf-a-stm32mp-2.2.r1-r0/tf-a-stm32mp-2.2.r1/../build/optee/bl2/stm32mp1_boot_device.o
 .text          0x0000000000000000        0x0 /home/charles/linux/code/tfa/mp157_alientek/tf-a-stm32mp-2.2.r1-r0/tf-a-stm32mp-2.2.r1/../build/optee/bl2/stm32mp1_ddr.o
 .data          0x0000000000000000        0x0 /home/charles/linux/code/tfa/mp157_alientek/tf-a-stm32mp-2.2.r1-r0/tf-a-stm32mp-2.2.r1/../build/optee/bl2/stm32mp1_ddr.o
 .bss           0x0000000000000000        0x0 /home/charles/linux/code/tfa/mp157_alientek/tf-a-stm32mp-2.2.r1-r0/tf-a-stm32mp-2.2.r1/../build/optee/bl2/stm32mp1_ddr.o
 .text          0x0000000000000000        0x0 /home/charles/linux/code/tfa/mp157_alientek/tf-a-stm32mp-2.2.r1-r0/tf-a-stm32mp-2.2.r1/../build/optee/bl2/stm32mp1_ram.o
 .data          0x0000000000000000        0x0 /home/charles/linux/code/tfa/mp157_alientek/tf-a-stm32mp-2.2.r1-r0/tf-a-stm32mp-2.2.r1/../build/optee/bl2/stm32mp1_ram.o
 .bss           0x0000000000000000        0x0 /home/charles/linux/code/tfa/mp157_alientek/tf-a-stm32mp-2.2.r1-r0/tf-a-stm32mp-2.2.r1/../build/optee/bl2/stm32mp1_ram.o
 .text          0x0000000000000000        0x0 /home/charles/linux/code/tfa/mp157_alientek/tf-a-stm32mp-2.2.r1-r0/tf-a-stm32mp-2.2.r1/../build/optee/bl2/desc_image_load.o
 .data          0x0000000000000000        0x0 /home/charles/linux/code/tfa/mp157_alientek/tf-a-stm32mp-2.2.r1-r0/tf-a-stm32mp-2.2.r1/../build/optee/bl2/desc_image_load.o
 .bss           0x0000000000000000        0x0 /home/charles/linux/code/tfa/mp157_alientek/tf-a-stm32mp-2.2.r1-r0/tf-a-stm32mp-2.2.r1/../build/optee/bl2/desc_image_load.o
 .text.populate_next_bl_params_config
                0x0000000000000000       0x64 /home/charles/linux/code/tfa/mp157_alientek/tf-a-stm32mp-2.2.r1-r0/tf-a-stm32mp-2.2.r1/../build/optee/bl2/desc_image_load.o
 .text.bl31_params_parse_helper
                0x0000000000000000       0x98 /home/charles/linux/code/tfa/mp157_alientek/tf-a-stm32mp-2.2.r1-r0/tf-a-stm32mp-2.2.r1/../build/optee/bl2/desc_image_load.o
 .text          0x0000000000000000        0x0 /home/charles/linux/code/tfa/mp157_alientek/tf-a-stm32mp-2.2.r1-r0/tf-a-stm32mp-2.2.r1/../build/optee/bl2/plat_bl2_mem_params_desc.o
 .data          0x0000000000000000        0x0 /home/charles/linux/code/tfa/mp157_alientek/tf-a-stm32mp-2.2.r1-r0/tf-a-stm32mp-2.2.r1/../build/optee/bl2/plat_bl2_mem_params_desc.o
 .bss           0x0000000000000000        0x0 /home/charles/linux/code/tfa/mp157_alientek/tf-a-stm32mp-2.2.r1-r0/tf-a-stm32mp-2.2.r1/../build/optee/bl2/plat_bl2_mem_params_desc.o
 .text          0x0000000000000000        0x0 /home/charles/linux/code/tfa/mp157_alientek/tf-a-stm32mp-2.2.r1-r0/tf-a-stm32mp-2.2.r1/../build/optee/bl2/plat_image_load.o
 .data          0x0000000000000000        0x0 /home/charles/linux/code/tfa/mp157_alientek/tf-a-stm32mp-2.2.r1-r0/tf-a-stm32mp-2.2.r1/../build/optee/bl2/plat_image_load.o
 .bss           0x0000000000000000        0x0 /home/charles/linux/code/tfa/mp157_alientek/tf-a-stm32mp-2.2.r1-r0/tf-a-stm32mp-2.2.r1/../build/optee/bl2/plat_image_load.o
 .text          0x0000000000000000        0x0 /home/charles/linux/code/tfa/mp157_alientek/tf-a-stm32mp-2.2.r1-r0/tf-a-stm32mp-2.2.r1/../build/optee/bl2/optee_utils.o
 .data          0x0000000000000000        0x0 /home/charles/linux/code/tfa/mp157_alientek/tf-a-stm32mp-2.2.r1-r0/tf-a-stm32mp-2.2.r1/../build/optee/bl2/optee_utils.o
 .bss           0x0000000000000000        0x0 /home/charles/linux/code/tfa/mp157_alientek/tf-a-stm32mp-2.2.r1-r0/tf-a-stm32mp-2.2.r1/../build/optee/bl2/optee_utils.o
 .text          0x0000000000000000        0x0 /home/charles/linux/code/tfa/mp157_alientek/tf-a-stm32mp-2.2.r1-r0/tf-a-stm32mp-2.2.r1/../build/optee/bl2/bl2_image_load_v2.o
 .data          0x0000000000000000        0x0 /home/charles/linux/code/tfa/mp157_alientek/tf-a-stm32mp-2.2.r1-r0/tf-a-stm32mp-2.2.r1/../build/optee/bl2/bl2_image_load_v2.o
 .bss           0x0000000000000000        0x0 /home/charles/linux/code/tfa/mp157_alientek/tf-a-stm32mp-2.2.r1-r0/tf-a-stm32mp-2.2.r1/../build/optee/bl2/bl2_image_load_v2.o
 .text          0x0000000000000000        0x0 /home/charles/linux/code/tfa/mp157_alientek/tf-a-stm32mp-2.2.r1-r0/tf-a-stm32mp-2.2.r1/../build/optee/bl2/bl2_main.o
 .data          0x0000000000000000        0x0 /home/charles/linux/code/tfa/mp157_alientek/tf-a-stm32mp-2.2.r1-r0/tf-a-stm32mp-2.2.r1/../build/optee/bl2/bl2_main.o
 .bss           0x0000000000000000        0x0 /home/charles/linux/code/tfa/mp157_alientek/tf-a-stm32mp-2.2.r1-r0/tf-a-stm32mp-2.2.r1/../build/optee/bl2/bl2_main.o
 .text          0x0000000000000000        0x0 /home/charles/linux/code/tfa/mp157_alientek/tf-a-stm32mp-2.2.r1-r0/tf-a-stm32mp-2.2.r1/../build/optee/bl2/bl2_arch_setup.o
 .data          0x0000000000000000        0x0 /home/charles/linux/code/tfa/mp157_alientek/tf-a-stm32mp-2.2.r1-r0/tf-a-stm32mp-2.2.r1/../build/optee/bl2/bl2_arch_setup.o
 .bss           0x0000000000000000        0x0 /home/charles/linux/code/tfa/mp157_alientek/tf-a-stm32mp-2.2.r1-r0/tf-a-stm32mp-2.2.r1/../build/optee/bl2/bl2_arch_setup.o
 .text          0x0000000000000000        0x0 /home/charles/linux/code/tfa/mp157_alientek/tf-a-stm32mp-2.2.r1-r0/tf-a-stm32mp-2.2.r1/../build/optee/bl2/errata_report.o
 .data          0x0000000000000000        0x0 /home/charles/linux/code/tfa/mp157_alientek/tf-a-stm32mp-2.2.r1-r0/tf-a-stm32mp-2.2.r1/../build/optee/bl2/errata_report.o
 .bss           0x0000000000000000        0x0 /home/charles/linux/code/tfa/mp157_alientek/tf-a-stm32mp-2.2.r1-r0/tf-a-stm32mp-2.2.r1/../build/optee/bl2/errata_report.o
 .text.errata_needs_reporting
                0x0000000000000000       0x2a /home/charles/linux/code/tfa/mp157_alientek/tf-a-stm32mp-2.2.r1-r0/tf-a-stm32mp-2.2.r1/../build/optee/bl2/errata_report.o
 .rodata.errata_print_msg.str1.1
                0x0000000000000000       0x7c /home/charles/linux/code/tfa/mp157_alientek/tf-a-stm32mp-2.2.r1-r0/tf-a-stm32mp-2.2.r1/../build/optee/bl2/errata_report.o
 .text.errata_print_msg
                0x0000000000000000       0x60 /home/charles/linux/code/tfa/mp157_alientek/tf-a-stm32mp-2.2.r1-r0/tf-a-stm32mp-2.2.r1/../build/optee/bl2/errata_report.o
 .debug_info    0x0000000000000000      0x418 /home/charles/linux/code/tfa/mp157_alientek/tf-a-stm32mp-2.2.r1-r0/tf-a-stm32mp-2.2.r1/../build/optee/bl2/errata_report.o
 .debug_abbrev  0x0000000000000000      0x204 /home/charles/linux/code/tfa/mp157_alientek/tf-a-stm32mp-2.2.r1-r0/tf-a-stm32mp-2.2.r1/../build/optee/bl2/errata_report.o
 .debug_loc     0x0000000000000000      0x242 /home/charles/linux/code/tfa/mp157_alientek/tf-a-stm32mp-2.2.r1-r0/tf-a-stm32mp-2.2.r1/../build/optee/bl2/errata_report.o
 .debug_aranges
                0x0000000000000000       0x28 /home/charles/linux/code/tfa/mp157_alientek/tf-a-stm32mp-2.2.r1-r0/tf-a-stm32mp-2.2.r1/../build/optee/bl2/errata_report.o
 .debug_ranges  0x0000000000000000       0x18 /home/charles/linux/code/tfa/mp157_alientek/tf-a-stm32mp-2.2.r1-r0/tf-a-stm32mp-2.2.r1/../build/optee/bl2/errata_report.o
 .debug_line    0x0000000000000000      0x1f8 /home/charles/linux/code/tfa/mp157_alientek/tf-a-stm32mp-2.2.r1-r0/tf-a-stm32mp-2.2.r1/../build/optee/bl2/errata_report.o
 .debug_str     0x0000000000000000      0x3f2 /home/charles/linux/code/tfa/mp157_alientek/tf-a-stm32mp-2.2.r1-r0/tf-a-stm32mp-2.2.r1/../build/optee/bl2/errata_report.o
 .comment       0x0000000000000000       0x5b /home/charles/linux/code/tfa/mp157_alientek/tf-a-stm32mp-2.2.r1-r0/tf-a-stm32mp-2.2.r1/../build/optee/bl2/errata_report.o
 .note.GNU-stack
                0x0000000000000000        0x0 /home/charles/linux/code/tfa/mp157_alientek/tf-a-stm32mp-2.2.r1-r0/tf-a-stm32mp-2.2.r1/../build/optee/bl2/errata_report.o
 .debug_frame   0x0000000000000000       0x48 /home/charles/linux/code/tfa/mp157_alientek/tf-a-stm32mp-2.2.r1-r0/tf-a-stm32mp-2.2.r1/../build/optee/bl2/errata_report.o
 .ARM.attributes
                0x0000000000000000       0x33 /home/charles/linux/code/tfa/mp157_alientek/tf-a-stm32mp-2.2.r1-r0/tf-a-stm32mp-2.2.r1/../build/optee/bl2/errata_report.o
 .text          0x0000000000000000        0x0 /home/charles/linux/code/tfa/mp157_alientek/tf-a-stm32mp-2.2.r1-r0/tf-a-stm32mp-2.2.r1/../build/optee/bl2/bl_common.o
 .data          0x0000000000000000        0x0 /home/charles/linux/code/tfa/mp157_alientek/tf-a-stm32mp-2.2.r1-r0/tf-a-stm32mp-2.2.r1/../build/optee/bl2/bl_common.o
 .bss           0x0000000000000000        0x0 /home/charles/linux/code/tfa/mp157_alientek/tf-a-stm32mp-2.2.r1-r0/tf-a-stm32mp-2.2.r1/../build/optee/bl2/bl_common.o
 .text.page_align
                0x0000000000000000       0x18 /home/charles/linux/code/tfa/mp157_alientek/tf-a-stm32mp-2.2.r1-r0/tf-a-stm32mp-2.2.r1/../build/optee/bl2/bl_common.o
 .text          0x0000000000000000        0x0 /home/charles/linux/code/tfa/mp157_alientek/tf-a-stm32mp-2.2.r1-r0/tf-a-stm32mp-2.2.r1/../build/optee/bl2/tf_log.o
 .data          0x0000000000000000        0x0 /home/charles/linux/code/tfa/mp157_alientek/tf-a-stm32mp-2.2.r1-r0/tf-a-stm32mp-2.2.r1/../build/optee/bl2/tf_log.o
 .bss           0x0000000000000000        0x0 /home/charles/linux/code/tfa/mp157_alientek/tf-a-stm32mp-2.2.r1-r0/tf-a-stm32mp-2.2.r1/../build/optee/bl2/tf_log.o
 .text.tf_log_set_max_level
                0x0000000000000000       0x30 /home/charles/linux/code/tfa/mp157_alientek/tf-a-stm32mp-2.2.r1-r0/tf-a-stm32mp-2.2.r1/../build/optee/bl2/tf_log.o
 .text          0x0000000000000000        0x0 /home/charles/linux/code/tfa/mp157_alientek/tf-a-stm32mp-2.2.r1-r0/tf-a-stm32mp-2.2.r1/../build/optee/bl2/multi_console.o
 .data          0x0000000000000000        0x0 /home/charles/linux/code/tfa/mp157_alientek/tf-a-stm32mp-2.2.r1-r0/tf-a-stm32mp-2.2.r1/../build/optee/bl2/multi_console.o
 .bss           0x0000000000000000        0x0 /home/charles/linux/code/tfa/mp157_alientek/tf-a-stm32mp-2.2.r1-r0/tf-a-stm32mp-2.2.r1/../build/optee/bl2/multi_console.o
 .text.console_unregister
                0x0000000000000000       0x2c /home/charles/linux/code/tfa/mp157_alientek/tf-a-stm32mp-2.2.r1-r0/tf-a-stm32mp-2.2.r1/../build/optee/bl2/multi_console.o
 .text.console_switch_state
                0x0000000000000000        0xc /home/charles/linux/code/tfa/mp157_alientek/tf-a-stm32mp-2.2.r1-r0/tf-a-stm32mp-2.2.r1/../build/optee/bl2/multi_console.o
 .text.console_getc
                0x0000000000000000       0x3c /home/charles/linux/code/tfa/mp157_alientek/tf-a-stm32mp-2.2.r1-r0/tf-a-stm32mp-2.2.r1/../build/optee/bl2/multi_console.o
 .text          0x0000000000000000        0x0 /home/charles/linux/code/tfa/mp157_alientek/tf-a-stm32mp-2.2.r1-r0/tf-a-stm32mp-2.2.r1/../build/optee/bl2/plat_bl_common.o
 .data          0x0000000000000000        0x0 /home/charles/linux/code/tfa/mp157_alientek/tf-a-stm32mp-2.2.r1-r0/tf-a-stm32mp-2.2.r1/../build/optee/bl2/plat_bl_common.o
 .bss           0x0000000000000000        0x0 /home/charles/linux/code/tfa/mp157_alientek/tf-a-stm32mp-2.2.r1-r0/tf-a-stm32mp-2.2.r1/../build/optee/bl2/plat_bl_common.o
 .text.bl2_plat_handle_post_image_load
                0x0000000000000000        0x4 /home/charles/linux/code/tfa/mp157_alientek/tf-a-stm32mp-2.2.r1-r0/tf-a-stm32mp-2.2.r1/../build/optee/bl2/plat_bl_common.o
 .text.plat_try_next_boot_source
                0x0000000000000000        0x4 /home/charles/linux/code/tfa/mp157_alientek/tf-a-stm32mp-2.2.r1-r0/tf-a-stm32mp-2.2.r1/../build/optee/bl2/plat_bl_common.o
 .text.setup_page_tables
                0x0000000000000000       0x16 /home/charles/linux/code/tfa/mp157_alientek/tf-a-stm32mp-2.2.r1-r0/tf-a-stm32mp-2.2.r1/../build/optee/bl2/plat_bl_common.o
 .text          0x0000000000000000        0x0 /home/charles/linux/code/tfa/mp157_alientek/tf-a-stm32mp-2.2.r1-r0/tf-a-stm32mp-2.2.r1/../build/optee/bl2/plat_log_common.o
 .data          0x0000000000000000        0x0 /home/charles/linux/code/tfa/mp157_alientek/tf-a-stm32mp-2.2.r1-r0/tf-a-stm32mp-2.2.r1/../build/optee/bl2/plat_log_common.o
 .bss           0x0000000000000000        0x0 /home/charles/linux/code/tfa/mp157_alientek/tf-a-stm32mp-2.2.r1-r0/tf-a-stm32mp-2.2.r1/../build/optee/bl2/plat_log_common.o
 .text          0x0000000000000000        0x0 /home/charles/linux/code/tfa/mp157_alientek/tf-a-stm32mp-2.2.r1-r0/tf-a-stm32mp-2.2.r1/../build/optee/bl2/plat_common.o
 .data          0x0000000000000000        0x0 /home/charles/linux/code/tfa/mp157_alientek/tf-a-stm32mp-2.2.r1-r0/tf-a-stm32mp-2.2.r1/../build/optee/bl2/plat_common.o
 .bss           0x0000000000000000        0x0 /home/charles/linux/code/tfa/mp157_alientek/tf-a-stm32mp-2.2.r1-r0/tf-a-stm32mp-2.2.r1/../build/optee/bl2/plat_common.o
 .text.bl32_plat_enable_mmu
                0x0000000000000000        0x4 /home/charles/linux/code/tfa/mp157_alientek/tf-a-stm32mp-2.2.r1-r0/tf-a-stm32mp-2.2.r1/../build/optee/bl2/plat_common.o
 .debug_info    0x0000000000000000      0x1c6 /home/charles/linux/code/tfa/mp157_alientek/tf-a-stm32mp-2.2.r1-r0/tf-a-stm32mp-2.2.r1/../build/optee/bl2/plat_common.o
 .debug_abbrev  0x0000000000000000       0xf0 /home/charles/linux/code/tfa/mp157_alientek/tf-a-stm32mp-2.2.r1-r0/tf-a-stm32mp-2.2.r1/../build/optee/bl2/plat_common.o
 .debug_loc     0x0000000000000000       0x25 /home/charles/linux/code/tfa/mp157_alientek/tf-a-stm32mp-2.2.r1-r0/tf-a-stm32mp-2.2.r1/../build/optee/bl2/plat_common.o
 .debug_aranges
                0x0000000000000000       0x20 /home/charles/linux/code/tfa/mp157_alientek/tf-a-stm32mp-2.2.r1-r0/tf-a-stm32mp-2.2.r1/../build/optee/bl2/plat_common.o
 .debug_ranges  0x0000000000000000       0x10 /home/charles/linux/code/tfa/mp157_alientek/tf-a-stm32mp-2.2.r1-r0/tf-a-stm32mp-2.2.r1/../build/optee/bl2/plat_common.o
 .debug_line    0x0000000000000000      0x106 /home/charles/linux/code/tfa/mp157_alientek/tf-a-stm32mp-2.2.r1-r0/tf-a-stm32mp-2.2.r1/../build/optee/bl2/plat_common.o
 .debug_str     0x0000000000000000      0x2a5 /home/charles/linux/code/tfa/mp157_alientek/tf-a-stm32mp-2.2.r1-r0/tf-a-stm32mp-2.2.r1/../build/optee/bl2/plat_common.o
 .comment       0x0000000000000000       0x5b /home/charles/linux/code/tfa/mp157_alientek/tf-a-stm32mp-2.2.r1-r0/tf-a-stm32mp-2.2.r1/../build/optee/bl2/plat_common.o
 .note.GNU-stack
                0x0000000000000000        0x0 /home/charles/linux/code/tfa/mp157_alientek/tf-a-stm32mp-2.2.r1-r0/tf-a-stm32mp-2.2.r1/../build/optee/bl2/plat_common.o
 .debug_frame   0x0000000000000000       0x20 /home/charles/linux/code/tfa/mp157_alientek/tf-a-stm32mp-2.2.r1-r0/tf-a-stm32mp-2.2.r1/../build/optee/bl2/plat_common.o
 .ARM.attributes
                0x0000000000000000       0x33 /home/charles/linux/code/tfa/mp157_alientek/tf-a-stm32mp-2.2.r1-r0/tf-a-stm32mp-2.2.r1/../build/optee/bl2/plat_common.o
 .text          0x0000000000000000        0x0 /home/charles/linux/code/tfa/mp157_alientek/tf-a-stm32mp-2.2.r1-r0/tf-a-stm32mp-2.2.r1/../build/optee/bl2/popcountdi2.o
 .data          0x0000000000000000        0x0 /home/charles/linux/code/tfa/mp157_alientek/tf-a-stm32mp-2.2.r1-r0/tf-a-stm32mp-2.2.r1/../build/optee/bl2/popcountdi2.o
 .bss           0x0000000000000000        0x0 /home/charles/linux/code/tfa/mp157_alientek/tf-a-stm32mp-2.2.r1-r0/tf-a-stm32mp-2.2.r1/../build/optee/bl2/popcountdi2.o
 .text.__popcountdi2
                0x0000000000000000       0x56 /home/charles/linux/code/tfa/mp157_alientek/tf-a-stm32mp-2.2.r1-r0/tf-a-stm32mp-2.2.r1/../build/optee/bl2/popcountdi2.o
 .debug_info    0x0000000000000000      0x114 /home/charles/linux/code/tfa/mp157_alientek/tf-a-stm32mp-2.2.r1-r0/tf-a-stm32mp-2.2.r1/../build/optee/bl2/popcountdi2.o
 .debug_abbrev  0x0000000000000000       0x7d /home/charles/linux/code/tfa/mp157_alientek/tf-a-stm32mp-2.2.r1-r0/tf-a-stm32mp-2.2.r1/../build/optee/bl2/popcountdi2.o
 .debug_loc     0x0000000000000000       0x91 /home/charles/linux/code/tfa/mp157_alientek/tf-a-stm32mp-2.2.r1-r0/tf-a-stm32mp-2.2.r1/../build/optee/bl2/popcountdi2.o
 .debug_aranges
                0x0000000000000000       0x20 /home/charles/linux/code/tfa/mp157_alientek/tf-a-stm32mp-2.2.r1-r0/tf-a-stm32mp-2.2.r1/../build/optee/bl2/popcountdi2.o
 .debug_ranges  0x0000000000000000       0x10 /home/charles/linux/code/tfa/mp157_alientek/tf-a-stm32mp-2.2.r1-r0/tf-a-stm32mp-2.2.r1/../build/optee/bl2/popcountdi2.o
 .debug_line    0x0000000000000000       0xc2 /home/charles/linux/code/tfa/mp157_alientek/tf-a-stm32mp-2.2.r1-r0/tf-a-stm32mp-2.2.r1/../build/optee/bl2/popcountdi2.o
 .debug_str     0x0000000000000000      0x24a /home/charles/linux/code/tfa/mp157_alientek/tf-a-stm32mp-2.2.r1-r0/tf-a-stm32mp-2.2.r1/../build/optee/bl2/popcountdi2.o
 .comment       0x0000000000000000       0x5b /home/charles/linux/code/tfa/mp157_alientek/tf-a-stm32mp-2.2.r1-r0/tf-a-stm32mp-2.2.r1/../build/optee/bl2/popcountdi2.o
 .note.GNU-stack
                0x0000000000000000        0x0 /home/charles/linux/code/tfa/mp157_alientek/tf-a-stm32mp-2.2.r1-r0/tf-a-stm32mp-2.2.r1/../build/optee/bl2/popcountdi2.o
 .debug_frame   0x0000000000000000       0x2c /home/charles/linux/code/tfa/mp157_alientek/tf-a-stm32mp-2.2.r1-r0/tf-a-stm32mp-2.2.r1/../build/optee/bl2/popcountdi2.o
 .ARM.attributes
                0x0000000000000000       0x33 /home/charles/linux/code/tfa/mp157_alientek/tf-a-stm32mp-2.2.r1-r0/tf-a-stm32mp-2.2.r1/../build/optee/bl2/popcountdi2.o
 .text          0x0000000000000000        0x0 /home/charles/linux/code/tfa/mp157_alientek/tf-a-stm32mp-2.2.r1-r0/tf-a-stm32mp-2.2.r1/../build/optee/bl2/popcountsi2.o
 .data          0x0000000000000000        0x0 /home/charles/linux/code/tfa/mp157_alientek/tf-a-stm32mp-2.2.r1-r0/tf-a-stm32mp-2.2.r1/../build/optee/bl2/popcountsi2.o
 .bss           0x0000000000000000        0x0 /home/charles/linux/code/tfa/mp157_alientek/tf-a-stm32mp-2.2.r1-r0/tf-a-stm32mp-2.2.r1/../build/optee/bl2/popcountsi2.o
 .text          0x0000000000000000        0x0 /home/charles/linux/code/tfa/mp157_alientek/tf-a-stm32mp-2.2.r1-r0/tf-a-stm32mp-2.2.r1/../build/optee/bl2/ctzdi2.o
 .data          0x0000000000000000        0x0 /home/charles/linux/code/tfa/mp157_alientek/tf-a-stm32mp-2.2.r1-r0/tf-a-stm32mp-2.2.r1/../build/optee/bl2/ctzdi2.o
 .bss           0x0000000000000000        0x0 /home/charles/linux/code/tfa/mp157_alientek/tf-a-stm32mp-2.2.r1-r0/tf-a-stm32mp-2.2.r1/../build/optee/bl2/ctzdi2.o
 .text          0x0000000000000000        0x0 /home/charles/linux/code/tfa/mp157_alientek/tf-a-stm32mp-2.2.r1-r0/tf-a-stm32mp-2.2.r1/../build/optee/bl2/divdi3.o
 .data          0x0000000000000000        0x0 /home/charles/linux/code/tfa/mp157_alientek/tf-a-stm32mp-2.2.r1-r0/tf-a-stm32mp-2.2.r1/../build/optee/bl2/divdi3.o
 .bss           0x0000000000000000        0x0 /home/charles/linux/code/tfa/mp157_alientek/tf-a-stm32mp-2.2.r1-r0/tf-a-stm32mp-2.2.r1/../build/optee/bl2/divdi3.o
 .text.__divdi3
                0x0000000000000000       0x4a /home/charles/linux/code/tfa/mp157_alientek/tf-a-stm32mp-2.2.r1-r0/tf-a-stm32mp-2.2.r1/../build/optee/bl2/divdi3.o
 .debug_info    0x0000000000000000      0x143 /home/charles/linux/code/tfa/mp157_alientek/tf-a-stm32mp-2.2.r1-r0/tf-a-stm32mp-2.2.r1/../build/optee/bl2/divdi3.o
 .debug_abbrev  0x0000000000000000       0xc1 /home/charles/linux/code/tfa/mp157_alientek/tf-a-stm32mp-2.2.r1-r0/tf-a-stm32mp-2.2.r1/../build/optee/bl2/divdi3.o
 .debug_loc     0x0000000000000000       0x9e /home/charles/linux/code/tfa/mp157_alientek/tf-a-stm32mp-2.2.r1-r0/tf-a-stm32mp-2.2.r1/../build/optee/bl2/divdi3.o
 .debug_aranges
                0x0000000000000000       0x20 /home/charles/linux/code/tfa/mp157_alientek/tf-a-stm32mp-2.2.r1-r0/tf-a-stm32mp-2.2.r1/../build/optee/bl2/divdi3.o
 .debug_ranges  0x0000000000000000       0x10 /home/charles/linux/code/tfa/mp157_alientek/tf-a-stm32mp-2.2.r1-r0/tf-a-stm32mp-2.2.r1/../build/optee/bl2/divdi3.o
 .debug_line    0x0000000000000000       0xb6 /home/charles/linux/code/tfa/mp157_alientek/tf-a-stm32mp-2.2.r1-r0/tf-a-stm32mp-2.2.r1/../build/optee/bl2/divdi3.o
 .debug_str     0x0000000000000000      0x250 /home/charles/linux/code/tfa/mp157_alientek/tf-a-stm32mp-2.2.r1-r0/tf-a-stm32mp-2.2.r1/../build/optee/bl2/divdi3.o
 .comment       0x0000000000000000       0x5b /home/charles/linux/code/tfa/mp157_alientek/tf-a-stm32mp-2.2.r1-r0/tf-a-stm32mp-2.2.r1/../build/optee/bl2/divdi3.o
 .note.GNU-stack
                0x0000000000000000        0x0 /home/charles/linux/code/tfa/mp157_alientek/tf-a-stm32mp-2.2.r1-r0/tf-a-stm32mp-2.2.r1/../build/optee/bl2/divdi3.o
 .debug_frame   0x0000000000000000       0x34 /home/charles/linux/code/tfa/mp157_alientek/tf-a-stm32mp-2.2.r1-r0/tf-a-stm32mp-2.2.r1/../build/optee/bl2/divdi3.o
 .ARM.attributes
                0x0000000000000000       0x33 /home/charles/linux/code/tfa/mp157_alientek/tf-a-stm32mp-2.2.r1-r0/tf-a-stm32mp-2.2.r1/../build/optee/bl2/divdi3.o
 .text          0x0000000000000000        0x0 /home/charles/linux/code/tfa/mp157_alientek/tf-a-stm32mp-2.2.r1-r0/tf-a-stm32mp-2.2.r1/../build/optee/bl2/divmoddi4.o
 .data          0x0000000000000000        0x0 /home/charles/linux/code/tfa/mp157_alientek/tf-a-stm32mp-2.2.r1-r0/tf-a-stm32mp-2.2.r1/../build/optee/bl2/divmoddi4.o
 .bss           0x0000000000000000        0x0 /home/charles/linux/code/tfa/mp157_alientek/tf-a-stm32mp-2.2.r1-r0/tf-a-stm32mp-2.2.r1/../build/optee/bl2/divmoddi4.o
 .text.__divmoddi4
                0x0000000000000000       0x30 /home/charles/linux/code/tfa/mp157_alientek/tf-a-stm32mp-2.2.r1-r0/tf-a-stm32mp-2.2.r1/../build/optee/bl2/divmoddi4.o
 .debug_info    0x0000000000000000      0x13a /home/charles/linux/code/tfa/mp157_alientek/tf-a-stm32mp-2.2.r1-r0/tf-a-stm32mp-2.2.r1/../build/optee/bl2/divmoddi4.o
 .debug_abbrev  0x0000000000000000       0xc3 /home/charles/linux/code/tfa/mp157_alientek/tf-a-stm32mp-2.2.r1-r0/tf-a-stm32mp-2.2.r1/../build/optee/bl2/divmoddi4.o
 .debug_loc     0x0000000000000000       0x72 /home/charles/linux/code/tfa/mp157_alientek/tf-a-stm32mp-2.2.r1-r0/tf-a-stm32mp-2.2.r1/../build/optee/bl2/divmoddi4.o
 .debug_aranges
                0x0000000000000000       0x20 /home/charles/linux/code/tfa/mp157_alientek/tf-a-stm32mp-2.2.r1-r0/tf-a-stm32mp-2.2.r1/../build/optee/bl2/divmoddi4.o
 .debug_ranges  0x0000000000000000       0x10 /home/charles/linux/code/tfa/mp157_alientek/tf-a-stm32mp-2.2.r1-r0/tf-a-stm32mp-2.2.r1/../build/optee/bl2/divmoddi4.o
 .debug_line    0x0000000000000000       0x98 /home/charles/linux/code/tfa/mp157_alientek/tf-a-stm32mp-2.2.r1-r0/tf-a-stm32mp-2.2.r1/../build/optee/bl2/divmoddi4.o
 .debug_str     0x0000000000000000      0x23a /home/charles/linux/code/tfa/mp157_alientek/tf-a-stm32mp-2.2.r1-r0/tf-a-stm32mp-2.2.r1/../build/optee/bl2/divmoddi4.o
 .comment       0x0000000000000000       0x5b /home/charles/linux/code/tfa/mp157_alientek/tf-a-stm32mp-2.2.r1-r0/tf-a-stm32mp-2.2.r1/../build/optee/bl2/divmoddi4.o
 .note.GNU-stack
                0x0000000000000000        0x0 /home/charles/linux/code/tfa/mp157_alientek/tf-a-stm32mp-2.2.r1-r0/tf-a-stm32mp-2.2.r1/../build/optee/bl2/divmoddi4.o
 .debug_frame   0x0000000000000000       0x30 /home/charles/linux/code/tfa/mp157_alientek/tf-a-stm32mp-2.2.r1-r0/tf-a-stm32mp-2.2.r1/../build/optee/bl2/divmoddi4.o
 .ARM.attributes
                0x0000000000000000       0x33 /home/charles/linux/code/tfa/mp157_alientek/tf-a-stm32mp-2.2.r1-r0/tf-a-stm32mp-2.2.r1/../build/optee/bl2/divmoddi4.o
 .text          0x0000000000000000        0x0 /home/charles/linux/code/tfa/mp157_alientek/tf-a-stm32mp-2.2.r1-r0/tf-a-stm32mp-2.2.r1/../build/optee/bl2/lshrdi3.o
 .data          0x0000000000000000        0x0 /home/charles/linux/code/tfa/mp157_alientek/tf-a-stm32mp-2.2.r1-r0/tf-a-stm32mp-2.2.r1/../build/optee/bl2/lshrdi3.o
 .bss           0x0000000000000000        0x0 /home/charles/linux/code/tfa/mp157_alientek/tf-a-stm32mp-2.2.r1-r0/tf-a-stm32mp-2.2.r1/../build/optee/bl2/lshrdi3.o
 .text.__lshrdi3
                0x0000000000000000       0x28 /home/charles/linux/code/tfa/mp157_alientek/tf-a-stm32mp-2.2.r1-r0/tf-a-stm32mp-2.2.r1/../build/optee/bl2/lshrdi3.o
 .debug_info    0x0000000000000000      0x175 /home/charles/linux/code/tfa/mp157_alientek/tf-a-stm32mp-2.2.r1-r0/tf-a-stm32mp-2.2.r1/../build/optee/bl2/lshrdi3.o
 .debug_abbrev  0x0000000000000000       0xf0 /home/charles/linux/code/tfa/mp157_alientek/tf-a-stm32mp-2.2.r1-r0/tf-a-stm32mp-2.2.r1/../build/optee/bl2/lshrdi3.o
 .debug_loc     0x0000000000000000       0x50 /home/charles/linux/code/tfa/mp157_alientek/tf-a-stm32mp-2.2.r1-r0/tf-a-stm32mp-2.2.r1/../build/optee/bl2/lshrdi3.o
 .debug_aranges
                0x0000000000000000       0x20 /home/charles/linux/code/tfa/mp157_alientek/tf-a-stm32mp-2.2.r1-r0/tf-a-stm32mp-2.2.r1/../build/optee/bl2/lshrdi3.o
 .debug_ranges  0x0000000000000000       0x10 /home/charles/linux/code/tfa/mp157_alientek/tf-a-stm32mp-2.2.r1-r0/tf-a-stm32mp-2.2.r1/../build/optee/bl2/lshrdi3.o
 .debug_line    0x0000000000000000       0xb8 /home/charles/linux/code/tfa/mp157_alientek/tf-a-stm32mp-2.2.r1-r0/tf-a-stm32mp-2.2.r1/../build/optee/bl2/lshrdi3.o
 .debug_str     0x0000000000000000      0x269 /home/charles/linux/code/tfa/mp157_alientek/tf-a-stm32mp-2.2.r1-r0/tf-a-stm32mp-2.2.r1/../build/optee/bl2/lshrdi3.o
 .comment       0x0000000000000000       0x5b /home/charles/linux/code/tfa/mp157_alientek/tf-a-stm32mp-2.2.r1-r0/tf-a-stm32mp-2.2.r1/../build/optee/bl2/lshrdi3.o
 .note.GNU-stack
                0x0000000000000000        0x0 /home/charles/linux/code/tfa/mp157_alientek/tf-a-stm32mp-2.2.r1-r0/tf-a-stm32mp-2.2.r1/../build/optee/bl2/lshrdi3.o
 .debug_frame   0x0000000000000000       0x28 /home/charles/linux/code/tfa/mp157_alientek/tf-a-stm32mp-2.2.r1-r0/tf-a-stm32mp-2.2.r1/../build/optee/bl2/lshrdi3.o
 .ARM.attributes
                0x0000000000000000       0x33 /home/charles/linux/code/tfa/mp157_alientek/tf-a-stm32mp-2.2.r1-r0/tf-a-stm32mp-2.2.r1/../build/optee/bl2/lshrdi3.o
 .text          0x0000000000000000        0x0 /home/charles/linux/code/tfa/mp157_alientek/tf-a-stm32mp-2.2.r1-r0/tf-a-stm32mp-2.2.r1/../build/optee/bl2/udivmoddi4.o
 .data          0x0000000000000000        0x0 /home/charles/linux/code/tfa/mp157_alientek/tf-a-stm32mp-2.2.r1-r0/tf-a-stm32mp-2.2.r1/../build/optee/bl2/udivmoddi4.o
 .bss           0x0000000000000000        0x0 /home/charles/linux/code/tfa/mp157_alientek/tf-a-stm32mp-2.2.r1-r0/tf-a-stm32mp-2.2.r1/../build/optee/bl2/udivmoddi4.o
 .text          0x0000000000000000        0x0 /home/charles/linux/code/tfa/mp157_alientek/tf-a-stm32mp-2.2.r1-r0/tf-a-stm32mp-2.2.r1/../build/optee/bl2/stm32mp_common.o
 .data          0x0000000000000000        0x0 /home/charles/linux/code/tfa/mp157_alientek/tf-a-stm32mp-2.2.r1-r0/tf-a-stm32mp-2.2.r1/../build/optee/bl2/stm32mp_common.o
 .bss           0x0000000000000000        0x0 /home/charles/linux/code/tfa/mp157_alientek/tf-a-stm32mp-2.2.r1-r0/tf-a-stm32mp-2.2.r1/../build/optee/bl2/stm32mp_common.o
 .text.plat_get_ns_image_entrypoint
                0x0000000000000000        0x8 /home/charles/linux/code/tfa/mp157_alientek/tf-a-stm32mp-2.2.r1-r0/tf-a-stm32mp-2.2.r1/../build/optee/bl2/stm32mp_common.o
 .text.stm32mp_plat_reset
                0x0000000000000000        0xa /home/charles/linux/code/tfa/mp157_alientek/tf-a-stm32mp-2.2.r1-r0/tf-a-stm32mp-2.2.r1/../build/optee/bl2/stm32mp_common.o
 .text.stm32mp_pwr_regs_lock
                0x0000000000000000       0x18 /home/charles/linux/code/tfa/mp157_alientek/tf-a-stm32mp-2.2.r1-r0/tf-a-stm32mp-2.2.r1/../build/optee/bl2/stm32mp_common.o
 .text.stm32mp_pwr_regs_unlock
                0x0000000000000000       0x18 /home/charles/linux/code/tfa/mp157_alientek/tf-a-stm32mp-2.2.r1-r0/tf-a-stm32mp-2.2.r1/../build/optee/bl2/stm32mp_common.o
 .bss.lock      0x0000000000000000        0x4 /home/charles/linux/code/tfa/mp157_alientek/tf-a-stm32mp-2.2.r1-r0/tf-a-stm32mp-2.2.r1/../build/optee/bl2/stm32mp_common.o
 .text          0x0000000000000000        0x0 /home/charles/linux/code/tfa/mp157_alientek/tf-a-stm32mp-2.2.r1-r0/tf-a-stm32mp-2.2.r1/../build/optee/bl2/stm32mp1_private.o
 .data          0x0000000000000000        0x0 /home/charles/linux/code/tfa/mp157_alientek/tf-a-stm32mp-2.2.r1-r0/tf-a-stm32mp-2.2.r1/../build/optee/bl2/stm32mp1_private.o
 .bss           0x0000000000000000        0x0 /home/charles/linux/code/tfa/mp157_alientek/tf-a-stm32mp-2.2.r1-r0/tf-a-stm32mp-2.2.r1/../build/optee/bl2/stm32mp1_private.o
 .text.stm32mp_mask_timer
                0x0000000000000000       0x1a /home/charles/linux/code/tfa/mp157_alientek/tf-a-stm32mp-2.2.r1-r0/tf-a-stm32mp-2.2.r1/../build/optee/bl2/stm32mp1_private.o
 .text.stm32mp_wait_cpu_reset
                0x0000000000000000       0x42 /home/charles/linux/code/tfa/mp157_alientek/tf-a-stm32mp-2.2.r1-r0/tf-a-stm32mp-2.2.r1/../build/optee/bl2/stm32mp1_private.o
 .text.stm32mp_is_single_core
                0x0000000000000000       0x2c /home/charles/linux/code/tfa/mp157_alientek/tf-a-stm32mp-2.2.r1-r0/tf-a-stm32mp-2.2.r1/../build/optee/bl2/stm32mp1_private.o
 .text.stm32mp_plat_reset
                0x0000000000000000       0xac /home/charles/linux/code/tfa/mp157_alientek/tf-a-stm32mp-2.2.r1-r0/tf-a-stm32mp-2.2.r1/../build/optee/bl2/stm32mp1_private.o
 .text.stm32mp_etzpc_binding2decprot
                0x0000000000000000       0x10 /home/charles/linux/code/tfa/mp157_alientek/tf-a-stm32mp-2.2.r1-r0/tf-a-stm32mp-2.2.r1/../build/optee/bl2/stm32mp1_private.o
 .rodata.tzc_source_ip
                0x0000000000000000       0x84 /home/charles/linux/code/tfa/mp157_alientek/tf-a-stm32mp-2.2.r1-r0/tf-a-stm32mp-2.2.r1/../build/optee/bl2/stm32mp1_private.o
 .text          0x0000000000000000        0x0 /home/charles/linux/code/tfa/mp157_alientek/tf-a-stm32mp-2.2.r1-r0/tf-a-stm32mp-2.2.r1/../build/optee/bl2/xlat_tables_arch.o
 .data          0x0000000000000000        0x0 /home/charles/linux/code/tfa/mp157_alientek/tf-a-stm32mp-2.2.r1-r0/tf-a-stm32mp-2.2.r1/../build/optee/bl2/xlat_tables_arch.o
 .bss           0x0000000000000000        0x0 /home/charles/linux/code/tfa/mp157_alientek/tf-a-stm32mp-2.2.r1-r0/tf-a-stm32mp-2.2.r1/../build/optee/bl2/xlat_tables_arch.o
 .text.xlat_arch_is_granule_size_supported
                0x0000000000000000        0xa /home/charles/linux/code/tfa/mp157_alientek/tf-a-stm32mp-2.2.r1-r0/tf-a-stm32mp-2.2.r1/../build/optee/bl2/xlat_tables_arch.o
 .text.xlat_arch_get_max_supported_granule_size
                0x0000000000000000        0x6 /home/charles/linux/code/tfa/mp157_alientek/tf-a-stm32mp-2.2.r1-r0/tf-a-stm32mp-2.2.r1/../build/optee/bl2/xlat_tables_arch.o
 .text          0x0000000000000000        0x0 /home/charles/linux/code/tfa/mp157_alientek/tf-a-stm32mp-2.2.r1-r0/tf-a-stm32mp-2.2.r1/../build/optee/bl2/xlat_tables_context.o
 .data          0x0000000000000000        0x0 /home/charles/linux/code/tfa/mp157_alientek/tf-a-stm32mp-2.2.r1-r0/tf-a-stm32mp-2.2.r1/../build/optee/bl2/xlat_tables_context.o
 .bss           0x0000000000000000        0x0 /home/charles/linux/code/tfa/mp157_alientek/tf-a-stm32mp-2.2.r1-r0/tf-a-stm32mp-2.2.r1/../build/optee/bl2/xlat_tables_context.o
 .text.mmap_add_region_alloc_va
                0x0000000000000000       0x30 /home/charles/linux/code/tfa/mp157_alientek/tf-a-stm32mp-2.2.r1-r0/tf-a-stm32mp-2.2.r1/../build/optee/bl2/xlat_tables_context.o
 .text.mmap_add_alloc_va
                0x0000000000000000       0x2c /home/charles/linux/code/tfa/mp157_alientek/tf-a-stm32mp-2.2.r1-r0/tf-a-stm32mp-2.2.r1/../build/optee/bl2/xlat_tables_context.o
 .text.mmap_add_dynamic_region_alloc_va
                0x0000000000000000       0x30 /home/charles/linux/code/tfa/mp157_alientek/tf-a-stm32mp-2.2.r1-r0/tf-a-stm32mp-2.2.r1/../build/optee/bl2/xlat_tables_context.o
 .text.xlat_get_mem_attributes
                0x0000000000000000       0x10 /home/charles/linux/code/tfa/mp157_alientek/tf-a-stm32mp-2.2.r1-r0/tf-a-stm32mp-2.2.r1/../build/optee/bl2/xlat_tables_context.o
 .text.xlat_change_mem_attributes
                0x0000000000000000       0x10 /home/charles/linux/code/tfa/mp157_alientek/tf-a-stm32mp-2.2.r1-r0/tf-a-stm32mp-2.2.r1/../build/optee/bl2/xlat_tables_context.o
 .text.enable_mmu_hyp
                0x0000000000000000       0x34 /home/charles/linux/code/tfa/mp157_alientek/tf-a-stm32mp-2.2.r1-r0/tf-a-stm32mp-2.2.r1/../build/optee/bl2/xlat_tables_context.o
 .text          0x0000000000000000        0x0 /home/charles/linux/code/tfa/mp157_alientek/tf-a-stm32mp-2.2.r1-r0/tf-a-stm32mp-2.2.r1/../build/optee/bl2/xlat_tables_core.o
 .data          0x0000000000000000        0x0 /home/charles/linux/code/tfa/mp157_alientek/tf-a-stm32mp-2.2.r1-r0/tf-a-stm32mp-2.2.r1/../build/optee/bl2/xlat_tables_core.o
 .bss           0x0000000000000000        0x0 /home/charles/linux/code/tfa/mp157_alientek/tf-a-stm32mp-2.2.r1-r0/tf-a-stm32mp-2.2.r1/../build/optee/bl2/xlat_tables_core.o
 .text.mmap_alloc_va_align_ctx.isra.0
                0x0000000000000000       0x3e /home/charles/linux/code/tfa/mp157_alientek/tf-a-stm32mp-2.2.r1-r0/tf-a-stm32mp-2.2.r1/../build/optee/bl2/xlat_tables_core.o
 .text.mmap_add_region_alloc_va_ctx
                0x0000000000000000       0x3c /home/charles/linux/code/tfa/mp157_alientek/tf-a-stm32mp-2.2.r1-r0/tf-a-stm32mp-2.2.r1/../build/optee/bl2/xlat_tables_core.o
 .text.mmap_add_dynamic_region_alloc_va_ctx
                0x0000000000000000       0x2c /home/charles/linux/code/tfa/mp157_alientek/tf-a-stm32mp-2.2.r1-r0/tf-a-stm32mp-2.2.r1/../build/optee/bl2/xlat_tables_core.o
 .text.xlat_setup_dynamic_ctx
                0x0000000000000000       0x62 /home/charles/linux/code/tfa/mp157_alientek/tf-a-stm32mp-2.2.r1-r0/tf-a-stm32mp-2.2.r1/../build/optee/bl2/xlat_tables_core.o
 .text          0x0000000000000000        0x0 /home/charles/linux/code/tfa/mp157_alientek/tf-a-stm32mp-2.2.r1-r0/tf-a-stm32mp-2.2.r1/../build/optee/bl2/xlat_tables_utils.o
 .data          0x0000000000000000        0x0 /home/charles/linux/code/tfa/mp157_alientek/tf-a-stm32mp-2.2.r1-r0/tf-a-stm32mp-2.2.r1/../build/optee/bl2/xlat_tables_utils.o
 .bss           0x0000000000000000        0x0 /home/charles/linux/code/tfa/mp157_alientek/tf-a-stm32mp-2.2.r1-r0/tf-a-stm32mp-2.2.r1/../build/optee/bl2/xlat_tables_utils.o
 .rodata.find_xlat_table_entry.str1.1
                0x0000000000000000       0x53 /home/charles/linux/code/tfa/mp157_alientek/tf-a-stm32mp-2.2.r1-r0/tf-a-stm32mp-2.2.r1/../build/optee/bl2/xlat_tables_utils.o
 .text.find_xlat_table_entry
                0x0000000000000000       0xa8 /home/charles/linux/code/tfa/mp157_alientek/tf-a-stm32mp-2.2.r1-r0/tf-a-stm32mp-2.2.r1/../build/optee/bl2/xlat_tables_utils.o
 .rodata.xlat_get_mem_attributes_internal.str1.1
                0x0000000000000000       0x1f /home/charles/linux/code/tfa/mp157_alientek/tf-a-stm32mp-2.2.r1-r0/tf-a-stm32mp-2.2.r1/../build/optee/bl2/xlat_tables_utils.o
 .text.xlat_get_mem_attributes_internal
                0x0000000000000000      0x140 /home/charles/linux/code/tfa/mp157_alientek/tf-a-stm32mp-2.2.r1-r0/tf-a-stm32mp-2.2.r1/../build/optee/bl2/xlat_tables_utils.o
 .text.xlat_get_mem_attributes_ctx
                0x0000000000000000       0x12 /home/charles/linux/code/tfa/mp157_alientek/tf-a-stm32mp-2.2.r1-r0/tf-a-stm32mp-2.2.r1/../build/optee/bl2/xlat_tables_utils.o
 .rodata.xlat_change_mem_attributes_ctx.str1.1
                0x0000000000000000      0x152 /home/charles/linux/code/tfa/mp157_alientek/tf-a-stm32mp-2.2.r1-r0/tf-a-stm32mp-2.2.r1/../build/optee/bl2/xlat_tables_utils.o
 .text.xlat_change_mem_attributes_ctx
                0x0000000000000000      0x1b8 /home/charles/linux/code/tfa/mp157_alientek/tf-a-stm32mp-2.2.r1-r0/tf-a-stm32mp-2.2.r1/../build/optee/bl2/xlat_tables_utils.o
 .rodata.__func__.6700
                0x0000000000000000       0x1f /home/charles/linux/code/tfa/mp157_alientek/tf-a-stm32mp-2.2.r1-r0/tf-a-stm32mp-2.2.r1/../build/optee/bl2/xlat_tables_utils.o
 .text          0x0000000000000000        0x0 /home/charles/linux/code/tfa/mp157_alientek/tf-a-stm32mp-2.2.r1-r0/tf-a-stm32mp-2.2.r1/../build/optee/bl2/tzc400.o
 .data          0x0000000000000000        0x0 /home/charles/linux/code/tfa/mp157_alientek/tf-a-stm32mp-2.2.r1-r0/tf-a-stm32mp-2.2.r1/../build/optee/bl2/tzc400.o
 .bss           0x0000000000000000        0x0 /home/charles/linux/code/tfa/mp157_alientek/tf-a-stm32mp-2.2.r1-r0/tf-a-stm32mp-2.2.r1/../build/optee/bl2/tzc400.o
 .text.tzc400_configure_region0
                0x0000000000000000       0x2c /home/charles/linux/code/tfa/mp157_alientek/tf-a-stm32mp-2.2.r1-r0/tf-a-stm32mp-2.2.r1/../build/optee/bl2/tzc400.o
 .text.tzc400_clear_all_interrupts
                0x0000000000000000       0x30 /home/charles/linux/code/tfa/mp157_alientek/tf-a-stm32mp-2.2.r1-r0/tf-a-stm32mp-2.2.r1/../build/optee/bl2/tzc400.o
 .text.tzc400_is_pending_interrupt
                0x0000000000000000       0x3c /home/charles/linux/code/tfa/mp157_alientek/tf-a-stm32mp-2.2.r1-r0/tf-a-stm32mp-2.2.r1/../build/optee/bl2/tzc400.o
 .rodata.tzc400_it_handler.str1.1
                0x0000000000000000       0x7a /home/charles/linux/code/tfa/mp157_alientek/tf-a-stm32mp-2.2.r1-r0/tf-a-stm32mp-2.2.r1/../build/optee/bl2/tzc400.o
 .text.tzc400_it_handler
                0x0000000000000000       0xbc /home/charles/linux/code/tfa/mp157_alientek/tf-a-stm32mp-2.2.r1-r0/tf-a-stm32mp-2.2.r1/../build/optee/bl2/tzc400.o
 .text          0x0000000000000000        0x0 /home/charles/linux/code/tfa/mp157_alientek/tf-a-stm32mp-2.2.r1-r0/tf-a-stm32mp-2.2.r1/../build/optee/bl2/delay_timer.o
 .data          0x0000000000000000        0x0 /home/charles/linux/code/tfa/mp157_alientek/tf-a-stm32mp-2.2.r1-r0/tf-a-stm32mp-2.2.r1/../build/optee/bl2/delay_timer.o
 .bss           0x0000000000000000        0x0 /home/charles/linux/code/tfa/mp157_alientek/tf-a-stm32mp-2.2.r1-r0/tf-a-stm32mp-2.2.r1/../build/optee/bl2/delay_timer.o
 .text          0x0000000000000000        0x0 /home/charles/linux/code/tfa/mp157_alientek/tf-a-stm32mp-2.2.r1-r0/tf-a-stm32mp-2.2.r1/../build/optee/bl2/generic_delay_timer.o
 .data          0x0000000000000000        0x0 /home/charles/linux/code/tfa/mp157_alientek/tf-a-stm32mp-2.2.r1-r0/tf-a-stm32mp-2.2.r1/../build/optee/bl2/generic_delay_timer.o
 .bss           0x0000000000000000        0x0 /home/charles/linux/code/tfa/mp157_alientek/tf-a-stm32mp-2.2.r1-r0/tf-a-stm32mp-2.2.r1/../build/optee/bl2/generic_delay_timer.o
 .text          0x0000000000000000        0x0 /home/charles/linux/code/tfa/mp157_alientek/tf-a-stm32mp-2.2.r1-r0/tf-a-stm32mp-2.2.r1/../build/optee/bl2/bsec2.o
 .data          0x0000000000000000        0x0 /home/charles/linux/code/tfa/mp157_alientek/tf-a-stm32mp-2.2.r1-r0/tf-a-stm32mp-2.2.r1/../build/optee/bl2/bsec2.o
 .bss           0x0000000000000000        0x0 /home/charles/linux/code/tfa/mp157_alientek/tf-a-stm32mp-2.2.r1-r0/tf-a-stm32mp-2.2.r1/../build/optee/bl2/bsec2.o
 .text.bsec_get_base
                0x0000000000000000        0xc /home/charles/linux/code/tfa/mp157_alientek/tf-a-stm32mp-2.2.r1-r0/tf-a-stm32mp-2.2.r1/../build/optee/bl2/bsec2.o
 .text.bsec_get_config
                0x0000000000000000       0x44 /home/charles/linux/code/tfa/mp157_alientek/tf-a-stm32mp-2.2.r1-r0/tf-a-stm32mp-2.2.r1/../build/optee/bl2/bsec2.o
 .text.bsec_write_debug_conf
                0x0000000000000000       0x24 /home/charles/linux/code/tfa/mp157_alientek/tf-a-stm32mp-2.2.r1-r0/tf-a-stm32mp-2.2.r1/../build/optee/bl2/bsec2.o
 .text.bsec_set_config
                0x0000000000000000       0x6c /home/charles/linux/code/tfa/mp157_alientek/tf-a-stm32mp-2.2.r1-r0/tf-a-stm32mp-2.2.r1/../build/optee/bl2/bsec2.o
 .text.bsec_permanent_lock_otp
                0x0000000000000000       0x90 /home/charles/linux/code/tfa/mp157_alientek/tf-a-stm32mp-2.2.r1-r0/tf-a-stm32mp-2.2.r1/../build/optee/bl2/bsec2.o
 .text.bsec_get_hw_conf
                0x0000000000000000       0x10 /home/charles/linux/code/tfa/mp157_alientek/tf-a-stm32mp-2.2.r1-r0/tf-a-stm32mp-2.2.r1/../build/optee/bl2/bsec2.o
 .text.bsec_get_magic_id
                0x0000000000000000       0x10 /home/charles/linux/code/tfa/mp157_alientek/tf-a-stm32mp-2.2.r1-r0/tf-a-stm32mp-2.2.r1/../build/optee/bl2/bsec2.o
 .text.bsec_set_sp_lock
                0x0000000000000000       0x38 /home/charles/linux/code/tfa/mp157_alientek/tf-a-stm32mp-2.2.r1-r0/tf-a-stm32mp-2.2.r1/../build/optee/bl2/bsec2.o
 .text.bsec_otp_lock
                0x0000000000000000       0x2c /home/charles/linux/code/tfa/mp157_alientek/tf-a-stm32mp-2.2.r1-r0/tf-a-stm32mp-2.2.r1/../build/optee/bl2/bsec2.o
 .text.bsec_check_nsec_access_rights
                0x0000000000000000        0x4 /home/charles/linux/code/tfa/mp157_alientek/tf-a-stm32mp-2.2.r1-r0/tf-a-stm32mp-2.2.r1/../build/optee/bl2/bsec2.o
 .text          0x0000000000000000        0x0 /home/charles/linux/code/tfa/mp157_alientek/tf-a-stm32mp-2.2.r1-r0/tf-a-stm32mp-2.2.r1/../build/optee/bl2/stm32mp_clkfunc.o
 .data          0x0000000000000000        0x0 /home/charles/linux/code/tfa/mp157_alientek/tf-a-stm32mp-2.2.r1-r0/tf-a-stm32mp-2.2.r1/../build/optee/bl2/stm32mp_clkfunc.o
 .bss           0x0000000000000000        0x0 /home/charles/linux/code/tfa/mp157_alientek/tf-a-stm32mp-2.2.r1-r0/tf-a-stm32mp-2.2.r1/../build/optee/bl2/stm32mp_clkfunc.o
 .text.fdt_rcc_read_uint32_default
                0x0000000000000000       0x1e /home/charles/linux/code/tfa/mp157_alientek/tf-a-stm32mp-2.2.r1-r0/tf-a-stm32mp-2.2.r1/../build/optee/bl2/stm32mp_clkfunc.o
 .text.fdt_rcc_enable_it
                0x0000000000000000       0x1c /home/charles/linux/code/tfa/mp157_alientek/tf-a-stm32mp-2.2.r1-r0/tf-a-stm32mp-2.2.r1/../build/optee/bl2/stm32mp_clkfunc.o
 .rodata.fdt_get_clock_id_by_name.str1.1
                0x0000000000000000        0xc /home/charles/linux/code/tfa/mp157_alientek/tf-a-stm32mp-2.2.r1-r0/tf-a-stm32mp-2.2.r1/../build/optee/bl2/stm32mp_clkfunc.o
 .text.fdt_get_clock_id_by_name
                0x0000000000000000       0x70 /home/charles/linux/code/tfa/mp157_alientek/tf-a-stm32mp-2.2.r1-r0/tf-a-stm32mp-2.2.r1/../build/optee/bl2/stm32mp_clkfunc.o
 .rodata.fdt_get_uart_clock_freq.str1.1
                0x0000000000000000       0x10 /home/charles/linux/code/tfa/mp157_alientek/tf-a-stm32mp-2.2.r1-r0/tf-a-stm32mp-2.2.r1/../build/optee/bl2/stm32mp_clkfunc.o
 .text.fdt_get_uart_clock_freq
                0x0000000000000000       0x30 /home/charles/linux/code/tfa/mp157_alientek/tf-a-stm32mp-2.2.r1-r0/tf-a-stm32mp-2.2.r1/../build/optee/bl2/stm32mp_clkfunc.o
 .text.stm32mp_stgen_restore_counter
                0x0000000000000000       0x48 /home/charles/linux/code/tfa/mp157_alientek/tf-a-stm32mp-2.2.r1-r0/tf-a-stm32mp-2.2.r1/../build/optee/bl2/stm32mp_clkfunc.o
 .text          0x0000000000000000        0x0 /home/charles/linux/code/tfa/mp157_alientek/tf-a-stm32mp-2.2.r1-r0/tf-a-stm32mp-2.2.r1/../build/optee/bl2/stm32mp1_clk.o
 .data          0x0000000000000000        0x0 /home/charles/linux/code/tfa/mp157_alientek/tf-a-stm32mp-2.2.r1-r0/tf-a-stm32mp-2.2.r1/../build/optee/bl2/stm32mp1_clk.o
 .bss           0x0000000000000000        0x0 /home/charles/linux/code/tfa/mp157_alientek/tf-a-stm32mp-2.2.r1-r0/tf-a-stm32mp-2.2.r1/../build/optee/bl2/stm32mp1_clk.o
 .text.stm32mp1_pll1_config_from_opp_khz
                0x0000000000000000      0x158 /home/charles/linux/code/tfa/mp157_alientek/tf-a-stm32mp-2.2.r1-r0/tf-a-stm32mp-2.2.r1/../build/optee/bl2/stm32mp1_clk.o
 .text.stm32mp1_rcc_is_secure
                0x0000000000000000        0xe /home/charles/linux/code/tfa/mp157_alientek/tf-a-stm32mp-2.2.r1-r0/tf-a-stm32mp-2.2.r1/../build/optee/bl2/stm32mp1_clk.o
 .text.stm32mp1_rcc_is_mckprot
                0x0000000000000000       0x14 /home/charles/linux/code/tfa/mp157_alientek/tf-a-stm32mp-2.2.r1-r0/tf-a-stm32mp-2.2.r1/../build/optee/bl2/stm32mp1_clk.o
 .text.stm32mp1_clk_force_disable
                0x0000000000000000        0x6 /home/charles/linux/code/tfa/mp157_alientek/tf-a-stm32mp-2.2.r1-r0/tf-a-stm32mp-2.2.r1/../build/optee/bl2/stm32mp1_clk.o
 .text.stm32mp_clk_is_enabled
                0x0000000000000000       0x40 /home/charles/linux/code/tfa/mp157_alientek/tf-a-stm32mp-2.2.r1-r0/tf-a-stm32mp-2.2.r1/../build/optee/bl2/stm32mp1_clk.o
 .text.stm32mp_clk_timer_get_rate
                0x0000000000000000       0x3c /home/charles/linux/code/tfa/mp157_alientek/tf-a-stm32mp-2.2.r1-r0/tf-a-stm32mp-2.2.r1/../build/optee/bl2/stm32mp1_clk.o
 .text.stm32mp1_rtc_get_read_twice
                0x0000000000000000       0x5e /home/charles/linux/code/tfa/mp157_alientek/tf-a-stm32mp-2.2.r1-r0/tf-a-stm32mp-2.2.r1/../build/optee/bl2/stm32mp1_clk.o
 .text.stm32mp1_round_opp_khz
                0x0000000000000000       0x38 /home/charles/linux/code/tfa/mp157_alientek/tf-a-stm32mp-2.2.r1-r0/tf-a-stm32mp-2.2.r1/../build/optee/bl2/stm32mp1_clk.o
 .rodata.stm32mp1_set_opp_khz.str1.1
                0x0000000000000000       0x24 /home/charles/linux/code/tfa/mp157_alientek/tf-a-stm32mp-2.2.r1-r0/tf-a-stm32mp-2.2.r1/../build/optee/bl2/stm32mp1_clk.o
 .text.stm32mp1_set_opp_khz
                0x0000000000000000       0x70 /home/charles/linux/code/tfa/mp157_alientek/tf-a-stm32mp-2.2.r1-r0/tf-a-stm32mp-2.2.r1/../build/optee/bl2/stm32mp1_clk.o
 .rodata.stm32mp1_clk_compute_all_pll1_settings.str1.1
                0x0000000000000000       0x32 /home/charles/linux/code/tfa/mp157_alientek/tf-a-stm32mp-2.2.r1-r0/tf-a-stm32mp-2.2.r1/../build/optee/bl2/stm32mp1_clk.o
 .text.stm32mp1_clk_compute_all_pll1_settings
                0x0000000000000000      0x130 /home/charles/linux/code/tfa/mp157_alientek/tf-a-stm32mp-2.2.r1-r0/tf-a-stm32mp-2.2.r1/../build/optee/bl2/stm32mp1_clk.o
 .text.stm32mp1_clk_lp_save_opp_pll1_settings
                0x0000000000000000       0x2c /home/charles/linux/code/tfa/mp157_alientek/tf-a-stm32mp-2.2.r1-r0/tf-a-stm32mp-2.2.r1/../build/optee/bl2/stm32mp1_clk.o
 .text.stm32mp1_clk_rcc2id
                0x0000000000000000       0x40 /home/charles/linux/code/tfa/mp157_alientek/tf-a-stm32mp-2.2.r1-r0/tf-a-stm32mp-2.2.r1/../build/optee/bl2/stm32mp1_clk.o
 .text.stm32mp1_register_clock_parents_secure
                0x0000000000000000        0x2 /home/charles/linux/code/tfa/mp157_alientek/tf-a-stm32mp-2.2.r1-r0/tf-a-stm32mp-2.2.r1/../build/optee/bl2/stm32mp1_clk.o
 .text.save_clock_pm_context
                0x0000000000000000       0x50 /home/charles/linux/code/tfa/mp157_alientek/tf-a-stm32mp-2.2.r1-r0/tf-a-stm32mp-2.2.r1/../build/optee/bl2/stm32mp1_clk.o
 .text.restore_clock_pm_context
                0x0000000000000000       0x50 /home/charles/linux/code/tfa/mp157_alientek/tf-a-stm32mp-2.2.r1-r0/tf-a-stm32mp-2.2.r1/../build/optee/bl2/stm32mp1_clk.o
 .text.stm32mp1_clock_suspend
                0x0000000000000000       0x98 /home/charles/linux/code/tfa/mp157_alientek/tf-a-stm32mp-2.2.r1-r0/tf-a-stm32mp-2.2.r1/../build/optee/bl2/stm32mp1_clk.o
 .text.stm32mp1_clock_resume
                0x0000000000000000       0xd4 /home/charles/linux/code/tfa/mp157_alientek/tf-a-stm32mp-2.2.r1-r0/tf-a-stm32mp-2.2.r1/../build/optee/bl2/stm32mp1_clk.o
 .text.stm32mp1_clock_stopmode_save
                0x0000000000000000       0x4c /home/charles/linux/code/tfa/mp157_alientek/tf-a-stm32mp-2.2.r1-r0/tf-a-stm32mp-2.2.r1/../build/optee/bl2/stm32mp1_clk.o
 .text.stm32mp1_clock_stopmode_resume
                0x0000000000000000       0x98 /home/charles/linux/code/tfa/mp157_alientek/tf-a-stm32mp-2.2.r1-r0/tf-a-stm32mp-2.2.r1/../build/optee/bl2/stm32mp1_clk.o
 .text.stm32mp1_dump_clocks_state
                0x0000000000000000        0x2 /home/charles/linux/code/tfa/mp157_alientek/tf-a-stm32mp-2.2.r1-r0/tf-a-stm32mp-2.2.r1/../build/optee/bl2/stm32mp1_clk.o
 .bss.mcudivr   0x0000000000000000        0x4 /home/charles/linux/code/tfa/mp157_alientek/tf-a-stm32mp-2.2.r1-r0/tf-a-stm32mp-2.2.r1/../build/optee/bl2/stm32mp1_clk.o
 .bss.mssckselr
                0x0000000000000000        0x4 /home/charles/linux/code/tfa/mp157_alientek/tf-a-stm32mp-2.2.r1-r0/tf-a-stm32mp-2.2.r1/../build/optee/bl2/stm32mp1_clk.o
 .bss.pll3cr    0x0000000000000000        0x4 /home/charles/linux/code/tfa/mp157_alientek/tf-a-stm32mp-2.2.r1-r0/tf-a-stm32mp-2.2.r1/../build/optee/bl2/stm32mp1_clk.o
 .bss.pll4cr    0x0000000000000000        0x4 /home/charles/linux/code/tfa/mp157_alientek/tf-a-stm32mp-2.2.r1-r0/tf-a-stm32mp-2.2.r1/../build/optee/bl2/stm32mp1_clk.o
 .data.backup_clock_cfg
                0x0000000000000000       0x38 /home/charles/linux/code/tfa/mp157_alientek/tf-a-stm32mp-2.2.r1-r0/tf-a-stm32mp-2.2.r1/../build/optee/bl2/stm32mp1_clk.o
 .data.backup_clock_sc_cfg
                0x0000000000000000       0x58 /home/charles/linux/code/tfa/mp157_alientek/tf-a-stm32mp-2.2.r1-r0/tf-a-stm32mp-2.2.r1/../build/optee/bl2/stm32mp1_clk.o
 .data.backup_mux0_cfg
                0x0000000000000000       0x88 /home/charles/linux/code/tfa/mp157_alientek/tf-a-stm32mp-2.2.r1-r0/tf-a-stm32mp-2.2.r1/../build/optee/bl2/stm32mp1_clk.o
 .data.backup_mux4_cfg
                0x0000000000000000        0x4 /home/charles/linux/code/tfa/mp157_alientek/tf-a-stm32mp-2.2.r1-r0/tf-a-stm32mp-2.2.r1/../build/optee/bl2/stm32mp1_clk.o
 .text          0x0000000000000000        0x0 /home/charles/linux/code/tfa/mp157_alientek/tf-a-stm32mp-2.2.r1-r0/tf-a-stm32mp-2.2.r1/../build/optee/bl2/stm32mp1_ddr_helpers.o
 .data          0x0000000000000000        0x0 /home/charles/linux/code/tfa/mp157_alientek/tf-a-stm32mp-2.2.r1-r0/tf-a-stm32mp-2.2.r1/../build/optee/bl2/stm32mp1_ddr_helpers.o
 .bss           0x0000000000000000        0x0 /home/charles/linux/code/tfa/mp157_alientek/tf-a-stm32mp-2.2.r1-r0/tf-a-stm32mp-2.2.r1/../build/optee/bl2/stm32mp1_ddr_helpers.o
 .text.do_sw_handshake
                0x0000000000000000       0x14 /home/charles/linux/code/tfa/mp157_alientek/tf-a-stm32mp-2.2.r1-r0/tf-a-stm32mp-2.2.r1/../build/optee/bl2/stm32mp1_ddr_helpers.o
 .text.do_sw_ack
                0x0000000000000000       0x5c /home/charles/linux/code/tfa/mp157_alientek/tf-a-stm32mp-2.2.r1-r0/tf-a-stm32mp-2.2.r1/../build/optee/bl2/stm32mp1_ddr_helpers.o
 .text.ddr_sw_self_refresh_exit
                0x0000000000000000      0x1f4 /home/charles/linux/code/tfa/mp157_alientek/tf-a-stm32mp-2.2.r1-r0/tf-a-stm32mp-2.2.r1/../build/optee/bl2/stm32mp1_ddr_helpers.o
 .text.ddr_standby_sr_entry
                0x0000000000000000      0x238 /home/charles/linux/code/tfa/mp157_alientek/tf-a-stm32mp-2.2.r1-r0/tf-a-stm32mp-2.2.r1/../build/optee/bl2/stm32mp1_ddr_helpers.o
 .text.ddr_save_sr_mode
                0x0000000000000000       0x10 /home/charles/linux/code/tfa/mp157_alientek/tf-a-stm32mp-2.2.r1-r0/tf-a-stm32mp-2.2.r1/../build/optee/bl2/stm32mp1_ddr_helpers.o
 .text.ddr_restore_sr_mode
                0x0000000000000000        0xc /home/charles/linux/code/tfa/mp157_alientek/tf-a-stm32mp-2.2.r1-r0/tf-a-stm32mp-2.2.r1/../build/optee/bl2/stm32mp1_ddr_helpers.o
 .text.ddr_is_nonsecured_area
                0x0000000000000000       0x4a /home/charles/linux/code/tfa/mp157_alientek/tf-a-stm32mp-2.2.r1-r0/tf-a-stm32mp-2.2.r1/../build/optee/bl2/stm32mp1_ddr_helpers.o
 .bss.saved_ddr_sr_mode
                0x0000000000000000        0x4 /home/charles/linux/code/tfa/mp157_alientek/tf-a-stm32mp-2.2.r1-r0/tf-a-stm32mp-2.2.r1/../build/optee/bl2/stm32mp1_ddr_helpers.o
 .text          0x0000000000000000        0x0 /home/charles/linux/code/tfa/mp157_alientek/tf-a-stm32mp-2.2.r1-r0/tf-a-stm32mp-2.2.r1/../build/optee/bl2/stm32_gpio.o
 .data          0x0000000000000000        0x0 /home/charles/linux/code/tfa/mp157_alientek/tf-a-stm32mp-2.2.r1-r0/tf-a-stm32mp-2.2.r1/../build/optee/bl2/stm32_gpio.o
 .bss           0x0000000000000000        0x0 /home/charles/linux/code/tfa/mp157_alientek/tf-a-stm32mp-2.2.r1-r0/tf-a-stm32mp-2.2.r1/../build/optee/bl2/stm32_gpio.o
 .text.set_gpio_secure_cfg
                0x0000000000000000       0x4c /home/charles/linux/code/tfa/mp157_alientek/tf-a-stm32mp-2.2.r1-r0/tf-a-stm32mp-2.2.r1/../build/optee/bl2/stm32_gpio.o
 .text          0x0000000000000000        0x0 /home/charles/linux/code/tfa/mp157_alientek/tf-a-stm32mp-2.2.r1-r0/tf-a-stm32mp-2.2.r1/../build/optee/bl2/stm32_i2c.o
 .data          0x0000000000000000        0x0 /home/charles/linux/code/tfa/mp157_alientek/tf-a-stm32mp-2.2.r1-r0/tf-a-stm32mp-2.2.r1/../build/optee/bl2/stm32_i2c.o
 .bss           0x0000000000000000        0x0 /home/charles/linux/code/tfa/mp157_alientek/tf-a-stm32mp-2.2.r1-r0/tf-a-stm32mp-2.2.r1/../build/optee/bl2/stm32_i2c.o
 .text.stm32_i2c_master_transmit
                0x0000000000000000       0x18 /home/charles/linux/code/tfa/mp157_alientek/tf-a-stm32mp-2.2.r1-r0/tf-a-stm32mp-2.2.r1/../build/optee/bl2/stm32_i2c.o
 .text.stm32_i2c_master_receive
                0x0000000000000000       0x14 /home/charles/linux/code/tfa/mp157_alientek/tf-a-stm32mp-2.2.r1-r0/tf-a-stm32mp-2.2.r1/../build/optee/bl2/stm32_i2c.o
 .text          0x0000000000000000        0x0 /home/charles/linux/code/tfa/mp157_alientek/tf-a-stm32mp-2.2.r1-r0/tf-a-stm32mp-2.2.r1/../build/optee/bl2/stm32_iwdg.o
 .data          0x0000000000000000        0x0 /home/charles/linux/code/tfa/mp157_alientek/tf-a-stm32mp-2.2.r1-r0/tf-a-stm32mp-2.2.r1/../build/optee/bl2/stm32_iwdg.o
 .bss           0x0000000000000000        0x0 /home/charles/linux/code/tfa/mp157_alientek/tf-a-stm32mp-2.2.r1-r0/tf-a-stm32mp-2.2.r1/../build/optee/bl2/stm32_iwdg.o
 .text          0x0000000000000000        0x0 /home/charles/linux/code/tfa/mp157_alientek/tf-a-stm32mp-2.2.r1-r0/tf-a-stm32mp-2.2.r1/../build/optee/bl2/stm32mp_pmic.o
 .data          0x0000000000000000        0x0 /home/charles/linux/code/tfa/mp157_alientek/tf-a-stm32mp-2.2.r1-r0/tf-a-stm32mp-2.2.r1/../build/optee/bl2/stm32mp_pmic.o
 .bss           0x0000000000000000        0x0 /home/charles/linux/code/tfa/mp157_alientek/tf-a-stm32mp-2.2.r1-r0/tf-a-stm32mp-2.2.r1/../build/optee/bl2/stm32mp_pmic.o
 .text.pmic_set_lp_config
                0x0000000000000000        0xa /home/charles/linux/code/tfa/mp157_alientek/tf-a-stm32mp-2.2.r1-r0/tf-a-stm32mp-2.2.r1/../build/optee/bl2/stm32mp_pmic.o
 .text.pmic_set_regulator_min_voltage
                0x0000000000000000       0x2e /home/charles/linux/code/tfa/mp157_alientek/tf-a-stm32mp-2.2.r1-r0/tf-a-stm32mp-2.2.r1/../build/optee/bl2/stm32mp_pmic.o
 .text          0x0000000000000000        0x0 /home/charles/linux/code/tfa/mp157_alientek/tf-a-stm32mp-2.2.r1-r0/tf-a-stm32mp-2.2.r1/../build/optee/bl2/stpmic1.o
 .data          0x0000000000000000        0x0 /home/charles/linux/code/tfa/mp157_alientek/tf-a-stm32mp-2.2.r1-r0/tf-a-stm32mp-2.2.r1/../build/optee/bl2/stpmic1.o
 .bss           0x0000000000000000        0x0 /home/charles/linux/code/tfa/mp157_alientek/tf-a-stm32mp-2.2.r1-r0/tf-a-stm32mp-2.2.r1/../build/optee/bl2/stpmic1.o
 .text.stpmic1_lp_copy_reg
                0x0000000000000000       0x26 /home/charles/linux/code/tfa/mp157_alientek/tf-a-stm32mp-2.2.r1-r0/tf-a-stm32mp-2.2.r1/../build/optee/bl2/stpmic1.o
 .text.stpmic1_powerctrl_on
                0x0000000000000000        0xa /home/charles/linux/code/tfa/mp157_alientek/tf-a-stm32mp-2.2.r1-r0/tf-a-stm32mp-2.2.r1/../build/optee/bl2/stpmic1.o
 .text.stpmic1_switch_off
                0x0000000000000000        0xa /home/charles/linux/code/tfa/mp157_alientek/tf-a-stm32mp-2.2.r1-r0/tf-a-stm32mp-2.2.r1/../build/optee/bl2/stpmic1.o
 .text.stpmic1_lp_reg_on_off
                0x0000000000000000       0x16 /home/charles/linux/code/tfa/mp157_alientek/tf-a-stm32mp-2.2.r1-r0/tf-a-stm32mp-2.2.r1/../build/optee/bl2/stpmic1.o
 .text.stpmic1_lp_set_mode
                0x0000000000000000       0x1a /home/charles/linux/code/tfa/mp157_alientek/tf-a-stm32mp-2.2.r1-r0/tf-a-stm32mp-2.2.r1/../build/optee/bl2/stpmic1.o
 .text.stpmic1_lp_set_voltage
                0x0000000000000000       0x5c /home/charles/linux/code/tfa/mp157_alientek/tf-a-stm32mp-2.2.r1-r0/tf-a-stm32mp-2.2.r1/../build/optee/bl2/stpmic1.o
 .text          0x0000000000000000        0x0 /home/charles/linux/code/tfa/mp157_alientek/tf-a-stm32mp-2.2.r1-r0/tf-a-stm32mp-2.2.r1/../build/optee/bl2/stm32mp_dummy_regulator.o
 .data          0x0000000000000000        0x0 /home/charles/linux/code/tfa/mp157_alientek/tf-a-stm32mp-2.2.r1-r0/tf-a-stm32mp-2.2.r1/../build/optee/bl2/stm32mp_dummy_regulator.o
 .bss           0x0000000000000000        0x0 /home/charles/linux/code/tfa/mp157_alientek/tf-a-stm32mp-2.2.r1-r0/tf-a-stm32mp-2.2.r1/../build/optee/bl2/stm32mp_dummy_regulator.o
 .text          0x0000000000000000        0x0 /home/charles/linux/code/tfa/mp157_alientek/tf-a-stm32mp-2.2.r1-r0/tf-a-stm32mp-2.2.r1/../build/optee/bl2/stm32mp_regulator.o
 .data          0x0000000000000000        0x0 /home/charles/linux/code/tfa/mp157_alientek/tf-a-stm32mp-2.2.r1-r0/tf-a-stm32mp-2.2.r1/../build/optee/bl2/stm32mp_regulator.o
 .bss           0x0000000000000000        0x0 /home/charles/linux/code/tfa/mp157_alientek/tf-a-stm32mp-2.2.r1-r0/tf-a-stm32mp-2.2.r1/../build/optee/bl2/stm32mp_regulator.o
 .text.plat_bind_regulator
                0x0000000000000000        0x6 /home/charles/linux/code/tfa/mp157_alientek/tf-a-stm32mp-2.2.r1-r0/tf-a-stm32mp-2.2.r1/../build/optee/bl2/stm32mp_regulator.o
 .text          0x0000000000000000        0x0 /home/charles/linux/code/tfa/mp157_alientek/tf-a-stm32mp-2.2.r1-r0/tf-a-stm32mp-2.2.r1/../build/optee/bl2/stm32mp1_reset.o
 .data          0x0000000000000000        0x0 /home/charles/linux/code/tfa/mp157_alientek/tf-a-stm32mp-2.2.r1-r0/tf-a-stm32mp-2.2.r1/../build/optee/bl2/stm32mp1_reset.o
 .bss           0x0000000000000000        0x0 /home/charles/linux/code/tfa/mp157_alientek/tf-a-stm32mp-2.2.r1-r0/tf-a-stm32mp-2.2.r1/../build/optee/bl2/stm32mp1_reset.o
 .text          0x0000000000000000        0x0 /home/charles/linux/code/tfa/mp157_alientek/tf-a-stm32mp-2.2.r1-r0/tf-a-stm32mp-2.2.r1/../build/optee/bl2/stm32mp_dt.o
 .data          0x0000000000000000        0x0 /home/charles/linux/code/tfa/mp157_alientek/tf-a-stm32mp-2.2.r1-r0/tf-a-stm32mp-2.2.r1/../build/optee/bl2/stm32mp_dt.o
 .bss           0x0000000000000000        0x0 /home/charles/linux/code/tfa/mp157_alientek/tf-a-stm32mp-2.2.r1-r0/tf-a-stm32mp-2.2.r1/../build/optee/bl2/stm32mp_dt.o
 .rodata.fdt_get_interrupt.str1.1
                0x0000000000000000       0x31 /home/charles/linux/code/tfa/mp157_alientek/tf-a-stm32mp-2.2.r1-r0/tf-a-stm32mp-2.2.r1/../build/optee/bl2/stm32mp_dt.o
 .text.fdt_get_interrupt
                0x0000000000000000       0x5c /home/charles/linux/code/tfa/mp157_alientek/tf-a-stm32mp-2.2.r1-r0/tf-a-stm32mp-2.2.r1/../build/optee/bl2/stm32mp_dt.o
 .text.dt_get_all_opp_freqvolt
                0x0000000000000000       0x94 /home/charles/linux/code/tfa/mp157_alientek/tf-a-stm32mp-2.2.r1-r0/tf-a-stm32mp-2.2.r1/../build/optee/bl2/stm32mp_dt.o
 .rodata.fdt_get_gpio_bank_pinctrl_node.str1.1
                0x0000000000000000       0x2a /home/charles/linux/code/tfa/mp157_alientek/tf-a-stm32mp-2.2.r1-r0/tf-a-stm32mp-2.2.r1/../build/optee/bl2/stm32mp_dt.o
 .text.fdt_get_gpio_bank_pinctrl_node
                0x0000000000000000       0x30 /home/charles/linux/code/tfa/mp157_alientek/tf-a-stm32mp-2.2.r1-r0/tf-a-stm32mp-2.2.r1/../build/optee/bl2/stm32mp_dt.o
 .rodata.fdt_get_gpioz_nbpins_from_dt.str1.1
                0x0000000000000000       0x17 /home/charles/linux/code/tfa/mp157_alientek/tf-a-stm32mp-2.2.r1-r0/tf-a-stm32mp-2.2.r1/../build/optee/bl2/stm32mp_dt.o
 .text.fdt_get_gpioz_nbpins_from_dt
                0x0000000000000000       0x9c /home/charles/linux/code/tfa/mp157_alientek/tf-a-stm32mp-2.2.r1-r0/tf-a-stm32mp-2.2.r1/../build/optee/bl2/stm32mp_dt.o
 .text          0x0000000000000000        0x0 /home/charles/linux/code/tfa/mp157_alientek/tf-a-stm32mp-2.2.r1-r0/tf-a-stm32mp-2.2.r1/../build/optee/bl2/stm32mp_shres_helpers.o
 .data          0x0000000000000000        0x0 /home/charles/linux/code/tfa/mp157_alientek/tf-a-stm32mp-2.2.r1-r0/tf-a-stm32mp-2.2.r1/../build/optee/bl2/stm32mp_shres_helpers.o
 .bss           0x0000000000000000        0x0 /home/charles/linux/code/tfa/mp157_alientek/tf-a-stm32mp-2.2.r1-r0/tf-a-stm32mp-2.2.r1/../build/optee/bl2/stm32mp_shres_helpers.o
 .text.stm32mp_mmio_clrsetbits_32_shregs
                0x0000000000000000       0x1e /home/charles/linux/code/tfa/mp157_alientek/tf-a-stm32mp-2.2.r1-r0/tf-a-stm32mp-2.2.r1/../build/optee/bl2/stm32mp_shres_helpers.o
 .text          0x0000000000000000        0x0 /home/charles/linux/code/tfa/mp157_alientek/tf-a-stm32mp-2.2.r1-r0/tf-a-stm32mp-2.2.r1/../build/optee/bl2/stm32mp1_context.o
 .data          0x0000000000000000        0x0 /home/charles/linux/code/tfa/mp157_alientek/tf-a-stm32mp-2.2.r1-r0/tf-a-stm32mp-2.2.r1/../build/optee/bl2/stm32mp1_context.o
 .bss           0x0000000000000000        0x0 /home/charles/linux/code/tfa/mp157_alientek/tf-a-stm32mp-2.2.r1-r0/tf-a-stm32mp-2.2.r1/../build/optee/bl2/stm32mp1_context.o
 .text.stm32_are_pll1_settings_valid_in_context
                0x0000000000000000       0x2a /home/charles/linux/code/tfa/mp157_alientek/tf-a-stm32mp-2.2.r1-r0/tf-a-stm32mp-2.2.r1/../build/optee/bl2/stm32mp1_context.o
 .text.stm32_get_boot_interface
                0x0000000000000000       0x2c /home/charles/linux/code/tfa/mp157_alientek/tf-a-stm32mp-2.2.r1-r0/tf-a-stm32mp-2.2.r1/../build/optee/bl2/stm32mp1_context.o
 .text          0x0000000000000000        0x0 /home/charles/linux/code/tfa/mp157_alientek/tf-a-stm32mp-2.2.r1-r0/tf-a-stm32mp-2.2.r1/../build/optee/bl2/stm32mp1_dbgmcu.o
 .data          0x0000000000000000        0x0 /home/charles/linux/code/tfa/mp157_alientek/tf-a-stm32mp-2.2.r1-r0/tf-a-stm32mp-2.2.r1/../build/optee/bl2/stm32mp1_dbgmcu.o
 .bss           0x0000000000000000        0x0 /home/charles/linux/code/tfa/mp157_alientek/tf-a-stm32mp-2.2.r1-r0/tf-a-stm32mp-2.2.r1/../build/optee/bl2/stm32mp1_dbgmcu.o
 .text          0x0000000000000000        0x0 /home/charles/linux/code/tfa/mp157_alientek/tf-a-stm32mp-2.2.r1-r0/tf-a-stm32mp-2.2.r1/../build/optee/bl2/stm32mp1_security.o
 .data          0x0000000000000000        0x0 /home/charles/linux/code/tfa/mp157_alientek/tf-a-stm32mp-2.2.r1-r0/tf-a-stm32mp-2.2.r1/../build/optee/bl2/stm32mp1_security.o
 .bss           0x0000000000000000        0x0 /home/charles/linux/code/tfa/mp157_alientek/tf-a-stm32mp-2.2.r1-r0/tf-a-stm32mp-2.2.r1/../build/optee/bl2/stm32mp1_security.o
 .text          0x0000000000000000        0x0 /home/charles/linux/code/tfa/mp157_alientek/tf-a-stm32mp-2.2.r1-r0/tf-a-stm32mp-2.2.r1/../build/optee/bl2/stm32mp1_syscfg.o
 .data          0x0000000000000000        0x0 /home/charles/linux/code/tfa/mp157_alientek/tf-a-stm32mp-2.2.r1-r0/tf-a-stm32mp-2.2.r1/../build/optee/bl2/stm32mp1_syscfg.o
 .bss           0x0000000000000000        0x0 /home/charles/linux/code/tfa/mp157_alientek/tf-a-stm32mp-2.2.r1-r0/tf-a-stm32mp-2.2.r1/../build/optee/bl2/stm32mp1_syscfg.o
 .text.stm32mp1_syscfg_disable_io_compensation
                0x0000000000000000       0x34 /home/charles/linux/code/tfa/mp157_alientek/tf-a-stm32mp-2.2.r1-r0/tf-a-stm32mp-2.2.r1/../build/optee/bl2/stm32mp1_syscfg.o
 .text          0x0000000000000000        0x0 /home/charles/linux/code/tfa/mp157_alientek/tf-a-stm32mp-2.2.r1-r0/tf-a-stm32mp-2.2.r1/../build/optee/bl2/spinlock.o
 .data          0x0000000000000000        0x0 /home/charles/linux/code/tfa/mp157_alientek/tf-a-stm32mp-2.2.r1-r0/tf-a-stm32mp-2.2.r1/../build/optee/bl2/spinlock.o
 .bss           0x0000000000000000        0x0 /home/charles/linux/code/tfa/mp157_alientek/tf-a-stm32mp-2.2.r1-r0/tf-a-stm32mp-2.2.r1/../build/optee/bl2/spinlock.o
 .text          0x0000000000000000        0x0 /home/charles/linux/code/tfa/mp157_alientek/tf-a-stm32mp-2.2.r1-r0/tf-a-stm32mp-2.2.r1/../build/optee/bl2/platform_up_stack.o
 .data          0x0000000000000000        0x0 /home/charles/linux/code/tfa/mp157_alientek/tf-a-stm32mp-2.2.r1-r0/tf-a-stm32mp-2.2.r1/../build/optee/bl2/platform_up_stack.o
 .bss           0x0000000000000000        0x0 /home/charles/linux/code/tfa/mp157_alientek/tf-a-stm32mp-2.2.r1-r0/tf-a-stm32mp-2.2.r1/../build/optee/bl2/platform_up_stack.o
 .text.asm.plat_get_my_stack
                0x0000000000000000        0xc /home/charles/linux/code/tfa/mp157_alientek/tf-a-stm32mp-2.2.r1-r0/tf-a-stm32mp-2.2.r1/../build/optee/bl2/platform_up_stack.o
 .text          0x0000000000000000        0x0 /home/charles/linux/code/tfa/mp157_alientek/tf-a-stm32mp-2.2.r1-r0/tf-a-stm32mp-2.2.r1/../build/optee/bl2/bl2_el3_entrypoint.o
 .data          0x0000000000000000        0x0 /home/charles/linux/code/tfa/mp157_alientek/tf-a-stm32mp-2.2.r1-r0/tf-a-stm32mp-2.2.r1/../build/optee/bl2/bl2_el3_entrypoint.o
 .bss           0x0000000000000000        0x0 /home/charles/linux/code/tfa/mp157_alientek/tf-a-stm32mp-2.2.r1-r0/tf-a-stm32mp-2.2.r1/../build/optee/bl2/bl2_el3_entrypoint.o
 .text          0x0000000000000000        0x0 /home/charles/linux/code/tfa/mp157_alientek/tf-a-stm32mp-2.2.r1-r0/tf-a-stm32mp-2.2.r1/../build/optee/bl2/bl2_el3_exceptions.o
 .data          0x0000000000000000        0x0 /home/charles/linux/code/tfa/mp157_alientek/tf-a-stm32mp-2.2.r1-r0/tf-a-stm32mp-2.2.r1/../build/optee/bl2/bl2_el3_exceptions.o
 .bss           0x0000000000000000        0x0 /home/charles/linux/code/tfa/mp157_alientek/tf-a-stm32mp-2.2.r1-r0/tf-a-stm32mp-2.2.r1/../build/optee/bl2/bl2_el3_exceptions.o
 .text          0x0000000000000000        0x0 /home/charles/linux/code/tfa/mp157_alientek/tf-a-stm32mp-2.2.r1-r0/tf-a-stm32mp-2.2.r1/../build/optee/bl2/cpu_helpers.o
 .data          0x0000000000000000        0x0 /home/charles/linux/code/tfa/mp157_alientek/tf-a-stm32mp-2.2.r1-r0/tf-a-stm32mp-2.2.r1/../build/optee/bl2/cpu_helpers.o
 .bss           0x0000000000000000        0x0 /home/charles/linux/code/tfa/mp157_alientek/tf-a-stm32mp-2.2.r1-r0/tf-a-stm32mp-2.2.r1/../build/optee/bl2/cpu_helpers.o
 .text.asm.cpu_get_rev_var
                0x0000000000000000       0x10 /home/charles/linux/code/tfa/mp157_alientek/tf-a-stm32mp-2.2.r1-r0/tf-a-stm32mp-2.2.r1/../build/optee/bl2/cpu_helpers.o
 .text.asm.cpu_rev_var_ls
                0x0000000000000000       0x10 /home/charles/linux/code/tfa/mp157_alientek/tf-a-stm32mp-2.2.r1-r0/tf-a-stm32mp-2.2.r1/../build/optee/bl2/cpu_helpers.o
 .text.asm.cpu_rev_var_hs
                0x0000000000000000       0x10 /home/charles/linux/code/tfa/mp157_alientek/tf-a-stm32mp-2.2.r1-r0/tf-a-stm32mp-2.2.r1/../build/optee/bl2/cpu_helpers.o
 .text          0x0000000000000000        0x0 /home/charles/linux/code/tfa/mp157_alientek/tf-a-stm32mp-2.2.r1-r0/tf-a-stm32mp-2.2.r1/../build/optee/bl2/debug.o
 .data          0x0000000000000000        0x0 /home/charles/linux/code/tfa/mp157_alientek/tf-a-stm32mp-2.2.r1-r0/tf-a-stm32mp-2.2.r1/../build/optee/bl2/debug.o
 .bss           0x0000000000000000        0x0 /home/charles/linux/code/tfa/mp157_alientek/tf-a-stm32mp-2.2.r1-r0/tf-a-stm32mp-2.2.r1/../build/optee/bl2/debug.o
 .text          0x0000000000000000        0x0 /home/charles/linux/code/tfa/mp157_alientek/tf-a-stm32mp-2.2.r1-r0/tf-a-stm32mp-2.2.r1/../build/optee/bl2/cache_helpers.o
 .data          0x0000000000000000        0x0 /home/charles/linux/code/tfa/mp157_alientek/tf-a-stm32mp-2.2.r1-r0/tf-a-stm32mp-2.2.r1/../build/optee/bl2/cache_helpers.o
 .bss           0x0000000000000000        0x0 /home/charles/linux/code/tfa/mp157_alientek/tf-a-stm32mp-2.2.r1-r0/tf-a-stm32mp-2.2.r1/../build/optee/bl2/cache_helpers.o
 .text.asm.do_dcsw_op
                0x0000000000000000       0x9c /home/charles/linux/code/tfa/mp157_alientek/tf-a-stm32mp-2.2.r1-r0/tf-a-stm32mp-2.2.r1/../build/optee/bl2/cache_helpers.o
 .text.asm.dcsw_op_louis
                0x0000000000000000       0x14 /home/charles/linux/code/tfa/mp157_alientek/tf-a-stm32mp-2.2.r1-r0/tf-a-stm32mp-2.2.r1/../build/optee/bl2/cache_helpers.o
 .text.asm.dcsw_op_all
                0x0000000000000000       0x14 /home/charles/linux/code/tfa/mp157_alientek/tf-a-stm32mp-2.2.r1-r0/tf-a-stm32mp-2.2.r1/../build/optee/bl2/cache_helpers.o
 .text.asm.dcsw_op_level1
                0x0000000000000000       0x10 /home/charles/linux/code/tfa/mp157_alientek/tf-a-stm32mp-2.2.r1-r0/tf-a-stm32mp-2.2.r1/../build/optee/bl2/cache_helpers.o
 .text.asm.dcsw_op_level2
                0x0000000000000000       0x10 /home/charles/linux/code/tfa/mp157_alientek/tf-a-stm32mp-2.2.r1-r0/tf-a-stm32mp-2.2.r1/../build/optee/bl2/cache_helpers.o
 .text.asm.dcsw_op_level3
                0x0000000000000000       0x10 /home/charles/linux/code/tfa/mp157_alientek/tf-a-stm32mp-2.2.r1-r0/tf-a-stm32mp-2.2.r1/../build/optee/bl2/cache_helpers.o
 .text          0x0000000000000000        0x0 /home/charles/linux/code/tfa/mp157_alientek/tf-a-stm32mp-2.2.r1-r0/tf-a-stm32mp-2.2.r1/../build/optee/bl2/misc_helpers.o
 .data          0x0000000000000000        0x0 /home/charles/linux/code/tfa/mp157_alientek/tf-a-stm32mp-2.2.r1-r0/tf-a-stm32mp-2.2.r1/../build/optee/bl2/misc_helpers.o
 .bss           0x0000000000000000        0x0 /home/charles/linux/code/tfa/mp157_alientek/tf-a-stm32mp-2.2.r1-r0/tf-a-stm32mp-2.2.r1/../build/optee/bl2/misc_helpers.o
 .text.asm.smc  0x0000000000000000        0x8 /home/charles/linux/code/tfa/mp157_alientek/tf-a-stm32mp-2.2.r1-r0/tf-a-stm32mp-2.2.r1/../build/optee/bl2/misc_helpers.o
 .text.asm.memcpy4
                0x0000000000000000       0x50 /home/charles/linux/code/tfa/mp157_alientek/tf-a-stm32mp-2.2.r1-r0/tf-a-stm32mp-2.2.r1/../build/optee/bl2/misc_helpers.o
 .rodata.str1.1
                0x0000000000000000       0x1b /home/charles/linux/code/tfa/mp157_alientek/tf-a-stm32mp-2.2.r1-r0/tf-a-stm32mp-2.2.r1/../build/optee/bl2/misc_helpers.o
 .text          0x0000000000000000        0x0 /home/charles/linux/code/tfa/mp157_alientek/tf-a-stm32mp-2.2.r1-r0/tf-a-stm32mp-2.2.r1/../build/optee/bl2/platform_helpers.o
 .data          0x0000000000000000        0x0 /home/charles/linux/code/tfa/mp157_alientek/tf-a-stm32mp-2.2.r1-r0/tf-a-stm32mp-2.2.r1/../build/optee/bl2/platform_helpers.o
 .bss           0x0000000000000000        0x0 /home/charles/linux/code/tfa/mp157_alientek/tf-a-stm32mp-2.2.r1-r0/tf-a-stm32mp-2.2.r1/../build/optee/bl2/platform_helpers.o
 .text.asm.plat_report_exception
                0x0000000000000000        0x4 /home/charles/linux/code/tfa/mp157_alientek/tf-a-stm32mp-2.2.r1-r0/tf-a-stm32mp-2.2.r1/../build/optee/bl2/platform_helpers.o
 .text.asm.plat_report_undef_inst
                0x0000000000000000        0x4 /home/charles/linux/code/tfa/mp157_alientek/tf-a-stm32mp-2.2.r1-r0/tf-a-stm32mp-2.2.r1/../build/optee/bl2/platform_helpers.o
 .text.asm.plat_report_prefetch_abort
                0x0000000000000000        0x4 /home/charles/linux/code/tfa/mp157_alientek/tf-a-stm32mp-2.2.r1-r0/tf-a-stm32mp-2.2.r1/../build/optee/bl2/platform_helpers.o
 .text.asm.plat_report_data_abort
                0x0000000000000000        0x4 /home/charles/linux/code/tfa/mp157_alientek/tf-a-stm32mp-2.2.r1-r0/tf-a-stm32mp-2.2.r1/../build/optee/bl2/platform_helpers.o
 .text.asm.plat_reset_handler
                0x0000000000000000        0x4 /home/charles/linux/code/tfa/mp157_alientek/tf-a-stm32mp-2.2.r1-r0/tf-a-stm32mp-2.2.r1/../build/optee/bl2/platform_helpers.o
 .text.asm.plat_disable_acp
                0x0000000000000000        0x4 /home/charles/linux/code/tfa/mp157_alientek/tf-a-stm32mp-2.2.r1-r0/tf-a-stm32mp-2.2.r1/../build/optee/bl2/platform_helpers.o
 .text.asm.platform_mem_init
                0x0000000000000000        0x4 /home/charles/linux/code/tfa/mp157_alientek/tf-a-stm32mp-2.2.r1-r0/tf-a-stm32mp-2.2.r1/../build/optee/bl2/platform_helpers.o
 .text.asm.bl1_plat_prepare_exit
                0x0000000000000000        0x4 /home/charles/linux/code/tfa/mp157_alientek/tf-a-stm32mp-2.2.r1-r0/tf-a-stm32mp-2.2.r1/../build/optee/bl2/platform_helpers.o
 .text.asm.plat_panic_handler
                0x0000000000000000        0x4 /home/charles/linux/code/tfa/mp157_alientek/tf-a-stm32mp-2.2.r1-r0/tf-a-stm32mp-2.2.r1/../build/optee/bl2/platform_helpers.o
 .debug_line    0x0000000000000000       0xd3 /home/charles/linux/code/tfa/mp157_alientek/tf-a-stm32mp-2.2.r1-r0/tf-a-stm32mp-2.2.r1/../build/optee/bl2/platform_helpers.o
 .debug_info    0x0000000000000000       0x22 /home/charles/linux/code/tfa/mp157_alientek/tf-a-stm32mp-2.2.r1-r0/tf-a-stm32mp-2.2.r1/../build/optee/bl2/platform_helpers.o
 .debug_abbrev  0x0000000000000000       0x12 /home/charles/linux/code/tfa/mp157_alientek/tf-a-stm32mp-2.2.r1-r0/tf-a-stm32mp-2.2.r1/../build/optee/bl2/platform_helpers.o
 .debug_aranges
                0x0000000000000000       0x60 /home/charles/linux/code/tfa/mp157_alientek/tf-a-stm32mp-2.2.r1-r0/tf-a-stm32mp-2.2.r1/../build/optee/bl2/platform_helpers.o
 .debug_str     0x0000000000000000       0x8c /home/charles/linux/code/tfa/mp157_alientek/tf-a-stm32mp-2.2.r1-r0/tf-a-stm32mp-2.2.r1/../build/optee/bl2/platform_helpers.o
 .debug_ranges  0x0000000000000000       0x58 /home/charles/linux/code/tfa/mp157_alientek/tf-a-stm32mp-2.2.r1-r0/tf-a-stm32mp-2.2.r1/../build/optee/bl2/platform_helpers.o
 .debug_frame   0x0000000000000000       0xa0 /home/charles/linux/code/tfa/mp157_alientek/tf-a-stm32mp-2.2.r1-r0/tf-a-stm32mp-2.2.r1/../build/optee/bl2/platform_helpers.o
 .ARM.attributes
                0x0000000000000000       0x27 /home/charles/linux/code/tfa/mp157_alientek/tf-a-stm32mp-2.2.r1-r0/tf-a-stm32mp-2.2.r1/../build/optee/bl2/platform_helpers.o
 .text          0x0000000000000000       0x24 /home/charles/linux/code/tfa/mp157_alientek/tf-a-stm32mp-2.2.r1-r0/tf-a-stm32mp-2.2.r1/../build/optee/bl2/aeabi_ldivmod.o
 .data          0x0000000000000000        0x0 /home/charles/linux/code/tfa/mp157_alientek/tf-a-stm32mp-2.2.r1-r0/tf-a-stm32mp-2.2.r1/../build/optee/bl2/aeabi_ldivmod.o
 .bss           0x0000000000000000        0x0 /home/charles/linux/code/tfa/mp157_alientek/tf-a-stm32mp-2.2.r1-r0/tf-a-stm32mp-2.2.r1/../build/optee/bl2/aeabi_ldivmod.o
 .debug_line    0x0000000000000000       0x66 /home/charles/linux/code/tfa/mp157_alientek/tf-a-stm32mp-2.2.r1-r0/tf-a-stm32mp-2.2.r1/../build/optee/bl2/aeabi_ldivmod.o
 .debug_info    0x0000000000000000       0x26 /home/charles/linux/code/tfa/mp157_alientek/tf-a-stm32mp-2.2.r1-r0/tf-a-stm32mp-2.2.r1/../build/optee/bl2/aeabi_ldivmod.o
 .debug_abbrev  0x0000000000000000       0x14 /home/charles/linux/code/tfa/mp157_alientek/tf-a-stm32mp-2.2.r1-r0/tf-a-stm32mp-2.2.r1/../build/optee/bl2/aeabi_ldivmod.o
 .debug_aranges
                0x0000000000000000       0x20 /home/charles/linux/code/tfa/mp157_alientek/tf-a-stm32mp-2.2.r1-r0/tf-a-stm32mp-2.2.r1/../build/optee/bl2/aeabi_ldivmod.o
 .debug_str     0x0000000000000000       0x92 /home/charles/linux/code/tfa/mp157_alientek/tf-a-stm32mp-2.2.r1-r0/tf-a-stm32mp-2.2.r1/../build/optee/bl2/aeabi_ldivmod.o
 .ARM.attributes
                0x0000000000000000       0x27 /home/charles/linux/code/tfa/mp157_alientek/tf-a-stm32mp-2.2.r1-r0/tf-a-stm32mp-2.2.r1/../build/optee/bl2/aeabi_ldivmod.o
 .data          0x0000000000000000        0x0 /home/charles/linux/code/tfa/mp157_alientek/tf-a-stm32mp-2.2.r1-r0/tf-a-stm32mp-2.2.r1/../build/optee/bl2/aeabi_uldivmod.o
 .bss           0x0000000000000000        0x0 /home/charles/linux/code/tfa/mp157_alientek/tf-a-stm32mp-2.2.r1-r0/tf-a-stm32mp-2.2.r1/../build/optee/bl2/aeabi_uldivmod.o
 .text          0x0000000000000000        0x0 /home/charles/linux/code/tfa/mp157_alientek/tf-a-stm32mp-2.2.r1-r0/tf-a-stm32mp-2.2.r1/../build/optee/bl2/stm32_console.o
 .data          0x0000000000000000        0x0 /home/charles/linux/code/tfa/mp157_alientek/tf-a-stm32mp-2.2.r1-r0/tf-a-stm32mp-2.2.r1/../build/optee/bl2/stm32_console.o
 .bss           0x0000000000000000        0x0 /home/charles/linux/code/tfa/mp157_alientek/tf-a-stm32mp-2.2.r1-r0/tf-a-stm32mp-2.2.r1/../build/optee/bl2/stm32_console.o
 .text.asm.console_stm32_core_getc
                0x0000000000000000        0x8 /home/charles/linux/code/tfa/mp157_alientek/tf-a-stm32mp-2.2.r1-r0/tf-a-stm32mp-2.2.r1/../build/optee/bl2/stm32_console.o
 .text          0x0000000000000000        0x0 /home/charles/linux/code/tfa/mp157_alientek/tf-a-stm32mp-2.2.r1-r0/tf-a-stm32mp-2.2.r1/../build/optee/bl2/enable_mmu.o
 .data          0x0000000000000000        0x0 /home/charles/linux/code/tfa/mp157_alientek/tf-a-stm32mp-2.2.r1-r0/tf-a-stm32mp-2.2.r1/../build/optee/bl2/enable_mmu.o
 .bss           0x0000000000000000        0x0 /home/charles/linux/code/tfa/mp157_alientek/tf-a-stm32mp-2.2.r1-r0/tf-a-stm32mp-2.2.r1/../build/optee/bl2/enable_mmu.o
 .text.asm.enable_mmu_direct_hyp
                0x0000000000000000       0x74 /home/charles/linux/code/tfa/mp157_alientek/tf-a-stm32mp-2.2.r1-r0/tf-a-stm32mp-2.2.r1/../build/optee/bl2/enable_mmu.o
 .text          0x0000000000000000        0x0 /home/charles/linux/code/tfa/mp157_alientek/tf-a-stm32mp-2.2.r1-r0/tf-a-stm32mp-2.2.r1/../build/optee/bl2/cortex_a7.o
 .data          0x0000000000000000        0x0 /home/charles/linux/code/tfa/mp157_alientek/tf-a-stm32mp-2.2.r1-r0/tf-a-stm32mp-2.2.r1/../build/optee/bl2/cortex_a7.o
 .bss           0x0000000000000000        0x0 /home/charles/linux/code/tfa/mp157_alientek/tf-a-stm32mp-2.2.r1-r0/tf-a-stm32mp-2.2.r1/../build/optee/bl2/cortex_a7.o
 .text.asm.cortex_a7_disable_smp
                0x0000000000000000       0x18 /home/charles/linux/code/tfa/mp157_alientek/tf-a-stm32mp-2.2.r1-r0/tf-a-stm32mp-2.2.r1/../build/optee/bl2/cortex_a7.o
 .text.asm.cortex_a7_core_pwr_dwn
                0x0000000000000000       0x30 /home/charles/linux/code/tfa/mp157_alientek/tf-a-stm32mp-2.2.r1-r0/tf-a-stm32mp-2.2.r1/../build/optee/bl2/cortex_a7.o
 .rodata.str1.1
                0x0000000000000000       0x1d /home/charles/linux/code/tfa/mp157_alientek/tf-a-stm32mp-2.2.r1-r0/tf-a-stm32mp-2.2.r1/../build/optee/bl2/cortex_a7.o
 .text.asm.cortex_a7_cluster_pwr_dwn
                0x0000000000000000       0x34 /home/charles/linux/code/tfa/mp157_alientek/tf-a-stm32mp-2.2.r1-r0/tf-a-stm32mp-2.2.r1/../build/optee/bl2/cortex_a7.o
 .text          0x0000000000000000        0x0 /home/charles/linux/code/tfa/mp157_alientek/tf-a-stm32mp-2.2.r1-r0/tf-a-stm32mp-2.2.r1/../build/optee/bl2/stm32mp1_helper.o
 .data          0x0000000000000000        0x0 /home/charles/linux/code/tfa/mp157_alientek/tf-a-stm32mp-2.2.r1-r0/tf-a-stm32mp-2.2.r1/../build/optee/bl2/stm32mp1_helper.o
 .bss           0x0000000000000000        0x0 /home/charles/linux/code/tfa/mp157_alientek/tf-a-stm32mp-2.2.r1-r0/tf-a-stm32mp-2.2.r1/../build/optee/bl2/stm32mp1_helper.o
 .text.asm.plat_stm32mp1_get_core_pos
                0x0000000000000000       0x10 /home/charles/linux/code/tfa/mp157_alientek/tf-a-stm32mp-2.2.r1-r0/tf-a-stm32mp-2.2.r1/../build/optee/bl2/stm32mp1_helper.o
 .text.asm.plat_my_core_pos
                0x0000000000000000        0x8 /home/charles/linux/code/tfa/mp157_alientek/tf-a-stm32mp-2.2.r1-r0/tf-a-stm32mp-2.2.r1/../build/optee/bl2/stm32mp1_helper.o
 .text.asm.wfi_svc_int_enable
                0x0000000000000000       0x44 /home/charles/linux/code/tfa/mp157_alientek/tf-a-stm32mp-2.2.r1-r0/tf-a-stm32mp-2.2.r1/../build/optee/bl2/stm32mp1_helper.o
 .text          0x0000000000000000        0x0 /home/charles/linux/code/tfa/mp157_alientek/tf-a-stm32mp-2.2.r1-r0/tf-a-stm32mp-2.2.r1/../build/optee/lib/libfdt.a(fdt.o)
 .data          0x0000000000000000        0x0 /home/charles/linux/code/tfa/mp157_alientek/tf-a-stm32mp-2.2.r1-r0/tf-a-stm32mp-2.2.r1/../build/optee/lib/libfdt.a(fdt.o)
 .bss           0x0000000000000000        0x0 /home/charles/linux/code/tfa/mp157_alientek/tf-a-stm32mp-2.2.r1-r0/tf-a-stm32mp-2.2.r1/../build/optee/lib/libfdt.a(fdt.o)
 .text.fdt_find_string_
                0x0000000000000000       0x30 /home/charles/linux/code/tfa/mp157_alientek/tf-a-stm32mp-2.2.r1-r0/tf-a-stm32mp-2.2.r1/../build/optee/lib/libfdt.a(fdt.o)
 .text.fdt_move
                0x0000000000000000       0x2e /home/charles/linux/code/tfa/mp157_alientek/tf-a-stm32mp-2.2.r1-r0/tf-a-stm32mp-2.2.r1/../build/optee/lib/libfdt.a(fdt.o)
 .text          0x0000000000000000        0x0 /home/charles/linux/code/tfa/mp157_alientek/tf-a-stm32mp-2.2.r1-r0/tf-a-stm32mp-2.2.r1/../build/optee/lib/libfdt.a(fdt_addresses.o)
 .data          0x0000000000000000        0x0 /home/charles/linux/code/tfa/mp157_alientek/tf-a-stm32mp-2.2.r1-r0/tf-a-stm32mp-2.2.r1/../build/optee/lib/libfdt.a(fdt_addresses.o)
 .bss           0x0000000000000000        0x0 /home/charles/linux/code/tfa/mp157_alientek/tf-a-stm32mp-2.2.r1-r0/tf-a-stm32mp-2.2.r1/../build/optee/lib/libfdt.a(fdt_addresses.o)
 .text          0x0000000000000000        0x0 /home/charles/linux/code/tfa/mp157_alientek/tf-a-stm32mp-2.2.r1-r0/tf-a-stm32mp-2.2.r1/../build/optee/lib/libfdt.a(fdt_ro.o)
 .data          0x0000000000000000        0x0 /home/charles/linux/code/tfa/mp157_alientek/tf-a-stm32mp-2.2.r1-r0/tf-a-stm32mp-2.2.r1/../build/optee/lib/libfdt.a(fdt_ro.o)
 .bss           0x0000000000000000        0x0 /home/charles/linux/code/tfa/mp157_alientek/tf-a-stm32mp-2.2.r1-r0/tf-a-stm32mp-2.2.r1/../build/optee/lib/libfdt.a(fdt_ro.o)
 .text.fdt64_to_cpu
                0x0000000000000000        0x8 /home/charles/linux/code/tfa/mp157_alientek/tf-a-stm32mp-2.2.r1-r0/tf-a-stm32mp-2.2.r1/../build/optee/lib/libfdt.a(fdt_ro.o)
 .text.fdt_get_mem_rsv
                0x0000000000000000       0x3e /home/charles/linux/code/tfa/mp157_alientek/tf-a-stm32mp-2.2.r1-r0/tf-a-stm32mp-2.2.r1/../build/optee/lib/libfdt.a(fdt_ro.o)
 .text.fdt_num_mem_rsv
                0x0000000000000000       0x28 /home/charles/linux/code/tfa/mp157_alientek/tf-a-stm32mp-2.2.r1-r0/tf-a-stm32mp-2.2.r1/../build/optee/lib/libfdt.a(fdt_ro.o)
 .text.fdt_get_property_by_offset
                0x0000000000000000       0x24 /home/charles/linux/code/tfa/mp157_alientek/tf-a-stm32mp-2.2.r1-r0/tf-a-stm32mp-2.2.r1/../build/optee/lib/libfdt.a(fdt_ro.o)
 .text.fdt_get_property_namelen
                0x0000000000000000       0x30 /home/charles/linux/code/tfa/mp157_alientek/tf-a-stm32mp-2.2.r1-r0/tf-a-stm32mp-2.2.r1/../build/optee/lib/libfdt.a(fdt_ro.o)
 .text.fdt_get_property
                0x0000000000000000       0x22 /home/charles/linux/code/tfa/mp157_alientek/tf-a-stm32mp-2.2.r1-r0/tf-a-stm32mp-2.2.r1/../build/optee/lib/libfdt.a(fdt_ro.o)
 .text.fdt_getprop_by_offset
                0x0000000000000000       0x48 /home/charles/linux/code/tfa/mp157_alientek/tf-a-stm32mp-2.2.r1-r0/tf-a-stm32mp-2.2.r1/../build/optee/lib/libfdt.a(fdt_ro.o)
 .text.fdt_get_max_phandle
                0x0000000000000000       0x42 /home/charles/linux/code/tfa/mp157_alientek/tf-a-stm32mp-2.2.r1-r0/tf-a-stm32mp-2.2.r1/../build/optee/lib/libfdt.a(fdt_ro.o)
 .text.fdt_get_alias
                0x0000000000000000       0x1a /home/charles/linux/code/tfa/mp157_alientek/tf-a-stm32mp-2.2.r1-r0/tf-a-stm32mp-2.2.r1/../build/optee/lib/libfdt.a(fdt_ro.o)
 .text.fdt_get_path
                0x0000000000000000       0xc4 /home/charles/linux/code/tfa/mp157_alientek/tf-a-stm32mp-2.2.r1-r0/tf-a-stm32mp-2.2.r1/../build/optee/lib/libfdt.a(fdt_ro.o)
 .text.fdt_node_offset_by_prop_value
                0x0000000000000000       0x58 /home/charles/linux/code/tfa/mp157_alientek/tf-a-stm32mp-2.2.r1-r0/tf-a-stm32mp-2.2.r1/../build/optee/lib/libfdt.a(fdt_ro.o)
 .text.fdt_stringlist_count
                0x0000000000000000       0x38 /home/charles/linux/code/tfa/mp157_alientek/tf-a-stm32mp-2.2.r1-r0/tf-a-stm32mp-2.2.r1/../build/optee/lib/libfdt.a(fdt_ro.o)
 .text.fdt_stringlist_get
                0x0000000000000000       0x60 /home/charles/linux/code/tfa/mp157_alientek/tf-a-stm32mp-2.2.r1-r0/tf-a-stm32mp-2.2.r1/../build/optee/lib/libfdt.a(fdt_ro.o)
 .text          0x0000000000000000        0x0 /home/charles/linux/code/tfa/mp157_alientek/tf-a-stm32mp-2.2.r1-r0/tf-a-stm32mp-2.2.r1/../build/optee/lib/libc.a(assert.o)
 .data          0x0000000000000000        0x0 /home/charles/linux/code/tfa/mp157_alientek/tf-a-stm32mp-2.2.r1-r0/tf-a-stm32mp-2.2.r1/../build/optee/lib/libc.a(assert.o)
 .bss           0x0000000000000000        0x0 /home/charles/linux/code/tfa/mp157_alientek/tf-a-stm32mp-2.2.r1-r0/tf-a-stm32mp-2.2.r1/../build/optee/lib/libc.a(assert.o)
 .text          0x0000000000000000        0x0 /home/charles/linux/code/tfa/mp157_alientek/tf-a-stm32mp-2.2.r1-r0/tf-a-stm32mp-2.2.r1/../build/optee/lib/libc.a(memchr.o)
 .data          0x0000000000000000        0x0 /home/charles/linux/code/tfa/mp157_alientek/tf-a-stm32mp-2.2.r1-r0/tf-a-stm32mp-2.2.r1/../build/optee/lib/libc.a(memchr.o)
 .bss           0x0000000000000000        0x0 /home/charles/linux/code/tfa/mp157_alientek/tf-a-stm32mp-2.2.r1-r0/tf-a-stm32mp-2.2.r1/../build/optee/lib/libc.a(memchr.o)
 .text          0x0000000000000000        0x0 /home/charles/linux/code/tfa/mp157_alientek/tf-a-stm32mp-2.2.r1-r0/tf-a-stm32mp-2.2.r1/../build/optee/lib/libc.a(memcmp.o)
 .data          0x0000000000000000        0x0 /home/charles/linux/code/tfa/mp157_alientek/tf-a-stm32mp-2.2.r1-r0/tf-a-stm32mp-2.2.r1/../build/optee/lib/libc.a(memcmp.o)
 .bss           0x0000000000000000        0x0 /home/charles/linux/code/tfa/mp157_alientek/tf-a-stm32mp-2.2.r1-r0/tf-a-stm32mp-2.2.r1/../build/optee/lib/libc.a(memcmp.o)
 .text          0x0000000000000000        0x0 /home/charles/linux/code/tfa/mp157_alientek/tf-a-stm32mp-2.2.r1-r0/tf-a-stm32mp-2.2.r1/../build/optee/lib/libc.a(memcpy.o)
 .data          0x0000000000000000        0x0 /home/charles/linux/code/tfa/mp157_alientek/tf-a-stm32mp-2.2.r1-r0/tf-a-stm32mp-2.2.r1/../build/optee/lib/libc.a(memcpy.o)
 .bss           0x0000000000000000        0x0 /home/charles/linux/code/tfa/mp157_alientek/tf-a-stm32mp-2.2.r1-r0/tf-a-stm32mp-2.2.r1/../build/optee/lib/libc.a(memcpy.o)
 .text          0x0000000000000000        0x0 /home/charles/linux/code/tfa/mp157_alientek/tf-a-stm32mp-2.2.r1-r0/tf-a-stm32mp-2.2.r1/../build/optee/lib/libc.a(memmove.o)
 .data          0x0000000000000000        0x0 /home/charles/linux/code/tfa/mp157_alientek/tf-a-stm32mp-2.2.r1-r0/tf-a-stm32mp-2.2.r1/../build/optee/lib/libc.a(memmove.o)
 .bss           0x0000000000000000        0x0 /home/charles/linux/code/tfa/mp157_alientek/tf-a-stm32mp-2.2.r1-r0/tf-a-stm32mp-2.2.r1/../build/optee/lib/libc.a(memmove.o)
 .text          0x0000000000000000        0x0 /home/charles/linux/code/tfa/mp157_alientek/tf-a-stm32mp-2.2.r1-r0/tf-a-stm32mp-2.2.r1/../build/optee/lib/libc.a(memset.o)
 .data          0x0000000000000000        0x0 /home/charles/linux/code/tfa/mp157_alientek/tf-a-stm32mp-2.2.r1-r0/tf-a-stm32mp-2.2.r1/../build/optee/lib/libc.a(memset.o)
 .bss           0x0000000000000000        0x0 /home/charles/linux/code/tfa/mp157_alientek/tf-a-stm32mp-2.2.r1-r0/tf-a-stm32mp-2.2.r1/../build/optee/lib/libc.a(memset.o)
 .text          0x0000000000000000        0x0 /home/charles/linux/code/tfa/mp157_alientek/tf-a-stm32mp-2.2.r1-r0/tf-a-stm32mp-2.2.r1/../build/optee/lib/libc.a(printf.o)
 .data          0x0000000000000000        0x0 /home/charles/linux/code/tfa/mp157_alientek/tf-a-stm32mp-2.2.r1-r0/tf-a-stm32mp-2.2.r1/../build/optee/lib/libc.a(printf.o)
 .bss           0x0000000000000000        0x0 /home/charles/linux/code/tfa/mp157_alientek/tf-a-stm32mp-2.2.r1-r0/tf-a-stm32mp-2.2.r1/../build/optee/lib/libc.a(printf.o)
 .text          0x0000000000000000        0x0 /home/charles/linux/code/tfa/mp157_alientek/tf-a-stm32mp-2.2.r1-r0/tf-a-stm32mp-2.2.r1/../build/optee/lib/libc.a(putchar.o)
 .data          0x0000000000000000        0x0 /home/charles/linux/code/tfa/mp157_alientek/tf-a-stm32mp-2.2.r1-r0/tf-a-stm32mp-2.2.r1/../build/optee/lib/libc.a(putchar.o)
 .bss           0x0000000000000000        0x0 /home/charles/linux/code/tfa/mp157_alientek/tf-a-stm32mp-2.2.r1-r0/tf-a-stm32mp-2.2.r1/../build/optee/lib/libc.a(putchar.o)
 .text          0x0000000000000000        0x0 /home/charles/linux/code/tfa/mp157_alientek/tf-a-stm32mp-2.2.r1-r0/tf-a-stm32mp-2.2.r1/../build/optee/lib/libc.a(snprintf.o)
 .data          0x0000000000000000        0x0 /home/charles/linux/code/tfa/mp157_alientek/tf-a-stm32mp-2.2.r1-r0/tf-a-stm32mp-2.2.r1/../build/optee/lib/libc.a(snprintf.o)
 .bss           0x0000000000000000        0x0 /home/charles/linux/code/tfa/mp157_alientek/tf-a-stm32mp-2.2.r1-r0/tf-a-stm32mp-2.2.r1/../build/optee/lib/libc.a(snprintf.o)
 .text          0x0000000000000000        0x0 /home/charles/linux/code/tfa/mp157_alientek/tf-a-stm32mp-2.2.r1-r0/tf-a-stm32mp-2.2.r1/../build/optee/lib/libc.a(strchr.o)
 .data          0x0000000000000000        0x0 /home/charles/linux/code/tfa/mp157_alientek/tf-a-stm32mp-2.2.r1-r0/tf-a-stm32mp-2.2.r1/../build/optee/lib/libc.a(strchr.o)
 .bss           0x0000000000000000        0x0 /home/charles/linux/code/tfa/mp157_alientek/tf-a-stm32mp-2.2.r1-r0/tf-a-stm32mp-2.2.r1/../build/optee/lib/libc.a(strchr.o)
 .text          0x0000000000000000        0x0 /home/charles/linux/code/tfa/mp157_alientek/tf-a-stm32mp-2.2.r1-r0/tf-a-stm32mp-2.2.r1/../build/optee/lib/libc.a(strcmp.o)
 .data          0x0000000000000000        0x0 /home/charles/linux/code/tfa/mp157_alientek/tf-a-stm32mp-2.2.r1-r0/tf-a-stm32mp-2.2.r1/../build/optee/lib/libc.a(strcmp.o)
 .bss           0x0000000000000000        0x0 /home/charles/linux/code/tfa/mp157_alientek/tf-a-stm32mp-2.2.r1-r0/tf-a-stm32mp-2.2.r1/../build/optee/lib/libc.a(strcmp.o)
 .text          0x0000000000000000        0x0 /home/charles/linux/code/tfa/mp157_alientek/tf-a-stm32mp-2.2.r1-r0/tf-a-stm32mp-2.2.r1/../build/optee/lib/libc.a(strlen.o)
 .data          0x0000000000000000        0x0 /home/charles/linux/code/tfa/mp157_alientek/tf-a-stm32mp-2.2.r1-r0/tf-a-stm32mp-2.2.r1/../build/optee/lib/libc.a(strlen.o)
 .bss           0x0000000000000000        0x0 /home/charles/linux/code/tfa/mp157_alientek/tf-a-stm32mp-2.2.r1-r0/tf-a-stm32mp-2.2.r1/../build/optee/lib/libc.a(strlen.o)
 .text          0x0000000000000000        0x0 /home/charles/linux/code/tfa/mp157_alientek/tf-a-stm32mp-2.2.r1-r0/tf-a-stm32mp-2.2.r1/../build/optee/lib/libc.a(strncmp.o)
 .data          0x0000000000000000        0x0 /home/charles/linux/code/tfa/mp157_alientek/tf-a-stm32mp-2.2.r1-r0/tf-a-stm32mp-2.2.r1/../build/optee/lib/libc.a(strncmp.o)
 .bss           0x0000000000000000        0x0 /home/charles/linux/code/tfa/mp157_alientek/tf-a-stm32mp-2.2.r1-r0/tf-a-stm32mp-2.2.r1/../build/optee/lib/libc.a(strncmp.o)
 .text          0x0000000000000000        0x0 /home/charles/linux/code/tfa/mp157_alientek/tf-a-stm32mp-2.2.r1-r0/tf-a-stm32mp-2.2.r1/../build/optee/lib/libc.a(strnlen.o)
 .data          0x0000000000000000        0x0 /home/charles/linux/code/tfa/mp157_alientek/tf-a-stm32mp-2.2.r1-r0/tf-a-stm32mp-2.2.r1/../build/optee/lib/libc.a(strnlen.o)
 .bss           0x0000000000000000        0x0 /home/charles/linux/code/tfa/mp157_alientek/tf-a-stm32mp-2.2.r1-r0/tf-a-stm32mp-2.2.r1/../build/optee/lib/libc.a(strnlen.o)
 .text          0x0000000000000000        0x0 /home/charles/linux/code/tfa/mp157_alientek/tf-a-stm32mp-2.2.r1-r0/tf-a-stm32mp-2.2.r1/../build/optee/lib/libc.a(strrchr.o)
 .data          0x0000000000000000        0x0 /home/charles/linux/code/tfa/mp157_alientek/tf-a-stm32mp-2.2.r1-r0/tf-a-stm32mp-2.2.r1/../build/optee/lib/libc.a(strrchr.o)
 .bss           0x0000000000000000        0x0 /home/charles/linux/code/tfa/mp157_alientek/tf-a-stm32mp-2.2.r1-r0/tf-a-stm32mp-2.2.r1/../build/optee/lib/libc.a(strrchr.o)

Memory Configuration

Name             Origin             Length             Attributes
RAM              0x000000002ffe7000 0x0000000000018000 xrw
*default*        0x0000000000000000 0xffffffffffffffff

Linker script and memory map

                0x000000002ffe7000                . = 0x2ffe7000
                0x0000000000000001                ASSERT ((. == ALIGN (0x1000)), BL2_BASE address is not aligned on a page boundary.)

ro              0x000000002ffe7000    0x12000
                0x000000002ffe7000                __RO_START__ = .
                0x000000002ffe7000                __TEXT_RESIDENT_START__ = .
 *bl2_el3_entrypoint.o(.text*)
 .text.asm.bl2_entrypoint
                0x000000002ffe7000      0x158 /home/charles/linux/code/tfa/mp157_alientek/tf-a-stm32mp-2.2.r1-r0/tf-a-stm32mp-2.2.r1/../build/optee/bl2/bl2_el3_entrypoint.o
                0x000000002ffe7000                bl2_entrypoint
 .text.asm.bl2_run_next_image
                0x000000002ffe7158       0x40 /home/charles/linux/code/tfa/mp157_alientek/tf-a-stm32mp-2.2.r1-r0/tf-a-stm32mp-2.2.r1/../build/optee/bl2/bl2_el3_entrypoint.o
                0x000000002ffe7158                bl2_run_next_image
 *(.text.asm.*)
 .text.asm.spin_lock
                0x000000002ffe7198       0x24 /home/charles/linux/code/tfa/mp157_alientek/tf-a-stm32mp-2.2.r1-r0/tf-a-stm32mp-2.2.r1/../build/optee/bl2/spinlock.o
                0x000000002ffe7198                spin_lock
 .text.asm.spin_unlock
                0x000000002ffe71bc       0x18 /home/charles/linux/code/tfa/mp157_alientek/tf-a-stm32mp-2.2.r1-r0/tf-a-stm32mp-2.2.r1/../build/optee/bl2/spinlock.o
                0x000000002ffe71bc                spin_unlock
 .text.asm.plat_set_my_stack
                0x000000002ffe71d4       0x10 /home/charles/linux/code/tfa/mp157_alientek/tf-a-stm32mp-2.2.r1-r0/tf-a-stm32mp-2.2.r1/../build/optee/bl2/platform_up_stack.o
                0x000000002ffe71d4                plat_set_my_stack
 .text.asm.reset_handler
                0x000000002ffe71e4       0x38 /home/charles/linux/code/tfa/mp157_alientek/tf-a-stm32mp-2.2.r1-r0/tf-a-stm32mp-2.2.r1/../build/optee/bl2/cpu_helpers.o
                0x000000002ffe71e4                reset_handler
 .text.asm.get_cpu_ops_ptr
                0x000000002ffe721c       0x44 /home/charles/linux/code/tfa/mp157_alientek/tf-a-stm32mp-2.2.r1-r0/tf-a-stm32mp-2.2.r1/../build/optee/bl2/cpu_helpers.o
                0x000000002ffe721c                get_cpu_ops_ptr
 .text.asm.do_panic
                0x000000002ffe7260       0x3c /home/charles/linux/code/tfa/mp157_alientek/tf-a-stm32mp-2.2.r1-r0/tf-a-stm32mp-2.2.r1/../build/optee/bl2/debug.o
                0x000000002ffe7260                do_panic
 .text.asm.report_exception
                0x000000002ffe729c       0x14 /home/charles/linux/code/tfa/mp157_alientek/tf-a-stm32mp-2.2.r1-r0/tf-a-stm32mp-2.2.r1/../build/optee/bl2/debug.o
                0x000000002ffe729c                report_exception
 .text.asm.report_undef_inst
                0x000000002ffe72b0       0x10 /home/charles/linux/code/tfa/mp157_alientek/tf-a-stm32mp-2.2.r1-r0/tf-a-stm32mp-2.2.r1/../build/optee/bl2/debug.o
                0x000000002ffe72b0                report_undef_inst
 .text.asm.report_prefetch_abort
                0x000000002ffe72c0       0x10 /home/charles/linux/code/tfa/mp157_alientek/tf-a-stm32mp-2.2.r1-r0/tf-a-stm32mp-2.2.r1/../build/optee/bl2/debug.o
                0x000000002ffe72c0                report_prefetch_abort
 .text.asm.report_data_abort
                0x000000002ffe72d0       0x10 /home/charles/linux/code/tfa/mp157_alientek/tf-a-stm32mp-2.2.r1-r0/tf-a-stm32mp-2.2.r1/../build/optee/bl2/debug.o
                0x000000002ffe72d0                report_data_abort
 .text.asm.asm_assert
                0x000000002ffe72e0       0x7c /home/charles/linux/code/tfa/mp157_alientek/tf-a-stm32mp-2.2.r1-r0/tf-a-stm32mp-2.2.r1/../build/optee/bl2/debug.o
                0x000000002ffe72e0                asm_assert
 .text.asm.asm_print_str
                0x000000002ffe735c       0x1c /home/charles/linux/code/tfa/mp157_alientek/tf-a-stm32mp-2.2.r1-r0/tf-a-stm32mp-2.2.r1/../build/optee/bl2/debug.o
                0x000000002ffe735c                asm_print_str
 .text.asm.asm_print_hex
                0x000000002ffe7378       0x34 /home/charles/linux/code/tfa/mp157_alientek/tf-a-stm32mp-2.2.r1-r0/tf-a-stm32mp-2.2.r1/../build/optee/bl2/debug.o
                0x000000002ffe7378                asm_print_hex
 .text.asm.flush_dcache_range
                0x000000002ffe73ac       0x3c /home/charles/linux/code/tfa/mp157_alientek/tf-a-stm32mp-2.2.r1-r0/tf-a-stm32mp-2.2.r1/../build/optee/bl2/cache_helpers.o
                0x000000002ffe73ac                flush_dcache_range
 .text.asm.clean_dcache_range
                0x000000002ffe73e8       0x3c /home/charles/linux/code/tfa/mp157_alientek/tf-a-stm32mp-2.2.r1-r0/tf-a-stm32mp-2.2.r1/../build/optee/bl2/cache_helpers.o
                0x000000002ffe73e8                clean_dcache_range
 .text.asm.inv_dcache_range
                0x000000002ffe7424       0x3c /home/charles/linux/code/tfa/mp157_alientek/tf-a-stm32mp-2.2.r1-r0/tf-a-stm32mp-2.2.r1/../build/optee/bl2/cache_helpers.o
                0x000000002ffe7424                inv_dcache_range
 .text.asm.zeromem
                0x000000002ffe7460       0x64 /home/charles/linux/code/tfa/mp157_alientek/tf-a-stm32mp-2.2.r1-r0/tf-a-stm32mp-2.2.r1/../build/optee/bl2/misc_helpers.o
                0x000000002ffe7460                zeromem
                0x000000002ffe7460                zero_normalmem
 .text.asm.disable_mmu_secure
                0x000000002ffe74c4       0x1c /home/charles/linux/code/tfa/mp157_alientek/tf-a-stm32mp-2.2.r1-r0/tf-a-stm32mp-2.2.r1/../build/optee/bl2/misc_helpers.o
                0x000000002ffe74c4                disable_mmu_secure
 .text.asm.disable_mmu_icache_secure
                0x000000002ffe74e0        0xc /home/charles/linux/code/tfa/mp157_alientek/tf-a-stm32mp-2.2.r1-r0/tf-a-stm32mp-2.2.r1/../build/optee/bl2/misc_helpers.o
                0x000000002ffe74e0                disable_mmu_icache_secure
 .text.asm.console_stm32_core_init
                0x000000002ffe74ec       0x7c /home/charles/linux/code/tfa/mp157_alientek/tf-a-stm32mp-2.2.r1-r0/tf-a-stm32mp-2.2.r1/../build/optee/bl2/stm32_console.o
                0x000000002ffe74ec                console_stm32_core_init
 .text.asm.console_stm32_register
                0x000000002ffe7568       0x58 /home/charles/linux/code/tfa/mp157_alientek/tf-a-stm32mp-2.2.r1-r0/tf-a-stm32mp-2.2.r1/../build/optee/bl2/stm32_console.o
                0x000000002ffe7568                console_stm32_register
 .text.asm.console_stm32_core_putc
                0x000000002ffe75c0       0x48 /home/charles/linux/code/tfa/mp157_alientek/tf-a-stm32mp-2.2.r1-r0/tf-a-stm32mp-2.2.r1/../build/optee/bl2/stm32_console.o
                0x000000002ffe75c0                console_stm32_core_putc
 .text.asm.console_stm32_putc
                0x000000002ffe7608       0x20 /home/charles/linux/code/tfa/mp157_alientek/tf-a-stm32mp-2.2.r1-r0/tf-a-stm32mp-2.2.r1/../build/optee/bl2/stm32_console.o
                0x000000002ffe7608                console_stm32_putc
 .text.asm.console_stm32_core_flush
                0x000000002ffe7628       0x30 /home/charles/linux/code/tfa/mp157_alientek/tf-a-stm32mp-2.2.r1-r0/tf-a-stm32mp-2.2.r1/../build/optee/bl2/stm32_console.o
                0x000000002ffe7628                console_stm32_core_flush
 .text.asm.console_stm32_flush
                0x000000002ffe7658       0x20 /home/charles/linux/code/tfa/mp157_alientek/tf-a-stm32mp-2.2.r1-r0/tf-a-stm32mp-2.2.r1/../build/optee/bl2/stm32_console.o
                0x000000002ffe7658                console_stm32_flush
 .text.asm.enable_mmu_direct_svc_mon
                0x000000002ffe7678       0x80 /home/charles/linux/code/tfa/mp157_alientek/tf-a-stm32mp-2.2.r1-r0/tf-a-stm32mp-2.2.r1/../build/optee/bl2/enable_mmu.o
                0x000000002ffe7678                enable_mmu_direct_svc_mon
 .text.asm.cortex_a7_enable_smp
                0x000000002ffe76f8       0x14 /home/charles/linux/code/tfa/mp157_alientek/tf-a-stm32mp-2.2.r1-r0/tf-a-stm32mp-2.2.r1/../build/optee/bl2/cortex_a7.o
 .text.asm.cortex_a7_reset_func
                0x000000002ffe770c        0x4 /home/charles/linux/code/tfa/mp157_alientek/tf-a-stm32mp-2.2.r1-r0/tf-a-stm32mp-2.2.r1/../build/optee/bl2/cortex_a7.o
 .text.asm.platform_mem_init
                0x000000002ffe7710        0x4 /home/charles/linux/code/tfa/mp157_alientek/tf-a-stm32mp-2.2.r1-r0/tf-a-stm32mp-2.2.r1/../build/optee/bl2/stm32mp1_helper.o
                0x000000002ffe7710                platform_mem_init
 .text.asm.plat_report_exception
                0x000000002ffe7714       0x74 /home/charles/linux/code/tfa/mp157_alientek/tf-a-stm32mp-2.2.r1-r0/tf-a-stm32mp-2.2.r1/../build/optee/bl2/stm32mp1_helper.o
                0x000000002ffe7714                plat_report_exception
 .text.asm.plat_report_undef_inst
                0x000000002ffe7788       0x30 /home/charles/linux/code/tfa/mp157_alientek/tf-a-stm32mp-2.2.r1-r0/tf-a-stm32mp-2.2.r1/../build/optee/bl2/stm32mp1_helper.o
                0x000000002ffe7788                plat_report_undef_inst
 .text.asm.plat_report_prefetch_abort
                0x000000002ffe77b8       0x58 /home/charles/linux/code/tfa/mp157_alientek/tf-a-stm32mp-2.2.r1-r0/tf-a-stm32mp-2.2.r1/../build/optee/bl2/stm32mp1_helper.o
                0x000000002ffe77b8                plat_report_prefetch_abort
 .text.asm.plat_report_data_abort
                0x000000002ffe7810       0x58 /home/charles/linux/code/tfa/mp157_alientek/tf-a-stm32mp-2.2.r1-r0/tf-a-stm32mp-2.2.r1/../build/optee/bl2/stm32mp1_helper.o
                0x000000002ffe7810                plat_report_data_abort
 .text.asm.plat_reset_handler
                0x000000002ffe7868        0x4 /home/charles/linux/code/tfa/mp157_alientek/tf-a-stm32mp-2.2.r1-r0/tf-a-stm32mp-2.2.r1/../build/optee/bl2/stm32mp1_helper.o
                0x000000002ffe7868                plat_reset_handler
 .text.asm.plat_get_my_entrypoint
                0x000000002ffe786c        0x8 /home/charles/linux/code/tfa/mp157_alientek/tf-a-stm32mp-2.2.r1-r0/tf-a-stm32mp-2.2.r1/../build/optee/bl2/stm32mp1_helper.o
                0x000000002ffe786c                plat_get_my_entrypoint
 .text.asm.plat_secondary_cold_boot_setup
                0x000000002ffe7874        0x4 /home/charles/linux/code/tfa/mp157_alientek/tf-a-stm32mp-2.2.r1-r0/tf-a-stm32mp-2.2.r1/../build/optee/bl2/stm32mp1_helper.o
                0x000000002ffe7874                plat_secondary_cold_boot_setup
 .text.asm.plat_is_my_cpu_primary
                0x000000002ffe7878       0x20 /home/charles/linux/code/tfa/mp157_alientek/tf-a-stm32mp-2.2.r1-r0/tf-a-stm32mp-2.2.r1/../build/optee/bl2/stm32mp1_helper.o
                0x000000002ffe7878                plat_is_my_cpu_primary
 .text.asm.plat_crash_console_init
                0x000000002ffe7898       0xac /home/charles/linux/code/tfa/mp157_alientek/tf-a-stm32mp-2.2.r1-r0/tf-a-stm32mp-2.2.r1/../build/optee/bl2/stm32mp1_helper.o
                0x000000002ffe7898                plat_crash_console_init
 .text.asm.plat_crash_console_flush
                0x000000002ffe7944        0xc /home/charles/linux/code/tfa/mp157_alientek/tf-a-stm32mp-2.2.r1-r0/tf-a-stm32mp-2.2.r1/../build/optee/bl2/stm32mp1_helper.o
                0x000000002ffe7944                plat_crash_console_flush
 .text.asm.plat_crash_console_putc
                0x000000002ffe7950        0xc /home/charles/linux/code/tfa/mp157_alientek/tf-a-stm32mp-2.2.r1-r0/tf-a-stm32mp-2.2.r1/../build/optee/bl2/stm32mp1_helper.o
                0x000000002ffe7950                plat_crash_console_putc
 .text.asm.plat_panic_handler
                0x000000002ffe795c       0x14 /home/charles/linux/code/tfa/mp157_alientek/tf-a-stm32mp-2.2.r1-r0/tf-a-stm32mp-2.2.r1/../build/optee/bl2/stm32mp1_helper.o
                0x000000002ffe795c                plat_panic_handler
                0x000000002ffe7970                __TEXT_RESIDENT_END__ = .
 *(.text*)
 .text.device_type_block
                0x000000002ffe7970        0x4 /home/charles/linux/code/tfa/mp157_alientek/tf-a-stm32mp-2.2.r1-r0/tf-a-stm32mp-2.2.r1/../build/optee/bl2/io_block.o
                0x000000002ffe7970                device_type_block
 .text.block_close
                0x000000002ffe7974        0x8 /home/charles/linux/code/tfa/mp157_alientek/tf-a-stm32mp-2.2.r1-r0/tf-a-stm32mp-2.2.r1/../build/optee/bl2/io_block.o
 .text.block_write
                0x000000002ffe797c      0x120 /home/charles/linux/code/tfa/mp157_alientek/tf-a-stm32mp-2.2.r1-r0/tf-a-stm32mp-2.2.r1/../build/optee/bl2/io_block.o
 .text.block_read
                0x000000002ffe7a9c       0xf4 /home/charles/linux/code/tfa/mp157_alientek/tf-a-stm32mp-2.2.r1-r0/tf-a-stm32mp-2.2.r1/../build/optee/bl2/io_block.o
 .text.block_dev_open
                0x000000002ffe7b90       0x78 /home/charles/linux/code/tfa/mp157_alientek/tf-a-stm32mp-2.2.r1-r0/tf-a-stm32mp-2.2.r1/../build/optee/bl2/io_block.o
 .text.block_seek
                0x000000002ffe7c08       0x60 /home/charles/linux/code/tfa/mp157_alientek/tf-a-stm32mp-2.2.r1-r0/tf-a-stm32mp-2.2.r1/../build/optee/bl2/io_block.o
 .text.block_open
                0x000000002ffe7c68       0x4c /home/charles/linux/code/tfa/mp157_alientek/tf-a-stm32mp-2.2.r1-r0/tf-a-stm32mp-2.2.r1/../build/optee/bl2/io_block.o
 .text.block_dev_close
                0x000000002ffe7cb4       0x48 /home/charles/linux/code/tfa/mp157_alientek/tf-a-stm32mp-2.2.r1-r0/tf-a-stm32mp-2.2.r1/../build/optee/bl2/io_block.o
 .text.register_io_dev_block
                0x000000002ffe7cfc       0x2c /home/charles/linux/code/tfa/mp157_alientek/tf-a-stm32mp-2.2.r1-r0/tf-a-stm32mp-2.2.r1/../build/optee/bl2/io_block.o
                0x000000002ffe7cfc                register_io_dev_block
 .text.device_type_dummy
                0x000000002ffe7d28        0x4 /home/charles/linux/code/tfa/mp157_alientek/tf-a-stm32mp-2.2.r1-r0/tf-a-stm32mp-2.2.r1/../build/optee/bl2/io_dummy.o
 .text.dummy_dev_close
                0x000000002ffe7d2c        0x4 /home/charles/linux/code/tfa/mp157_alientek/tf-a-stm32mp-2.2.r1-r0/tf-a-stm32mp-2.2.r1/../build/optee/bl2/io_dummy.o
 .text.dummy_dev_open
                0x000000002ffe7d30       0x1c /home/charles/linux/code/tfa/mp157_alientek/tf-a-stm32mp-2.2.r1-r0/tf-a-stm32mp-2.2.r1/../build/optee/bl2/io_dummy.o
 .text.dummy_block_close
                0x000000002ffe7d4c       0x20 /home/charles/linux/code/tfa/mp157_alientek/tf-a-stm32mp-2.2.r1-r0/tf-a-stm32mp-2.2.r1/../build/optee/bl2/io_dummy.o
 .text.dummy_block_read
                0x000000002ffe7d6c       0x18 /home/charles/linux/code/tfa/mp157_alientek/tf-a-stm32mp-2.2.r1-r0/tf-a-stm32mp-2.2.r1/../build/optee/bl2/io_dummy.o
 .text.dummy_block_len
                0x000000002ffe7d84       0x20 /home/charles/linux/code/tfa/mp157_alientek/tf-a-stm32mp-2.2.r1-r0/tf-a-stm32mp-2.2.r1/../build/optee/bl2/io_dummy.o
 .text.dummy_block_open
                0x000000002ffe7da4       0x3c /home/charles/linux/code/tfa/mp157_alientek/tf-a-stm32mp-2.2.r1-r0/tf-a-stm32mp-2.2.r1/../build/optee/bl2/io_dummy.o
 .text.register_io_dev_dummy
                0x000000002ffe7de0       0x28 /home/charles/linux/code/tfa/mp157_alientek/tf-a-stm32mp-2.2.r1-r0/tf-a-stm32mp-2.2.r1/../build/optee/bl2/io_dummy.o
                0x000000002ffe7de0                register_io_dev_dummy
 .text.device_type_mtd
                0x000000002ffe7e08        0x4 /home/charles/linux/code/tfa/mp157_alientek/tf-a-stm32mp-2.2.r1-r0/tf-a-stm32mp-2.2.r1/../build/optee/bl2/io_mtd.o
                0x000000002ffe7e08                device_type_mtd
 .text.mtd_close
                0x000000002ffe7e0c        0x8 /home/charles/linux/code/tfa/mp157_alientek/tf-a-stm32mp-2.2.r1-r0/tf-a-stm32mp-2.2.r1/../build/optee/bl2/io_mtd.o
 .text.mtd_read
                0x000000002ffe7e14       0x84 /home/charles/linux/code/tfa/mp157_alientek/tf-a-stm32mp-2.2.r1-r0/tf-a-stm32mp-2.2.r1/../build/optee/bl2/io_mtd.o
 .text.mtd_seek
                0x000000002ffe7e98       0x74 /home/charles/linux/code/tfa/mp157_alientek/tf-a-stm32mp-2.2.r1-r0/tf-a-stm32mp-2.2.r1/../build/optee/bl2/io_mtd.o
 .text.mtd_open
                0x000000002ffe7f0c       0x24 /home/charles/linux/code/tfa/mp157_alientek/tf-a-stm32mp-2.2.r1-r0/tf-a-stm32mp-2.2.r1/../build/optee/bl2/io_mtd.o
 .text.mtd_dev_close
                0x000000002ffe7f30       0x2c /home/charles/linux/code/tfa/mp157_alientek/tf-a-stm32mp-2.2.r1-r0/tf-a-stm32mp-2.2.r1/../build/optee/bl2/io_mtd.o
 .text.mtd_dev_open
                0x000000002ffe7f5c       0x50 /home/charles/linux/code/tfa/mp157_alientek/tf-a-stm32mp-2.2.r1-r0/tf-a-stm32mp-2.2.r1/../build/optee/bl2/io_mtd.o
 .text.register_io_dev_mtd
                0x000000002ffe7fac       0x1c /home/charles/linux/code/tfa/mp157_alientek/tf-a-stm32mp-2.2.r1-r0/tf-a-stm32mp-2.2.r1/../build/optee/bl2/io_mtd.o
                0x000000002ffe7fac                register_io_dev_mtd
 .text.is_valid_dev
                0x000000002ffe7fc8       0x18 /home/charles/linux/code/tfa/mp157_alientek/tf-a-stm32mp-2.2.r1-r0/tf-a-stm32mp-2.2.r1/../build/optee/bl2/io_storage.o
 .text.is_valid_entity
                0x000000002ffe7fe0       0x12 /home/charles/linux/code/tfa/mp157_alientek/tf-a-stm32mp-2.2.r1-r0/tf-a-stm32mp-2.2.r1/../build/optee/bl2/io_storage.o
 *fill*         0x000000002ffe7ff2        0x2 
 .text.free_entity
                0x000000002ffe7ff4       0x44 /home/charles/linux/code/tfa/mp157_alientek/tf-a-stm32mp-2.2.r1-r0/tf-a-stm32mp-2.2.r1/../build/optee/bl2/io_storage.o
 .text.io_register_device
                0x000000002ffe8038       0x28 /home/charles/linux/code/tfa/mp157_alientek/tf-a-stm32mp-2.2.r1-r0/tf-a-stm32mp-2.2.r1/../build/optee/bl2/io_storage.o
                0x000000002ffe8038                io_register_device
 .text.io_dev_open
                0x000000002ffe8060       0x28 /home/charles/linux/code/tfa/mp157_alientek/tf-a-stm32mp-2.2.r1-r0/tf-a-stm32mp-2.2.r1/../build/optee/bl2/io_storage.o
                0x000000002ffe8060                io_dev_open
 .text.io_dev_init
                0x000000002ffe8088       0x34 /home/charles/linux/code/tfa/mp157_alientek/tf-a-stm32mp-2.2.r1-r0/tf-a-stm32mp-2.2.r1/../build/optee/bl2/io_storage.o
                0x000000002ffe8088                io_dev_init
 .text.io_dev_close
                0x000000002ffe80bc       0x30 /home/charles/linux/code/tfa/mp157_alientek/tf-a-stm32mp-2.2.r1-r0/tf-a-stm32mp-2.2.r1/../build/optee/bl2/io_storage.o
                0x000000002ffe80bc                io_dev_close
 .text.io_open  0x000000002ffe80ec       0x98 /home/charles/linux/code/tfa/mp157_alientek/tf-a-stm32mp-2.2.r1-r0/tf-a-stm32mp-2.2.r1/../build/optee/bl2/io_storage.o
                0x000000002ffe80ec                io_open
 .text.io_seek  0x000000002ffe8184       0x4c /home/charles/linux/code/tfa/mp157_alientek/tf-a-stm32mp-2.2.r1-r0/tf-a-stm32mp-2.2.r1/../build/optee/bl2/io_storage.o
                0x000000002ffe8184                io_seek
 .text.io_size  0x000000002ffe81d0       0x34 /home/charles/linux/code/tfa/mp157_alientek/tf-a-stm32mp-2.2.r1-r0/tf-a-stm32mp-2.2.r1/../build/optee/bl2/io_storage.o
                0x000000002ffe81d0                io_size
 .text.io_read  0x000000002ffe8204       0x48 /home/charles/linux/code/tfa/mp157_alientek/tf-a-stm32mp-2.2.r1-r0/tf-a-stm32mp-2.2.r1/../build/optee/bl2/io_storage.o
                0x000000002ffe8204                io_read
 .text.io_close
                0x000000002ffe824c       0x30 /home/charles/linux/code/tfa/mp157_alientek/tf-a-stm32mp-2.2.r1-r0/tf-a-stm32mp-2.2.r1/../build/optee/bl2/io_storage.o
                0x000000002ffe824c                io_close
 .text.hash_write_data
                0x000000002ffe827c       0x68 /home/charles/linux/code/tfa/mp157_alientek/tf-a-stm32mp-2.2.r1-r0/tf-a-stm32mp-2.2.r1/../build/optee/bl2/stm32_hash.o
 .text.stm32_hash_update
                0x000000002ffe82e4       0xb0 /home/charles/linux/code/tfa/mp157_alientek/tf-a-stm32mp-2.2.r1-r0/tf-a-stm32mp-2.2.r1/../build/optee/bl2/stm32_hash.o
                0x000000002ffe82e4                stm32_hash_update
 .text.stm32_hash_final
                0x000000002ffe8394      0x100 /home/charles/linux/code/tfa/mp157_alientek/tf-a-stm32mp-2.2.r1-r0/tf-a-stm32mp-2.2.r1/../build/optee/bl2/stm32_hash.o
                0x000000002ffe8394                stm32_hash_final
 .text.stm32_hash_final_update
                0x000000002ffe8494       0x16 /home/charles/linux/code/tfa/mp157_alientek/tf-a-stm32mp-2.2.r1-r0/tf-a-stm32mp-2.2.r1/../build/optee/bl2/stm32_hash.o
                0x000000002ffe8494                stm32_hash_final_update
 *fill*         0x000000002ffe84aa        0x2 
 .text.stm32_hash_init
                0x000000002ffe84ac       0x5c /home/charles/linux/code/tfa/mp157_alientek/tf-a-stm32mp-2.2.r1-r0/tf-a-stm32mp-2.2.r1/../build/optee/bl2/stm32_hash.o
                0x000000002ffe84ac                stm32_hash_init
 .text.stm32_hash_register
                0x000000002ffe8508       0x88 /home/charles/linux/code/tfa/mp157_alientek/tf-a-stm32mp-2.2.r1-r0/tf-a-stm32mp-2.2.r1/../build/optee/bl2/stm32_hash.o
                0x000000002ffe8508                stm32_hash_register
 .text.device_type_stm32image
                0x000000002ffe8590        0x4 /home/charles/linux/code/tfa/mp157_alientek/tf-a-stm32mp-2.2.r1-r0/tf-a-stm32mp-2.2.r1/../build/optee/bl2/io_stm32image.o
 .text.stm32image_dev_close
                0x000000002ffe8594       0x1c /home/charles/linux/code/tfa/mp157_alientek/tf-a-stm32mp-2.2.r1-r0/tf-a-stm32mp-2.2.r1/../build/optee/bl2/io_stm32image.o
 .text.stm32image_partition_close
                0x000000002ffe85b0        0xc /home/charles/linux/code/tfa/mp157_alientek/tf-a-stm32mp-2.2.r1-r0/tf-a-stm32mp-2.2.r1/../build/optee/bl2/io_stm32image.o
 .text.stm32image_dev_init
                0x000000002ffe85bc       0x44 /home/charles/linux/code/tfa/mp157_alientek/tf-a-stm32mp-2.2.r1-r0/tf-a-stm32mp-2.2.r1/../build/optee/bl2/io_stm32image.o
 .text.stm32image_partition_read
                0x000000002ffe8600      0x100 /home/charles/linux/code/tfa/mp157_alientek/tf-a-stm32mp-2.2.r1-r0/tf-a-stm32mp-2.2.r1/../build/optee/bl2/io_stm32image.o
 .text.stm32image_partition_size
                0x000000002ffe8700       0xf0 /home/charles/linux/code/tfa/mp157_alientek/tf-a-stm32mp-2.2.r1-r0/tf-a-stm32mp-2.2.r1/../build/optee/bl2/io_stm32image.o
 .text.stm32image_dev_open
                0x000000002ffe87f0       0x64 /home/charles/linux/code/tfa/mp157_alientek/tf-a-stm32mp-2.2.r1-r0/tf-a-stm32mp-2.2.r1/../build/optee/bl2/io_stm32image.o
 .text.stm32image_partition_open
                0x000000002ffe8854       0x64 /home/charles/linux/code/tfa/mp157_alientek/tf-a-stm32mp-2.2.r1-r0/tf-a-stm32mp-2.2.r1/../build/optee/bl2/io_stm32image.o
 .text.register_io_dev_stm32image
                0x000000002ffe88b8       0x2c /home/charles/linux/code/tfa/mp157_alientek/tf-a-stm32mp-2.2.r1-r0/tf-a-stm32mp-2.2.r1/../build/optee/bl2/io_stm32image.o
                0x000000002ffe88b8                register_io_dev_stm32image
 .text.boot_mmc
                0x000000002ffe88e4      0x14c /home/charles/linux/code/tfa/mp157_alientek/tf-a-stm32mp-2.2.r1-r0/tf-a-stm32mp-2.2.r1/../build/optee/bl2/bl2_io_storage.o
 .text.open_storage
                0x000000002ffe8a30       0x10 /home/charles/linux/code/tfa/mp157_alientek/tf-a-stm32mp-2.2.r1-r0/tf-a-stm32mp-2.2.r1/../build/optee/bl2/bl2_io_storage.o
 .text.open_image
                0x000000002ffe8a40       0x10 /home/charles/linux/code/tfa/mp157_alientek/tf-a-stm32mp-2.2.r1-r0/tf-a-stm32mp-2.2.r1/../build/optee/bl2/bl2_io_storage.o
 .text.open_dummy
                0x000000002ffe8a50       0x10 /home/charles/linux/code/tfa/mp157_alientek/tf-a-stm32mp-2.2.r1-r0/tf-a-stm32mp-2.2.r1/../build/optee/bl2/bl2_io_storage.o
 .text.stm32mp_io_setup
                0x000000002ffe8a60      0x2ec /home/charles/linux/code/tfa/mp157_alientek/tf-a-stm32mp-2.2.r1-r0/tf-a-stm32mp-2.2.r1/../build/optee/bl2/bl2_io_storage.o
                0x000000002ffe8a60                stm32mp_io_setup
 .text.plat_get_image_source
                0x000000002ffe8d4c       0x40 /home/charles/linux/code/tfa/mp157_alientek/tf-a-stm32mp-2.2.r1-r0/tf-a-stm32mp-2.2.r1/../build/optee/bl2/bl2_io_storage.o
                0x000000002ffe8d4c                plat_get_image_source
 .text.plat_try_next_boot_source
                0x000000002ffe8d8c       0x9c /home/charles/linux/code/tfa/mp157_alientek/tf-a-stm32mp-2.2.r1-r0/tf-a-stm32mp-2.2.r1/../build/optee/bl2/bl2_io_storage.o
                0x000000002ffe8d8c                plat_try_next_boot_source
 .text.get_boot_device
                0x000000002ffe8e28        0x4 /home/charles/linux/code/tfa/mp157_alientek/tf-a-stm32mp-2.2.r1-r0/tf-a-stm32mp-2.2.r1/../build/optee/bl2/bl2_plat_setup.o
                0x000000002ffe8e28                get_boot_device
 .text.bl2_el3_early_platform_setup
                0x000000002ffe8e2c        0x4 /home/charles/linux/code/tfa/mp157_alientek/tf-a-stm32mp-2.2.r1-r0/tf-a-stm32mp-2.2.r1/../build/optee/bl2/bl2_plat_setup.o
                0x000000002ffe8e2c                bl2_el3_early_platform_setup
 .text.bl2_platform_setup
                0x000000002ffe8e30       0xc8 /home/charles/linux/code/tfa/mp157_alientek/tf-a-stm32mp-2.2.r1-r0/tf-a-stm32mp-2.2.r1/../build/optee/bl2/bl2_plat_setup.o
                0x000000002ffe8e30                bl2_platform_setup
 .text.bl2_el3_plat_arch_setup
                0x000000002ffe8ef8      0x438 /home/charles/linux/code/tfa/mp157_alientek/tf-a-stm32mp-2.2.r1-r0/tf-a-stm32mp-2.2.r1/../build/optee/bl2/bl2_plat_setup.o
                0x000000002ffe8ef8                bl2_el3_plat_arch_setup
 .text.bl2_plat_handle_post_image_load
                0x000000002ffe9330       0xf4 /home/charles/linux/code/tfa/mp157_alientek/tf-a-stm32mp-2.2.r1-r0/tf-a-stm32mp-2.2.r1/../build/optee/bl2/bl2_plat_setup.o
                0x000000002ffe9330                bl2_plat_handle_post_image_load
 .text.auth_get_param.isra.0
                0x000000002ffe9424       0x3e /home/charles/linux/code/tfa/mp157_alientek/tf-a-stm32mp-2.2.r1-r0/tf-a-stm32mp-2.2.r1/../build/optee/bl2/auth_mod.o
 .text.plat_set_nv_ctr2
                0x000000002ffe9462        0x6 /home/charles/linux/code/tfa/mp157_alientek/tf-a-stm32mp-2.2.r1-r0/tf-a-stm32mp-2.2.r1/../build/optee/bl2/auth_mod.o
                0x000000002ffe9462                plat_set_nv_ctr2
 .text.auth_mod_get_parent_id
                0x000000002ffe9468       0x40 /home/charles/linux/code/tfa/mp157_alientek/tf-a-stm32mp-2.2.r1-r0/tf-a-stm32mp-2.2.r1/../build/optee/bl2/auth_mod.o
                0x000000002ffe9468                auth_mod_get_parent_id
 .text.auth_mod_init
                0x000000002ffe94a8       0x28 /home/charles/linux/code/tfa/mp157_alientek/tf-a-stm32mp-2.2.r1-r0/tf-a-stm32mp-2.2.r1/../build/optee/bl2/auth_mod.o
                0x000000002ffe94a8                auth_mod_init
 .text.auth_mod_verify_img
                0x000000002ffe94d0      0x284 /home/charles/linux/code/tfa/mp157_alientek/tf-a-stm32mp-2.2.r1-r0/tf-a-stm32mp-2.2.r1/../build/optee/bl2/auth_mod.o
                0x000000002ffe94d0                auth_mod_verify_img
 .text.crypto_mod_init
                0x000000002ffe9754       0x44 /home/charles/linux/code/tfa/mp157_alientek/tf-a-stm32mp-2.2.r1-r0/tf-a-stm32mp-2.2.r1/../build/optee/bl2/crypto_mod.o
                0x000000002ffe9754                crypto_mod_init
 .text.crypto_mod_verify_signature
                0x000000002ffe9798       0x6c /home/charles/linux/code/tfa/mp157_alientek/tf-a-stm32mp-2.2.r1-r0/tf-a-stm32mp-2.2.r1/../build/optee/bl2/crypto_mod.o
                0x000000002ffe9798                crypto_mod_verify_signature
 .text.crypto_mod_verify_hash
                0x000000002ffe9804       0x38 /home/charles/linux/code/tfa/mp157_alientek/tf-a-stm32mp-2.2.r1-r0/tf-a-stm32mp-2.2.r1/../build/optee/bl2/crypto_mod.o
                0x000000002ffe9804                crypto_mod_verify_hash
 .text.img_parser_init
                0x000000002ffe983c       0x94 /home/charles/linux/code/tfa/mp157_alientek/tf-a-stm32mp-2.2.r1-r0/tf-a-stm32mp-2.2.r1/../build/optee/bl2/img_parser_mod.o
                0x000000002ffe983c                img_parser_init
 .text.img_parser_check_integrity
                0x000000002ffe98d0       0x48 /home/charles/linux/code/tfa/mp157_alientek/tf-a-stm32mp-2.2.r1-r0/tf-a-stm32mp-2.2.r1/../build/optee/bl2/img_parser_mod.o
                0x000000002ffe98d0                img_parser_check_integrity
 .text.img_parser_get_auth_param
                0x000000002ffe9918       0x78 /home/charles/linux/code/tfa/mp157_alientek/tf-a-stm32mp-2.2.r1-r0/tf-a-stm32mp-2.2.r1/../build/optee/bl2/img_parser_mod.o
                0x000000002ffe9918                img_parser_get_auth_param
 .text.crypto_verify_hash
                0x000000002ffe9990       0x46 /home/charles/linux/code/tfa/mp157_alientek/tf-a-stm32mp-2.2.r1-r0/tf-a-stm32mp-2.2.r1/../build/optee/bl2/stm32mp_crypto_lib.o
 *fill*         0x000000002ffe99d6        0x2 
 .text.crypto_verify_signature
                0x000000002ffe99d8      0x100 /home/charles/linux/code/tfa/mp157_alientek/tf-a-stm32mp-2.2.r1-r0/tf-a-stm32mp-2.2.r1/../build/optee/bl2/stm32mp_crypto_lib.o
 .text.crypto_lib_init
                0x000000002ffe9ad8       0x60 /home/charles/linux/code/tfa/mp157_alientek/tf-a-stm32mp-2.2.r1-r0/tf-a-stm32mp-2.2.r1/../build/optee/bl2/stm32mp_crypto_lib.o
 .text.img_lib_init
                0x000000002ffe9b38        0x2 /home/charles/linux/code/tfa/mp157_alientek/tf-a-stm32mp-2.2.r1-r0/tf-a-stm32mp-2.2.r1/../build/optee/bl2/stm32mp_img_parser_lib.o
 .text.img_get_auth_param
                0x000000002ffe9b3a       0x74 /home/charles/linux/code/tfa/mp157_alientek/tf-a-stm32mp-2.2.r1-r0/tf-a-stm32mp-2.2.r1/../build/optee/bl2/stm32mp_img_parser_lib.o
 .text.img_check_integrity
                0x000000002ffe9bae       0x12 /home/charles/linux/code/tfa/mp157_alientek/tf-a-stm32mp-2.2.r1-r0/tf-a-stm32mp-2.2.r1/../build/optee/bl2/stm32mp_img_parser_lib.o
 .text.plat_get_rotpk_info
                0x000000002ffe9bc0       0x8c /home/charles/linux/code/tfa/mp157_alientek/tf-a-stm32mp-2.2.r1-r0/tf-a-stm32mp-2.2.r1/../build/optee/bl2/stm32mp_trusted_boot.o
                0x000000002ffe9bc0                plat_get_rotpk_info
 .text.plat_get_nv_ctr
                0x000000002ffe9c4c       0x1c /home/charles/linux/code/tfa/mp157_alientek/tf-a-stm32mp-2.2.r1-r0/tf-a-stm32mp-2.2.r1/../build/optee/bl2/stm32mp_trusted_boot.o
                0x000000002ffe9c4c                plat_get_nv_ctr
 .text.plat_set_nv_ctr
                0x000000002ffe9c68        0x6 /home/charles/linux/code/tfa/mp157_alientek/tf-a-stm32mp-2.2.r1-r0/tf-a-stm32mp-2.2.r1/../build/optee/bl2/stm32mp_trusted_boot.o
                0x000000002ffe9c68                plat_set_nv_ctr
 *fill*         0x000000002ffe9c6e        0x2 
 .text.mmc_send_cmd
                0x000000002ffe9c70       0x44 /home/charles/linux/code/tfa/mp157_alientek/tf-a-stm32mp-2.2.r1-r0/tf-a-stm32mp-2.2.r1/../build/optee/bl2/mmc.o
 .text.mmc_device_state
                0x000000002ffe9cb4       0x44 /home/charles/linux/code/tfa/mp157_alientek/tf-a-stm32mp-2.2.r1-r0/tf-a-stm32mp-2.2.r1/../build/optee/bl2/mmc.o
 .text.mmc_reset_to_idle
                0x000000002ffe9cf8       0x1c /home/charles/linux/code/tfa/mp157_alientek/tf-a-stm32mp-2.2.r1-r0/tf-a-stm32mp-2.2.r1/../build/optee/bl2/mmc.o
 .text.mmc_set_ext_csd
                0x000000002ffe9d14       0x34 /home/charles/linux/code/tfa/mp157_alientek/tf-a-stm32mp-2.2.r1-r0/tf-a-stm32mp-2.2.r1/../build/optee/bl2/mmc.o
 .text.sd_switch.constprop.0
                0x000000002ffe9d48       0x48 /home/charles/linux/code/tfa/mp157_alientek/tf-a-stm32mp-2.2.r1-r0/tf-a-stm32mp-2.2.r1/../build/optee/bl2/mmc.o
 .text.mmc_read_blocks
                0x000000002ffe9d90       0xc8 /home/charles/linux/code/tfa/mp157_alientek/tf-a-stm32mp-2.2.r1-r0/tf-a-stm32mp-2.2.r1/../build/optee/bl2/mmc.o
                0x000000002ffe9d90                mmc_read_blocks
 .text.mmc_init
                0x000000002ffe9e58      0x4fc /home/charles/linux/code/tfa/mp157_alientek/tf-a-stm32mp-2.2.r1-r0/tf-a-stm32mp-2.2.r1/../build/optee/bl2/mmc.o
                0x000000002ffe9e58                mmc_init
 .text.parse_gpt_entry
                0x000000002ffea354       0x9c /home/charles/linux/code/tfa/mp157_alientek/tf-a-stm32mp-2.2.r1-r0/tf-a-stm32mp-2.2.r1/../build/optee/bl2/gpt.o
                0x000000002ffea354                parse_gpt_entry
 .text.load_partition_table
                0x000000002ffea3f0      0x1f4 /home/charles/linux/code/tfa/mp157_alientek/tf-a-stm32mp-2.2.r1-r0/tf-a-stm32mp-2.2.r1/../build/optee/bl2/partition.o
                0x000000002ffea3f0                load_partition_table
 .text.get_partition_entry
                0x000000002ffea5e4       0x40 /home/charles/linux/code/tfa/mp157_alientek/tf-a-stm32mp-2.2.r1-r0/tf-a-stm32mp-2.2.r1/../build/optee/bl2/partition.o
                0x000000002ffea5e4                get_partition_entry
 .text.partition_init
                0x000000002ffea624        0x4 /home/charles/linux/code/tfa/mp157_alientek/tf-a-stm32mp-2.2.r1-r0/tf-a-stm32mp-2.2.r1/../build/optee/bl2/partition.o
                0x000000002ffea624                partition_init
 .text.device_type_mmc
                0x000000002ffea628        0x4 /home/charles/linux/code/tfa/mp157_alientek/tf-a-stm32mp-2.2.r1-r0/tf-a-stm32mp-2.2.r1/../build/optee/bl2/io_mmc.o
 .text.mmc_dev_init
                0x000000002ffea62c        0x4 /home/charles/linux/code/tfa/mp157_alientek/tf-a-stm32mp-2.2.r1-r0/tf-a-stm32mp-2.2.r1/../build/optee/bl2/io_mmc.o
 .text.mmc_block_open
                0x000000002ffea630       0x10 /home/charles/linux/code/tfa/mp157_alientek/tf-a-stm32mp-2.2.r1-r0/tf-a-stm32mp-2.2.r1/../build/optee/bl2/io_mmc.o
 .text.mmc_block_seek
                0x000000002ffea640       0x14 /home/charles/linux/code/tfa/mp157_alientek/tf-a-stm32mp-2.2.r1-r0/tf-a-stm32mp-2.2.r1/../build/optee/bl2/io_mmc.o
 .text.mmc_block_close
                0x000000002ffea654        0x4 /home/charles/linux/code/tfa/mp157_alientek/tf-a-stm32mp-2.2.r1-r0/tf-a-stm32mp-2.2.r1/../build/optee/bl2/io_mmc.o
 .text.mmc_block_read
                0x000000002ffea658       0x7c /home/charles/linux/code/tfa/mp157_alientek/tf-a-stm32mp-2.2.r1-r0/tf-a-stm32mp-2.2.r1/../build/optee/bl2/io_mmc.o
 .text.mmc_dev_open
                0x000000002ffea6d4       0x1c /home/charles/linux/code/tfa/mp157_alientek/tf-a-stm32mp-2.2.r1-r0/tf-a-stm32mp-2.2.r1/../build/optee/bl2/io_mmc.o
 .text.mmc_dev_close
                0x000000002ffea6f0        0x4 /home/charles/linux/code/tfa/mp157_alientek/tf-a-stm32mp-2.2.r1-r0/tf-a-stm32mp-2.2.r1/../build/optee/bl2/io_mmc.o
 .text.register_io_dev_mmc
                0x000000002ffea6f4       0x28 /home/charles/linux/code/tfa/mp157_alientek/tf-a-stm32mp-2.2.r1-r0/tf-a-stm32mp-2.2.r1/../build/optee/bl2/io_mmc.o
                0x000000002ffea6f4                register_io_dev_mmc
 .text.stm32_sdmmc2_write
                0x000000002ffea71c        0x4 /home/charles/linux/code/tfa/mp157_alientek/tf-a-stm32mp-2.2.r1-r0/tf-a-stm32mp-2.2.r1/../build/optee/bl2/stm32_sdmmc2.o
 .text.dump_registers
                0x000000002ffea720       0xc4 /home/charles/linux/code/tfa/mp157_alientek/tf-a-stm32mp-2.2.r1-r0/tf-a-stm32mp-2.2.r1/../build/optee/bl2/stm32_sdmmc2.o
 .text.stm32_sdmmc2_set_ios
                0x000000002ffea7e4       0x7c /home/charles/linux/code/tfa/mp157_alientek/tf-a-stm32mp-2.2.r1-r0/tf-a-stm32mp-2.2.r1/../build/optee/bl2/stm32_sdmmc2.o
 .text.stm32_sdmmc2_init
                0x000000002ffea860       0x94 /home/charles/linux/code/tfa/mp157_alientek/tf-a-stm32mp-2.2.r1-r0/tf-a-stm32mp-2.2.r1/../build/optee/bl2/stm32_sdmmc2.o
 .text.stm32_sdmmc2_send_cmd
                0x000000002ffea8f4      0x2b4 /home/charles/linux/code/tfa/mp157_alientek/tf-a-stm32mp-2.2.r1-r0/tf-a-stm32mp-2.2.r1/../build/optee/bl2/stm32_sdmmc2.o
 .text.stm32_sdmmc2_stop_transfer
                0x000000002ffeaba8       0x20 /home/charles/linux/code/tfa/mp157_alientek/tf-a-stm32mp-2.2.r1-r0/tf-a-stm32mp-2.2.r1/../build/optee/bl2/stm32_sdmmc2.o
 .text.stm32_sdmmc2_read
                0x000000002ffeabc8      0x12c /home/charles/linux/code/tfa/mp157_alientek/tf-a-stm32mp-2.2.r1-r0/tf-a-stm32mp-2.2.r1/../build/optee/bl2/stm32_sdmmc2.o
 .text.plat_sdmmc2_use_dma
                0x000000002ffeacf4        0x4 /home/charles/linux/code/tfa/mp157_alientek/tf-a-stm32mp-2.2.r1-r0/tf-a-stm32mp-2.2.r1/../build/optee/bl2/stm32_sdmmc2.o
                0x000000002ffeacf4                plat_sdmmc2_use_dma
 .text.stm32_sdmmc2_prepare
                0x000000002ffeacf8       0xb4 /home/charles/linux/code/tfa/mp157_alientek/tf-a-stm32mp-2.2.r1-r0/tf-a-stm32mp-2.2.r1/../build/optee/bl2/stm32_sdmmc2.o
 .text.stm32_sdmmc2_mmc_get_device_size
                0x000000002ffeadac       0x10 /home/charles/linux/code/tfa/mp157_alientek/tf-a-stm32mp-2.2.r1-r0/tf-a-stm32mp-2.2.r1/../build/optee/bl2/stm32_sdmmc2.o
                0x000000002ffeadac                stm32_sdmmc2_mmc_get_device_size
 .text.stm32_sdmmc2_mmc_init
                0x000000002ffeadbc      0x1c4 /home/charles/linux/code/tfa/mp157_alientek/tf-a-stm32mp-2.2.r1-r0/tf-a-stm32mp-2.2.r1/../build/optee/bl2/stm32_sdmmc2.o
                0x000000002ffeadbc                stm32_sdmmc2_mmc_init
 .text.nand_send_addr
                0x000000002ffeaf80       0x38 /home/charles/linux/code/tfa/mp157_alientek/tf-a-stm32mp-2.2.r1-r0/tf-a-stm32mp-2.2.r1/../build/optee/bl2/raw_nand.o
 .text.nand_send_cmd
                0x000000002ffeafb8       0x2c /home/charles/linux/code/tfa/mp157_alientek/tf-a-stm32mp-2.2.r1-r0/tf-a-stm32mp-2.2.r1/../build/optee/bl2/raw_nand.o
 .text.nand_read_data
                0x000000002ffeafe4       0x40 /home/charles/linux/code/tfa/mp157_alientek/tf-a-stm32mp-2.2.r1-r0/tf-a-stm32mp-2.2.r1/../build/optee/bl2/raw_nand.o
 .text.nand_send_wait
                0x000000002ffeb024       0x34 /home/charles/linux/code/tfa/mp157_alientek/tf-a-stm32mp-2.2.r1-r0/tf-a-stm32mp-2.2.r1/../build/optee/bl2/raw_nand.o
 .text.nand_read_param_page
                0x000000002ffeb058       0xf8 /home/charles/linux/code/tfa/mp157_alientek/tf-a-stm32mp-2.2.r1-r0/tf-a-stm32mp-2.2.r1/../build/optee/bl2/raw_nand.o
 .text.nand_change_read_column_cmd
                0x000000002ffeb150       0x58 /home/charles/linux/code/tfa/mp157_alientek/tf-a-stm32mp-2.2.r1-r0/tf-a-stm32mp-2.2.r1/../build/optee/bl2/raw_nand.o
                0x000000002ffeb150                nand_change_read_column_cmd
 .text.nand_read_page_cmd
                0x000000002ffeb1a8       0x98 /home/charles/linux/code/tfa/mp157_alientek/tf-a-stm32mp-2.2.r1-r0/tf-a-stm32mp-2.2.r1/../build/optee/bl2/raw_nand.o
                0x000000002ffeb1a8                nand_read_page_cmd
 .text.nand_mtd_read_page_raw
                0x000000002ffeb240       0x14 /home/charles/linux/code/tfa/mp157_alientek/tf-a-stm32mp-2.2.r1-r0/tf-a-stm32mp-2.2.r1/../build/optee/bl2/raw_nand.o
 .text.nand_mtd_block_is_bad
                0x000000002ffeb254       0x60 /home/charles/linux/code/tfa/mp157_alientek/tf-a-stm32mp-2.2.r1-r0/tf-a-stm32mp-2.2.r1/../build/optee/bl2/raw_nand.o
 .text.nand_wait_ready
                0x000000002ffeb2b4       0x7c /home/charles/linux/code/tfa/mp157_alientek/tf-a-stm32mp-2.2.r1-r0/tf-a-stm32mp-2.2.r1/../build/optee/bl2/raw_nand.o
                0x000000002ffeb2b4                nand_wait_ready
 .text.nand_raw_ctrl_init
                0x000000002ffeb330        0xc /home/charles/linux/code/tfa/mp157_alientek/tf-a-stm32mp-2.2.r1-r0/tf-a-stm32mp-2.2.r1/../build/optee/bl2/raw_nand.o
                0x000000002ffeb330                nand_raw_ctrl_init
 .text.nand_raw_init
                0x000000002ffeb33c       0xf0 /home/charles/linux/code/tfa/mp157_alientek/tf-a-stm32mp-2.2.r1-r0/tf-a-stm32mp-2.2.r1/../build/optee/bl2/raw_nand.o
                0x000000002ffeb33c                nand_raw_init
 .text.fdt32_to_cpu
                0x000000002ffeb42c        0x4 /home/charles/linux/code/tfa/mp157_alientek/tf-a-stm32mp-2.2.r1-r0/tf-a-stm32mp-2.2.r1/../build/optee/bl2/stm32_fmc2_nand.o
 .text.stm32_fmc2_set_buswidth_16
                0x000000002ffeb430       0x20 /home/charles/linux/code/tfa/mp157_alientek/tf-a-stm32mp-2.2.r1-r0/tf-a-stm32mp-2.2.r1/../build/optee/bl2/stm32_fmc2_nand.o
 .text.stm32_fmc2_set_ecc
                0x000000002ffeb450       0x20 /home/charles/linux/code/tfa/mp157_alientek/tf-a-stm32mp-2.2.r1-r0/tf-a-stm32mp-2.2.r1/../build/optee/bl2/stm32_fmc2_nand.o
 .text.stm32_fmc2_setup
                0x000000002ffeb470       0x6c /home/charles/linux/code/tfa/mp157_alientek/tf-a-stm32mp-2.2.r1-r0/tf-a-stm32mp-2.2.r1/../build/optee/bl2/stm32_fmc2_nand.o
 .text.stm32_fmc2_exec
                0x000000002ffeb4dc      0x170 /home/charles/linux/code/tfa/mp157_alientek/tf-a-stm32mp-2.2.r1-r0/tf-a-stm32mp-2.2.r1/../build/optee/bl2/stm32_fmc2_nand.o
 .text.stm32_fmc2_read_page
                0x000000002ffeb64c      0x2f4 /home/charles/linux/code/tfa/mp157_alientek/tf-a-stm32mp-2.2.r1-r0/tf-a-stm32mp-2.2.r1/../build/optee/bl2/stm32_fmc2_nand.o
 .text.stm32_fmc2_init
                0x000000002ffeb940      0x3d8 /home/charles/linux/code/tfa/mp157_alientek/tf-a-stm32mp-2.2.r1-r0/tf-a-stm32mp-2.2.r1/../build/optee/bl2/stm32_fmc2_nand.o
                0x000000002ffeb940                stm32_fmc2_init
 .text.spi_nand_reg
                0x000000002ffebd18       0x4a /home/charles/linux/code/tfa/mp157_alientek/tf-a-stm32mp-2.2.r1-r0/tf-a-stm32mp-2.2.r1/../build/optee/bl2/spi_nand.o
 *fill*         0x000000002ffebd62        0x2 
 .text.spi_nand_load_page
                0x000000002ffebd64       0x54 /home/charles/linux/code/tfa/mp157_alientek/tf-a-stm32mp-2.2.r1-r0/tf-a-stm32mp-2.2.r1/../build/optee/bl2/spi_nand.o
 .text.spi_nand_read_from_cache
                0x000000002ffebdb8       0x50 /home/charles/linux/code/tfa/mp157_alientek/tf-a-stm32mp-2.2.r1-r0/tf-a-stm32mp-2.2.r1/../build/optee/bl2/spi_nand.o
 .text.spi_nand_update_cfg
                0x000000002ffebe08       0x38 /home/charles/linux/code/tfa/mp157_alientek/tf-a-stm32mp-2.2.r1-r0/tf-a-stm32mp-2.2.r1/../build/optee/bl2/spi_nand.o
 .text.spi_nand_wait_ready
                0x000000002ffebe40       0x58 /home/charles/linux/code/tfa/mp157_alientek/tf-a-stm32mp-2.2.r1-r0/tf-a-stm32mp-2.2.r1/../build/optee/bl2/spi_nand.o
 .text.spi_nand_mtd_read_page
                0x000000002ffebe98       0x4c /home/charles/linux/code/tfa/mp157_alientek/tf-a-stm32mp-2.2.r1-r0/tf-a-stm32mp-2.2.r1/../build/optee/bl2/spi_nand.o
 .text.spi_nand_mtd_block_is_bad
                0x000000002ffebee4       0x60 /home/charles/linux/code/tfa/mp157_alientek/tf-a-stm32mp-2.2.r1-r0/tf-a-stm32mp-2.2.r1/../build/optee/bl2/spi_nand.o
 .text.spi_nand_init
                0x000000002ffebf44       0xf8 /home/charles/linux/code/tfa/mp157_alientek/tf-a-stm32mp-2.2.r1-r0/tf-a-stm32mp-2.2.r1/../build/optee/bl2/spi_nand.o
                0x000000002ffebf44                spi_nand_init
 .text.spi_nor_reg
                0x000000002ffec03c       0x32 /home/charles/linux/code/tfa/mp157_alientek/tf-a-stm32mp-2.2.r1-r0/tf-a-stm32mp-2.2.r1/../build/optee/bl2/spi_nor.o
 .text.spi_nor_write_en
                0x000000002ffec06e        0xc /home/charles/linux/code/tfa/mp157_alientek/tf-a-stm32mp-2.2.r1-r0/tf-a-stm32mp-2.2.r1/../build/optee/bl2/spi_nor.o
 .text.spi_nor_read_sr
                0x000000002ffec07a        0xc /home/charles/linux/code/tfa/mp157_alientek/tf-a-stm32mp-2.2.r1-r0/tf-a-stm32mp-2.2.r1/../build/optee/bl2/spi_nor.o
 *fill*         0x000000002ffec086        0x2 
 .text.spi_nor_clean_bar
                0x000000002ffec088       0x30 /home/charles/linux/code/tfa/mp157_alientek/tf-a-stm32mp-2.2.r1-r0/tf-a-stm32mp-2.2.r1/../build/optee/bl2/spi_nor.o
 .text.spi_nor_wait_ready
                0x000000002ffec0b8       0x74 /home/charles/linux/code/tfa/mp157_alientek/tf-a-stm32mp-2.2.r1-r0/tf-a-stm32mp-2.2.r1/../build/optee/bl2/spi_nor.o
 .text.spi_nor_read
                0x000000002ffec12c       0xb4 /home/charles/linux/code/tfa/mp157_alientek/tf-a-stm32mp-2.2.r1-r0/tf-a-stm32mp-2.2.r1/../build/optee/bl2/spi_nor.o
                0x000000002ffec12c                spi_nor_read
 .text.spi_nor_init
                0x000000002ffec1e0      0x18c /home/charles/linux/code/tfa/mp157_alientek/tf-a-stm32mp-2.2.r1-r0/tf-a-stm32mp-2.2.r1/../build/optee/bl2/spi_nor.o
                0x000000002ffec1e0                spi_nor_init
 .text.fdt32_to_cpu
                0x000000002ffec36c        0x4 /home/charles/linux/code/tfa/mp157_alientek/tf-a-stm32mp-2.2.r1-r0/tf-a-stm32mp-2.2.r1/../build/optee/bl2/spi_mem.o
 .text.spi_mem_check_buswidth_req
                0x000000002ffec370       0x40 /home/charles/linux/code/tfa/mp157_alientek/tf-a-stm32mp-2.2.r1-r0/tf-a-stm32mp-2.2.r1/../build/optee/bl2/spi_mem.o
 .text.spi_mem_exec_op
                0x000000002ffec3b0       0x7c /home/charles/linux/code/tfa/mp157_alientek/tf-a-stm32mp-2.2.r1-r0/tf-a-stm32mp-2.2.r1/../build/optee/bl2/spi_mem.o
                0x000000002ffec3b0                spi_mem_exec_op
 .text.spi_mem_init_slave
                0x000000002ffec42c      0x1d8 /home/charles/linux/code/tfa/mp157_alientek/tf-a-stm32mp-2.2.r1-r0/tf-a-stm32mp-2.2.r1/../build/optee/bl2/spi_mem.o
                0x000000002ffec42c                spi_mem_init_slave
 .text.stm32_qspi_read_fifo
                0x000000002ffec604        0x6 /home/charles/linux/code/tfa/mp157_alientek/tf-a-stm32mp-2.2.r1-r0/tf-a-stm32mp-2.2.r1/../build/optee/bl2/stm32_qspi.o
 .text.stm32_qspi_write_fifo
                0x000000002ffec60a        0x6 /home/charles/linux/code/tfa/mp157_alientek/tf-a-stm32mp-2.2.r1-r0/tf-a-stm32mp-2.2.r1/../build/optee/bl2/stm32_qspi.o
 .text.stm32_qspi_claim_bus
                0x000000002ffec610       0x28 /home/charles/linux/code/tfa/mp157_alientek/tf-a-stm32mp-2.2.r1-r0/tf-a-stm32mp-2.2.r1/../build/optee/bl2/stm32_qspi.o
 .text.stm32_qspi_release_bus
                0x000000002ffec638       0x14 /home/charles/linux/code/tfa/mp157_alientek/tf-a-stm32mp-2.2.r1-r0/tf-a-stm32mp-2.2.r1/../build/optee/bl2/stm32_qspi.o
 .text.stm32_qspi_wait_for_not_busy
                0x000000002ffec64c       0x58 /home/charles/linux/code/tfa/mp157_alientek/tf-a-stm32mp-2.2.r1-r0/tf-a-stm32mp-2.2.r1/../build/optee/bl2/stm32_qspi.o
 .text.stm32_qspi_set_mode
                0x000000002ffec6a4       0x3c /home/charles/linux/code/tfa/mp157_alientek/tf-a-stm32mp-2.2.r1-r0/tf-a-stm32mp-2.2.r1/../build/optee/bl2/stm32_qspi.o
 .text.stm32_qspi_set_speed
                0x000000002ffec6e0       0x74 /home/charles/linux/code/tfa/mp157_alientek/tf-a-stm32mp-2.2.r1-r0/tf-a-stm32mp-2.2.r1/../build/optee/bl2/stm32_qspi.o
 .text.stm32_qspi_exec_op
                0x000000002ffec754      0x240 /home/charles/linux/code/tfa/mp157_alientek/tf-a-stm32mp-2.2.r1-r0/tf-a-stm32mp-2.2.r1/../build/optee/bl2/stm32_qspi.o
 .text.stm32_qspi_init
                0x000000002ffec994       0xcc /home/charles/linux/code/tfa/mp157_alientek/tf-a-stm32mp-2.2.r1-r0/tf-a-stm32mp-2.2.r1/../build/optee/bl2/stm32_qspi.o
                0x000000002ffec994                stm32_qspi_init
 .text.nand_read
                0x000000002ffeca60      0x118 /home/charles/linux/code/tfa/mp157_alientek/tf-a-stm32mp-2.2.r1-r0/tf-a-stm32mp-2.2.r1/../build/optee/bl2/core.o
                0x000000002ffeca60                nand_read
 .text.get_nand_device
                0x000000002ffecb78        0x8 /home/charles/linux/code/tfa/mp157_alientek/tf-a-stm32mp-2.2.r1-r0/tf-a-stm32mp-2.2.r1/../build/optee/bl2/core.o
                0x000000002ffecb78                get_nand_device
 .text.get_data_from_otp
                0x000000002ffecb80       0xe0 /home/charles/linux/code/tfa/mp157_alientek/tf-a-stm32mp-2.2.r1-r0/tf-a-stm32mp-2.2.r1/../build/optee/bl2/stm32mp1_boot_device.o
 .text.plat_get_raw_nand_data
                0x000000002ffecc60       0x10 /home/charles/linux/code/tfa/mp157_alientek/tf-a-stm32mp-2.2.r1-r0/tf-a-stm32mp-2.2.r1/../build/optee/bl2/stm32mp1_boot_device.o
                0x000000002ffecc60                plat_get_raw_nand_data
 .text.plat_get_spi_nand_data
                0x000000002ffecc70       0x32 /home/charles/linux/code/tfa/mp157_alientek/tf-a-stm32mp-2.2.r1-r0/tf-a-stm32mp-2.2.r1/../build/optee/bl2/stm32mp1_boot_device.o
                0x000000002ffecc70                plat_get_spi_nand_data
 .text.plat_get_nor_data
                0x000000002ffecca2       0x2c /home/charles/linux/code/tfa/mp157_alientek/tf-a-stm32mp-2.2.r1-r0/tf-a-stm32mp-2.2.r1/../build/optee/bl2/stm32mp1_boot_device.o
                0x000000002ffecca2                plat_get_nor_data
 *fill*         0x000000002ffeccce        0x2 
 .text.set_reg  0x000000002ffeccd0       0x54 /home/charles/linux/code/tfa/mp157_alientek/tf-a-stm32mp-2.2.r1-r0/tf-a-stm32mp-2.2.r1/../build/optee/bl2/stm32mp1_ddr.o
 .text.board_ddr_power_init
                0x000000002ffecd24       0x1a /home/charles/linux/code/tfa/mp157_alientek/tf-a-stm32mp-2.2.r1-r0/tf-a-stm32mp-2.2.r1/../build/optee/bl2/stm32mp1_ddr.o
 .text.stm32mp1_mode_register_write.isra.0
                0x000000002ffecd3e       0x22 /home/charles/linux/code/tfa/mp157_alientek/tf-a-stm32mp-2.2.r1-r0/tf-a-stm32mp-2.2.r1/../build/optee/bl2/stm32mp1_ddr.o
 .text.stm32mp1_wait_sw_done_ack
                0x000000002ffecd60       0x54 /home/charles/linux/code/tfa/mp157_alientek/tf-a-stm32mp-2.2.r1-r0/tf-a-stm32mp-2.2.r1/../build/optee/bl2/stm32mp1_ddr.o
 .text.stm32mp1_wait_operating_mode.isra.0
                0x000000002ffecdb4       0x6c /home/charles/linux/code/tfa/mp157_alientek/tf-a-stm32mp-2.2.r1-r0/tf-a-stm32mp-2.2.r1/../build/optee/bl2/stm32mp1_ddr.o
 .text.stm32mp1_ddrphy_idone_wait
                0x000000002ffece20       0x64 /home/charles/linux/code/tfa/mp157_alientek/tf-a-stm32mp-2.2.r1-r0/tf-a-stm32mp-2.2.r1/../build/optee/bl2/stm32mp1_ddr.o
 .text.stm32mp1_ddr_init
                0x000000002ffece84      0x4e0 /home/charles/linux/code/tfa/mp157_alientek/tf-a-stm32mp-2.2.r1-r0/tf-a-stm32mp-2.2.r1/../build/optee/bl2/stm32mp1_ddr.o
                0x000000002ffece84                stm32mp1_ddr_init
 .text.stm32mp1_ddr_setup
                0x000000002ffed364      0x36c /home/charles/linux/code/tfa/mp157_alientek/tf-a-stm32mp-2.2.r1-r0/tf-a-stm32mp-2.2.r1/../build/optee/bl2/stm32mp1_ram.o
 .text.stm32mp1_ddr_clk_enable
                0x000000002ffed6d0       0x44 /home/charles/linux/code/tfa/mp157_alientek/tf-a-stm32mp-2.2.r1-r0/tf-a-stm32mp-2.2.r1/../build/optee/bl2/stm32mp1_ram.o
                0x000000002ffed6d0                stm32mp1_ddr_clk_enable
 .text.stm32mp1_ddr_probe
                0x000000002ffed714       0x3c /home/charles/linux/code/tfa/mp157_alientek/tf-a-stm32mp-2.2.r1-r0/tf-a-stm32mp-2.2.r1/../build/optee/bl2/stm32mp1_ram.o
                0x000000002ffed714                stm32mp1_ddr_probe
 .text.flush_bl_params_desc_args
                0x000000002ffed750       0x34 /home/charles/linux/code/tfa/mp157_alientek/tf-a-stm32mp-2.2.r1-r0/tf-a-stm32mp-2.2.r1/../build/optee/bl2/desc_image_load.o
                0x000000002ffed750                flush_bl_params_desc_args
 .text.flush_bl_params_desc
                0x000000002ffed784       0x1c /home/charles/linux/code/tfa/mp157_alientek/tf-a-stm32mp-2.2.r1-r0/tf-a-stm32mp-2.2.r1/../build/optee/bl2/desc_image_load.o
                0x000000002ffed784                flush_bl_params_desc
 .text.get_bl_params_node_index
                0x000000002ffed7a0       0x40 /home/charles/linux/code/tfa/mp157_alientek/tf-a-stm32mp-2.2.r1-r0/tf-a-stm32mp-2.2.r1/../build/optee/bl2/desc_image_load.o
                0x000000002ffed7a0                get_bl_params_node_index
 .text.get_bl_mem_params_node
                0x000000002ffed7e0       0x30 /home/charles/linux/code/tfa/mp157_alientek/tf-a-stm32mp-2.2.r1-r0/tf-a-stm32mp-2.2.r1/../build/optee/bl2/desc_image_load.o
                0x000000002ffed7e0                get_bl_mem_params_node
 .text.get_bl_load_info_from_mem_params_desc
                0x000000002ffed810       0x54 /home/charles/linux/code/tfa/mp157_alientek/tf-a-stm32mp-2.2.r1-r0/tf-a-stm32mp-2.2.r1/../build/optee/bl2/desc_image_load.o
                0x000000002ffed810                get_bl_load_info_from_mem_params_desc
 .text.get_next_bl_params_from_mem_params_desc
                0x000000002ffed864       0xc0 /home/charles/linux/code/tfa/mp157_alientek/tf-a-stm32mp-2.2.r1-r0/tf-a-stm32mp-2.2.r1/../build/optee/bl2/desc_image_load.o
                0x000000002ffed864                get_next_bl_params_from_mem_params_desc
 .text.plat_flush_next_bl_params
                0x000000002ffed924        0x4 /home/charles/linux/code/tfa/mp157_alientek/tf-a-stm32mp-2.2.r1-r0/tf-a-stm32mp-2.2.r1/../build/optee/bl2/plat_image_load.o
                0x000000002ffed924                plat_flush_next_bl_params
 .text.plat_get_bl_image_load_info
                0x000000002ffed928       0xa4 /home/charles/linux/code/tfa/mp157_alientek/tf-a-stm32mp-2.2.r1-r0/tf-a-stm32mp-2.2.r1/../build/optee/bl2/plat_image_load.o
                0x000000002ffed928                plat_get_bl_image_load_info
 .text.plat_get_next_bl_params
                0x000000002ffed9cc        0x4 /home/charles/linux/code/tfa/mp157_alientek/tf-a-stm32mp-2.2.r1-r0/tf-a-stm32mp-2.2.r1/../build/optee/bl2/plat_image_load.o
                0x000000002ffed9cc                plat_get_next_bl_params
 .text.tee_validate_header
                0x000000002ffed9d0       0x30 /home/charles/linux/code/tfa/mp157_alientek/tf-a-stm32mp-2.2.r1-r0/tf-a-stm32mp-2.2.r1/../build/optee/bl2/optee_utils.o
 .text.parse_optee_image
                0x000000002ffeda00       0x5c /home/charles/linux/code/tfa/mp157_alientek/tf-a-stm32mp-2.2.r1-r0/tf-a-stm32mp-2.2.r1/../build/optee/bl2/optee_utils.o
 .text.get_optee_header_ep
                0x000000002ffeda5c       0x44 /home/charles/linux/code/tfa/mp157_alientek/tf-a-stm32mp-2.2.r1-r0/tf-a-stm32mp-2.2.r1/../build/optee/bl2/optee_utils.o
                0x000000002ffeda5c                get_optee_header_ep
 .text.parse_optee_header
                0x000000002ffedaa0       0xf4 /home/charles/linux/code/tfa/mp157_alientek/tf-a-stm32mp-2.2.r1-r0/tf-a-stm32mp-2.2.r1/../build/optee/bl2/optee_utils.o
                0x000000002ffedaa0                parse_optee_header
 .text.bl2_load_images
                0x000000002ffedb94      0x110 /home/charles/linux/code/tfa/mp157_alientek/tf-a-stm32mp-2.2.r1-r0/tf-a-stm32mp-2.2.r1/../build/optee/bl2/bl2_image_load_v2.o
                0x000000002ffedb94                bl2_load_images
 .text.bl2_el3_setup
                0x000000002ffedca4        0xe /home/charles/linux/code/tfa/mp157_alientek/tf-a-stm32mp-2.2.r1-r0/tf-a-stm32mp-2.2.r1/../build/optee/bl2/bl2_main.o
                0x000000002ffedca4                bl2_el3_setup
 *fill*         0x000000002ffedcb2        0x2 
 .text.bl2_main
                0x000000002ffedcb4       0x50 /home/charles/linux/code/tfa/mp157_alientek/tf-a-stm32mp-2.2.r1-r0/tf-a-stm32mp-2.2.r1/../build/optee/bl2/bl2_main.o
                0x000000002ffedcb4                bl2_main
 .text.bl2_arch_setup
                0x000000002ffedd04        0x2 /home/charles/linux/code/tfa/mp157_alientek/tf-a-stm32mp-2.2.r1-r0/tf-a-stm32mp-2.2.r1/../build/optee/bl2/bl2_arch_setup.o
                0x000000002ffedd04                bl2_arch_setup
 *fill*         0x000000002ffedd06        0x2 
 .text.load_auth_image_internal
                0x000000002ffedd08      0x138 /home/charles/linux/code/tfa/mp157_alientek/tf-a-stm32mp-2.2.r1-r0/tf-a-stm32mp-2.2.r1/../build/optee/bl2/bl_common.o
 .text.load_auth_image
                0x000000002ffede40       0x22 /home/charles/linux/code/tfa/mp157_alientek/tf-a-stm32mp-2.2.r1-r0/tf-a-stm32mp-2.2.r1/../build/optee/bl2/bl_common.o
                0x000000002ffede40                load_auth_image
 *fill*         0x000000002ffede62        0x2 
 .text.print_entry_point_info
                0x000000002ffede64       0x20 /home/charles/linux/code/tfa/mp157_alientek/tf-a-stm32mp-2.2.r1-r0/tf-a-stm32mp-2.2.r1/../build/optee/bl2/bl_common.o
                0x000000002ffede64                print_entry_point_info
 .text.tf_log   0x000000002ffede84       0x5c /home/charles/linux/code/tfa/mp157_alientek/tf-a-stm32mp-2.2.r1-r0/tf-a-stm32mp-2.2.r1/../build/optee/bl2/tf_log.o
                0x000000002ffede84                tf_log
 .text.console_is_registered
                0x000000002ffedee0       0x2c /home/charles/linux/code/tfa/mp157_alientek/tf-a-stm32mp-2.2.r1-r0/tf-a-stm32mp-2.2.r1/../build/optee/bl2/multi_console.o
                0x000000002ffedee0                console_is_registered
 .text.console_register
                0x000000002ffedf0c       0x40 /home/charles/linux/code/tfa/mp157_alientek/tf-a-stm32mp-2.2.r1-r0/tf-a-stm32mp-2.2.r1/../build/optee/bl2/multi_console.o
                0x000000002ffedf0c                console_register
 .text.console_set_scope
                0x000000002ffedf4c       0x1c /home/charles/linux/code/tfa/mp157_alientek/tf-a-stm32mp-2.2.r1-r0/tf-a-stm32mp-2.2.r1/../build/optee/bl2/multi_console.o
                0x000000002ffedf4c                console_set_scope
 .text.console_putc
                0x000000002ffedf68       0x58 /home/charles/linux/code/tfa/mp157_alientek/tf-a-stm32mp-2.2.r1-r0/tf-a-stm32mp-2.2.r1/../build/optee/bl2/multi_console.o
                0x000000002ffedf68                console_putc
 .text.console_flush
                0x000000002ffedfc0       0x40 /home/charles/linux/code/tfa/mp157_alientek/tf-a-stm32mp-2.2.r1-r0/tf-a-stm32mp-2.2.r1/../build/optee/bl2/multi_console.o
                0x000000002ffedfc0                console_flush
 .text.bl2_el3_plat_prepare_exit
                0x000000002ffee000        0x2 /home/charles/linux/code/tfa/mp157_alientek/tf-a-stm32mp-2.2.r1-r0/tf-a-stm32mp-2.2.r1/../build/optee/bl2/plat_bl_common.o
                0x000000002ffee000                bl2_el3_plat_prepare_exit
 .text.plat_error_handler
                0x000000002ffee002        0x4 /home/charles/linux/code/tfa/mp157_alientek/tf-a-stm32mp-2.2.r1-r0/tf-a-stm32mp-2.2.r1/../build/optee/bl2/plat_bl_common.o
                0x000000002ffee002                plat_error_handler
 .text.bl2_plat_preload_setup
                0x000000002ffee006        0x2 /home/charles/linux/code/tfa/mp157_alientek/tf-a-stm32mp-2.2.r1-r0/tf-a-stm32mp-2.2.r1/../build/optee/bl2/plat_bl_common.o
                0x000000002ffee006                bl2_plat_preload_setup
 .text.bl2_plat_handle_pre_image_load
                0x000000002ffee008        0x4 /home/charles/linux/code/tfa/mp157_alientek/tf-a-stm32mp-2.2.r1-r0/tf-a-stm32mp-2.2.r1/../build/optee/bl2/plat_bl_common.o
                0x000000002ffee008                bl2_plat_handle_pre_image_load
 .text.plat_log_get_prefix
                0x000000002ffee00c       0x24 /home/charles/linux/code/tfa/mp157_alientek/tf-a-stm32mp-2.2.r1-r0/tf-a-stm32mp-2.2.r1/../build/optee/bl2/plat_log_common.o
                0x000000002ffee00c                plat_log_get_prefix
 .text.__popcountsi2
                0x000000002ffee030       0x2a /home/charles/linux/code/tfa/mp157_alientek/tf-a-stm32mp-2.2.r1-r0/tf-a-stm32mp-2.2.r1/../build/optee/bl2/popcountsi2.o
                0x000000002ffee030                __popcountsi2
 .text.__ctzdi2
                0x000000002ffee05a       0x20 /home/charles/linux/code/tfa/mp157_alientek/tf-a-stm32mp-2.2.r1-r0/tf-a-stm32mp-2.2.r1/../build/optee/bl2/ctzdi2.o
                0x000000002ffee05a                __ctzdi2
 .text.__udivmoddi4
                0x000000002ffee07a      0x19e /home/charles/linux/code/tfa/mp157_alientek/tf-a-stm32mp-2.2.r1-r0/tf-a-stm32mp-2.2.r1/../build/optee/bl2/udivmoddi4.o
                0x000000002ffee07a                __udivmoddi4
 .text.plat_get_syscnt_freq2
                0x000000002ffee218        0x6 /home/charles/linux/code/tfa/mp157_alientek/tf-a-stm32mp-2.2.r1-r0/tf-a-stm32mp-2.2.r1/../build/optee/bl2/stm32mp_common.o
                0x000000002ffee218                plat_get_syscnt_freq2
 *fill*         0x000000002ffee21e        0x2 
 .text.stm32mp_save_boot_ctx_address
                0x000000002ffee220        0xc /home/charles/linux/code/tfa/mp157_alientek/tf-a-stm32mp-2.2.r1-r0/tf-a-stm32mp-2.2.r1/../build/optee/bl2/stm32mp_common.o
                0x000000002ffee220                stm32mp_save_boot_ctx_address
 .text.stm32mp_get_boot_ctx_address
                0x000000002ffee22c        0xc /home/charles/linux/code/tfa/mp157_alientek/tf-a-stm32mp-2.2.r1-r0/tf-a-stm32mp-2.2.r1/../build/optee/bl2/stm32mp_common.o
                0x000000002ffee22c                stm32mp_get_boot_ctx_address
 .text.stm32mp_ddrctrl_base
                0x000000002ffee238        0x8 /home/charles/linux/code/tfa/mp157_alientek/tf-a-stm32mp-2.2.r1-r0/tf-a-stm32mp-2.2.r1/../build/optee/bl2/stm32mp_common.o
                0x000000002ffee238                stm32mp_ddrctrl_base
 .text.stm32mp_ddrphyc_base
                0x000000002ffee240        0x8 /home/charles/linux/code/tfa/mp157_alientek/tf-a-stm32mp-2.2.r1-r0/tf-a-stm32mp-2.2.r1/../build/optee/bl2/stm32mp_common.o
                0x000000002ffee240                stm32mp_ddrphyc_base
 .text.stm32mp_pwr_base
                0x000000002ffee248        0x8 /home/charles/linux/code/tfa/mp157_alientek/tf-a-stm32mp-2.2.r1-r0/tf-a-stm32mp-2.2.r1/../build/optee/bl2/stm32mp_common.o
                0x000000002ffee248                stm32mp_pwr_base
 .text.stm32mp_rcc_base
                0x000000002ffee250        0x6 /home/charles/linux/code/tfa/mp157_alientek/tf-a-stm32mp-2.2.r1-r0/tf-a-stm32mp-2.2.r1/../build/optee/bl2/stm32mp_common.o
                0x000000002ffee250                stm32mp_rcc_base
 .text.stm32mp_lock_available
                0x000000002ffee256       0x10 /home/charles/linux/code/tfa/mp157_alientek/tf-a-stm32mp-2.2.r1-r0/tf-a-stm32mp-2.2.r1/../build/optee/bl2/stm32mp_common.o
                0x000000002ffee256                stm32mp_lock_available
 *fill*         0x000000002ffee266        0x2 
 .text.stm32_get_gpio_bank_base
                0x000000002ffee268       0x28 /home/charles/linux/code/tfa/mp157_alientek/tf-a-stm32mp-2.2.r1-r0/tf-a-stm32mp-2.2.r1/../build/optee/bl2/stm32mp_common.o
                0x000000002ffee268                stm32_get_gpio_bank_base
 .text.stm32_get_gpio_bank_offset
                0x000000002ffee290       0x20 /home/charles/linux/code/tfa/mp157_alientek/tf-a-stm32mp-2.2.r1-r0/tf-a-stm32mp-2.2.r1/../build/optee/bl2/stm32mp_common.o
                0x000000002ffee290                stm32_get_gpio_bank_offset
 .text.stm32mp_check_header
                0x000000002ffee2b0       0xc0 /home/charles/linux/code/tfa/mp157_alientek/tf-a-stm32mp-2.2.r1-r0/tf-a-stm32mp-2.2.r1/../build/optee/bl2/stm32mp_common.o
                0x000000002ffee2b0                stm32mp_check_header
 .text.stm32mp_get_cpu_supply_name
                0x000000002ffee370       0x2e /home/charles/linux/code/tfa/mp157_alientek/tf-a-stm32mp-2.2.r1-r0/tf-a-stm32mp-2.2.r1/../build/optee/bl2/stm32mp_common.o
                0x000000002ffee370                stm32mp_get_cpu_supply_name
 *fill*         0x000000002ffee39e        0x2 
 .text.stm32mp_save_loaded_header
                0x000000002ffee3a0       0x1c /home/charles/linux/code/tfa/mp157_alientek/tf-a-stm32mp-2.2.r1-r0/tf-a-stm32mp-2.2.r1/../build/optee/bl2/stm32mp_common.o
                0x000000002ffee3a0                stm32mp_save_loaded_header
 .text.stm32mp_delete_loaded_header
                0x000000002ffee3bc       0x1c /home/charles/linux/code/tfa/mp157_alientek/tf-a-stm32mp-2.2.r1-r0/tf-a-stm32mp-2.2.r1/../build/optee/bl2/stm32mp_common.o
                0x000000002ffee3bc                stm32mp_delete_loaded_header
 .text.stm32mp_get_loaded_header
                0x000000002ffee3d8       0x1c /home/charles/linux/code/tfa/mp157_alientek/tf-a-stm32mp-2.2.r1-r0/tf-a-stm32mp-2.2.r1/../build/optee/bl2/stm32mp_common.o
                0x000000002ffee3d8                stm32mp_get_loaded_header
 .text.configure_mmu
                0x000000002ffee3f4       0x1c /home/charles/linux/code/tfa/mp157_alientek/tf-a-stm32mp-2.2.r1-r0/tf-a-stm32mp-2.2.r1/../build/optee/bl2/stm32mp1_private.o
                0x000000002ffee3f4                configure_mmu
 .text.stm32_get_gpio_bank_clock
                0x000000002ffee410       0x20 /home/charles/linux/code/tfa/mp157_alientek/tf-a-stm32mp-2.2.r1-r0/tf-a-stm32mp-2.2.r1/../build/optee/bl2/stm32mp1_private.o
                0x000000002ffee410                stm32_get_gpio_bank_clock
 .text.stm32_get_otp_index
                0x000000002ffee430       0x28 /home/charles/linux/code/tfa/mp157_alientek/tf-a-stm32mp-2.2.r1-r0/tf-a-stm32mp-2.2.r1/../build/optee/bl2/stm32mp1_private.o
                0x000000002ffee430                stm32_get_otp_index
 .text.stm32_get_otp_value_from_idx
                0x000000002ffee458       0x30 /home/charles/linux/code/tfa/mp157_alientek/tf-a-stm32mp-2.2.r1-r0/tf-a-stm32mp-2.2.r1/../build/optee/bl2/stm32mp1_private.o
                0x000000002ffee458                stm32_get_otp_value_from_idx
 .text.stm32_get_otp_value
                0x000000002ffee488       0x48 /home/charles/linux/code/tfa/mp157_alientek/tf-a-stm32mp-2.2.r1-r0/tf-a-stm32mp-2.2.r1/../build/optee/bl2/stm32mp1_private.o
                0x000000002ffee488                stm32_get_otp_value
 .text.get_part_number
                0x000000002ffee4d0       0x4c /home/charles/linux/code/tfa/mp157_alientek/tf-a-stm32mp-2.2.r1-r0/tf-a-stm32mp-2.2.r1/../build/optee/bl2/stm32mp1_private.o
 .text.stm32mp_supports_cpu_opp
                0x000000002ffee51c       0x40 /home/charles/linux/code/tfa/mp157_alientek/tf-a-stm32mp-2.2.r1-r0/tf-a-stm32mp-2.2.r1/../build/optee/bl2/stm32mp1_private.o
                0x000000002ffee51c                stm32mp_supports_cpu_opp
 .text.stm32mp_print_cpuinfo
                0x000000002ffee55c      0x15c /home/charles/linux/code/tfa/mp157_alientek/tf-a-stm32mp-2.2.r1-r0/tf-a-stm32mp-2.2.r1/../build/optee/bl2/stm32mp1_private.o
                0x000000002ffee55c                stm32mp_print_cpuinfo
 .text.stm32mp_print_boardinfo
                0x000000002ffee6b8       0x4c /home/charles/linux/code/tfa/mp157_alientek/tf-a-stm32mp-2.2.r1-r0/tf-a-stm32mp-2.2.r1/../build/optee/bl2/stm32mp1_private.o
                0x000000002ffee6b8                stm32mp_print_boardinfo
 .text.stm32mp_is_closed_device
                0x000000002ffee704       0x24 /home/charles/linux/code/tfa/mp157_alientek/tf-a-stm32mp-2.2.r1-r0/tf-a-stm32mp-2.2.r1/../build/optee/bl2/stm32mp1_private.o
                0x000000002ffee704                stm32mp_is_closed_device
 .text.stm32mp_is_auth_supported
                0x000000002ffee728       0x40 /home/charles/linux/code/tfa/mp157_alientek/tf-a-stm32mp-2.2.r1-r0/tf-a-stm32mp-2.2.r1/../build/optee/bl2/stm32mp1_private.o
                0x000000002ffee728                stm32mp_is_auth_supported
 .text.stm32_iwdg_get_instance
                0x000000002ffee768       0x28 /home/charles/linux/code/tfa/mp157_alientek/tf-a-stm32mp-2.2.r1-r0/tf-a-stm32mp-2.2.r1/../build/optee/bl2/stm32mp1_private.o
                0x000000002ffee768                stm32_iwdg_get_instance
 .text.stm32_iwdg_get_otp_config
                0x000000002ffee790       0x50 /home/charles/linux/code/tfa/mp157_alientek/tf-a-stm32mp-2.2.r1-r0/tf-a-stm32mp-2.2.r1/../build/optee/bl2/stm32mp1_private.o
                0x000000002ffee790                stm32_iwdg_get_otp_config
 .text.stm32_iwdg_shadow_update
                0x000000002ffee7e0       0x74 /home/charles/linux/code/tfa/mp157_alientek/tf-a-stm32mp-2.2.r1-r0/tf-a-stm32mp-2.2.r1/../build/optee/bl2/stm32mp1_private.o
                0x000000002ffee7e0                stm32_iwdg_shadow_update
 .text.plat_bind_regulator
                0x000000002ffee854       0x50 /home/charles/linux/code/tfa/mp157_alientek/tf-a-stm32mp-2.2.r1-r0/tf-a-stm32mp-2.2.r1/../build/optee/bl2/stm32mp1_private.o
                0x000000002ffee854                plat_bind_regulator
 .text.xlat_arch_get_max_supported_pa
                0x000000002ffee8a4        0x8 /home/charles/linux/code/tfa/mp157_alientek/tf-a-stm32mp-2.2.r1-r0/tf-a-stm32mp-2.2.r1/../build/optee/bl2/xlat_tables_arch.o
                0x000000002ffee8a4                xlat_arch_get_max_supported_pa
 .text.xlat_get_min_virt_addr_space_size
                0x000000002ffee8ac        0x6 /home/charles/linux/code/tfa/mp157_alientek/tf-a-stm32mp-2.2.r1-r0/tf-a-stm32mp-2.2.r1/../build/optee/bl2/xlat_tables_arch.o
                0x000000002ffee8ac                xlat_get_min_virt_addr_space_size
 .text.is_dcache_enabled
                0x000000002ffee8b2       0x1c /home/charles/linux/code/tfa/mp157_alientek/tf-a-stm32mp-2.2.r1-r0/tf-a-stm32mp-2.2.r1/../build/optee/bl2/xlat_tables_arch.o
                0x000000002ffee8b2                is_dcache_enabled
 *fill*         0x000000002ffee8ce        0x2 
 .text.xlat_arch_regime_get_xn_desc
                0x000000002ffee8d0       0x28 /home/charles/linux/code/tfa/mp157_alientek/tf-a-stm32mp-2.2.r1-r0/tf-a-stm32mp-2.2.r1/../build/optee/bl2/xlat_tables_arch.o
                0x000000002ffee8d0                xlat_arch_regime_get_xn_desc
 .text.xlat_arch_tlbi_va
                0x000000002ffee8f8       0x30 /home/charles/linux/code/tfa/mp157_alientek/tf-a-stm32mp-2.2.r1-r0/tf-a-stm32mp-2.2.r1/../build/optee/bl2/xlat_tables_arch.o
                0x000000002ffee8f8                xlat_arch_tlbi_va
 .text.xlat_arch_tlbi_va_sync
                0x000000002ffee928       0x10 /home/charles/linux/code/tfa/mp157_alientek/tf-a-stm32mp-2.2.r1-r0/tf-a-stm32mp-2.2.r1/../build/optee/bl2/xlat_tables_arch.o
                0x000000002ffee928                xlat_arch_tlbi_va_sync
 .text.xlat_arch_current_el
                0x000000002ffee938       0x3c /home/charles/linux/code/tfa/mp157_alientek/tf-a-stm32mp-2.2.r1-r0/tf-a-stm32mp-2.2.r1/../build/optee/bl2/xlat_tables_arch.o
                0x000000002ffee938                xlat_arch_current_el
 .text.is_mmu_enabled_ctx
                0x000000002ffee974       0x40 /home/charles/linux/code/tfa/mp157_alientek/tf-a-stm32mp-2.2.r1-r0/tf-a-stm32mp-2.2.r1/../build/optee/bl2/xlat_tables_arch.o
                0x000000002ffee974                is_mmu_enabled_ctx
 .text.setup_mmu_cfg
                0x000000002ffee9b4       0xac /home/charles/linux/code/tfa/mp157_alientek/tf-a-stm32mp-2.2.r1-r0/tf-a-stm32mp-2.2.r1/../build/optee/bl2/xlat_tables_arch.o
                0x000000002ffee9b4                setup_mmu_cfg
 .text.mmap_add_region
                0x000000002ffeea60       0x28 /home/charles/linux/code/tfa/mp157_alientek/tf-a-stm32mp-2.2.r1-r0/tf-a-stm32mp-2.2.r1/../build/optee/bl2/xlat_tables_context.o
                0x000000002ffeea60                mmap_add_region
 .text.mmap_add
                0x000000002ffeea88        0xc /home/charles/linux/code/tfa/mp157_alientek/tf-a-stm32mp-2.2.r1-r0/tf-a-stm32mp-2.2.r1/../build/optee/bl2/xlat_tables_context.o
                0x000000002ffeea88                mmap_add
 .text.mmap_add_dynamic_region
                0x000000002ffeea94       0x28 /home/charles/linux/code/tfa/mp157_alientek/tf-a-stm32mp-2.2.r1-r0/tf-a-stm32mp-2.2.r1/../build/optee/bl2/xlat_tables_context.o
                0x000000002ffeea94                mmap_add_dynamic_region
 .text.mmap_remove_dynamic_region
                0x000000002ffeeabc       0x10 /home/charles/linux/code/tfa/mp157_alientek/tf-a-stm32mp-2.2.r1-r0/tf-a-stm32mp-2.2.r1/../build/optee/bl2/xlat_tables_context.o
                0x000000002ffeeabc                mmap_remove_dynamic_region
 .text.init_xlat_tables
                0x000000002ffeeacc       0x3c /home/charles/linux/code/tfa/mp157_alientek/tf-a-stm32mp-2.2.r1-r0/tf-a-stm32mp-2.2.r1/../build/optee/bl2/xlat_tables_context.o
                0x000000002ffeeacc                init_xlat_tables
 .text.enable_mmu_svc_mon
                0x000000002ffeeb08       0x34 /home/charles/linux/code/tfa/mp157_alientek/tf-a-stm32mp-2.2.r1-r0/tf-a-stm32mp-2.2.r1/../build/optee/bl2/xlat_tables_context.o
                0x000000002ffeeb08                enable_mmu_svc_mon
 .text.mmap_add_region_check
                0x000000002ffeeb3c      0x158 /home/charles/linux/code/tfa/mp157_alientek/tf-a-stm32mp-2.2.r1-r0/tf-a-stm32mp-2.2.r1/../build/optee/bl2/xlat_tables_core.o
 .text.xlat_clean_dcache_range
                0x000000002ffeec94       0x1a /home/charles/linux/code/tfa/mp157_alientek/tf-a-stm32mp-2.2.r1-r0/tf-a-stm32mp-2.2.r1/../build/optee/bl2/xlat_tables_core.o
 *fill*         0x000000002ffeecae        0x2 
 .text.xlat_table_get_index
                0x000000002ffeecb0       0x28 /home/charles/linux/code/tfa/mp157_alientek/tf-a-stm32mp-2.2.r1-r0/tf-a-stm32mp-2.2.r1/../build/optee/bl2/xlat_tables_core.o
 .text.xlat_tables_unmap_region
                0x000000002ffeecd8      0x158 /home/charles/linux/code/tfa/mp157_alientek/tf-a-stm32mp-2.2.r1-r0/tf-a-stm32mp-2.2.r1/../build/optee/bl2/xlat_tables_core.o
 .text.xlat_desc
                0x000000002ffeee30       0xb4 /home/charles/linux/code/tfa/mp157_alientek/tf-a-stm32mp-2.2.r1-r0/tf-a-stm32mp-2.2.r1/../build/optee/bl2/xlat_tables_core.o
                0x000000002ffeee30                xlat_desc
 .text.xlat_tables_map_region
                0x000000002ffeeee4      0x1b4 /home/charles/linux/code/tfa/mp157_alientek/tf-a-stm32mp-2.2.r1-r0/tf-a-stm32mp-2.2.r1/../build/optee/bl2/xlat_tables_core.o
 .text.mmap_add_region_ctx
                0x000000002ffef098       0xf0 /home/charles/linux/code/tfa/mp157_alientek/tf-a-stm32mp-2.2.r1-r0/tf-a-stm32mp-2.2.r1/../build/optee/bl2/xlat_tables_core.o
                0x000000002ffef098                mmap_add_region_ctx
 .text.mmap_add_ctx
                0x000000002ffef188       0x18 /home/charles/linux/code/tfa/mp157_alientek/tf-a-stm32mp-2.2.r1-r0/tf-a-stm32mp-2.2.r1/../build/optee/bl2/xlat_tables_core.o
                0x000000002ffef188                mmap_add_ctx
 .text.mmap_add_dynamic_region_ctx
                0x000000002ffef1a0      0x168 /home/charles/linux/code/tfa/mp157_alientek/tf-a-stm32mp-2.2.r1-r0/tf-a-stm32mp-2.2.r1/../build/optee/bl2/xlat_tables_core.o
                0x000000002ffef1a0                mmap_add_dynamic_region_ctx
 .text.mmap_remove_dynamic_region_ctx
                0x000000002ffef308      0x10c /home/charles/linux/code/tfa/mp157_alientek/tf-a-stm32mp-2.2.r1-r0/tf-a-stm32mp-2.2.r1/../build/optee/bl2/xlat_tables_core.o
                0x000000002ffef308                mmap_remove_dynamic_region_ctx
 .text.init_xlat_tables_ctx
                0x000000002ffef414      0x154 /home/charles/linux/code/tfa/mp157_alientek/tf-a-stm32mp-2.2.r1-r0/tf-a-stm32mp-2.2.r1/../build/optee/bl2/xlat_tables_core.o
                0x000000002ffef414                init_xlat_tables_ctx
 .text.xlat_mmap_print
                0x000000002ffef568        0x2 /home/charles/linux/code/tfa/mp157_alientek/tf-a-stm32mp-2.2.r1-r0/tf-a-stm32mp-2.2.r1/../build/optee/bl2/xlat_tables_utils.o
                0x000000002ffef568                xlat_mmap_print
 .text.xlat_tables_print
                0x000000002ffef56a        0x2 /home/charles/linux/code/tfa/mp157_alientek/tf-a-stm32mp-2.2.r1-r0/tf-a-stm32mp-2.2.r1/../build/optee/bl2/xlat_tables_utils.o
                0x000000002ffef56a                xlat_tables_print
 .text.tzc400_set_action
                0x000000002ffef56c       0x24 /home/charles/linux/code/tfa/mp157_alientek/tf-a-stm32mp-2.2.r1-r0/tf-a-stm32mp-2.2.r1/../build/optee/bl2/tzc400.o
                0x000000002ffef56c                tzc400_set_action
 .text.tzc400_init
                0x000000002ffef590       0x5c /home/charles/linux/code/tfa/mp157_alientek/tf-a-stm32mp-2.2.r1-r0/tf-a-stm32mp-2.2.r1/../build/optee/bl2/tzc400.o
                0x000000002ffef590                tzc400_init
 .text.tzc400_configure_region
                0x000000002ffef5ec       0xbc /home/charles/linux/code/tfa/mp157_alientek/tf-a-stm32mp-2.2.r1-r0/tf-a-stm32mp-2.2.r1/../build/optee/bl2/tzc400.o
                0x000000002ffef5ec                tzc400_configure_region
 .text.tzc400_enable_filters
                0x000000002ffef6a8       0x68 /home/charles/linux/code/tfa/mp157_alientek/tf-a-stm32mp-2.2.r1-r0/tf-a-stm32mp-2.2.r1/../build/optee/bl2/tzc400.o
                0x000000002ffef6a8                tzc400_enable_filters
 .text.tzc400_disable_filters
                0x000000002ffef710       0x4c /home/charles/linux/code/tfa/mp157_alientek/tf-a-stm32mp-2.2.r1-r0/tf-a-stm32mp-2.2.r1/../build/optee/bl2/tzc400.o
                0x000000002ffef710                tzc400_disable_filters
 .text.udelay   0x000000002ffef75c       0x5c /home/charles/linux/code/tfa/mp157_alientek/tf-a-stm32mp-2.2.r1-r0/tf-a-stm32mp-2.2.r1/../build/optee/bl2/delay_timer.o
                0x000000002ffef75c                udelay
 .text.mdelay   0x000000002ffef7b8        0xa /home/charles/linux/code/tfa/mp157_alientek/tf-a-stm32mp-2.2.r1-r0/tf-a-stm32mp-2.2.r1/../build/optee/bl2/delay_timer.o
                0x000000002ffef7b8                mdelay
 *fill*         0x000000002ffef7c2        0x2 
 .text.timer_init
                0x000000002ffef7c4       0x28 /home/charles/linux/code/tfa/mp157_alientek/tf-a-stm32mp-2.2.r1-r0/tf-a-stm32mp-2.2.r1/../build/optee/bl2/delay_timer.o
                0x000000002ffef7c4                timer_init
 .text.get_timer_value
                0x000000002ffef7ec        0x8 /home/charles/linux/code/tfa/mp157_alientek/tf-a-stm32mp-2.2.r1-r0/tf-a-stm32mp-2.2.r1/../build/optee/bl2/generic_delay_timer.o
 .text.generic_delay_timer_init_args
                0x000000002ffef7f4       0x18 /home/charles/linux/code/tfa/mp157_alientek/tf-a-stm32mp-2.2.r1-r0/tf-a-stm32mp-2.2.r1/../build/optee/bl2/generic_delay_timer.o
                0x000000002ffef7f4                generic_delay_timer_init_args
 .text.generic_delay_timer_init
                0x000000002ffef80c       0x44 /home/charles/linux/code/tfa/mp157_alientek/tf-a-stm32mp-2.2.r1-r0/tf-a-stm32mp-2.2.r1/../build/optee/bl2/generic_delay_timer.o
                0x000000002ffef80c                generic_delay_timer_init
 .text.bsec_lock
                0x000000002ffef850       0x18 /home/charles/linux/code/tfa/mp157_alientek/tf-a-stm32mp-2.2.r1-r0/tf-a-stm32mp-2.2.r1/../build/optee/bl2/bsec2.o
 .text.bsec_unlock
                0x000000002ffef868       0x18 /home/charles/linux/code/tfa/mp157_alientek/tf-a-stm32mp-2.2.r1-r0/tf-a-stm32mp-2.2.r1/../build/optee/bl2/bsec2.o
 .text.otp_bank_offset
                0x000000002ffef880       0x18 /home/charles/linux/code/tfa/mp157_alientek/tf-a-stm32mp-2.2.r1-r0/tf-a-stm32mp-2.2.r1/../build/optee/bl2/bsec2.o
 .text.bsec_check_error
                0x000000002ffef898       0x34 /home/charles/linux/code/tfa/mp157_alientek/tf-a-stm32mp-2.2.r1-r0/tf-a-stm32mp-2.2.r1/../build/optee/bl2/bsec2.o
 .text.bsec_find_otp_name_in_dt
                0x000000002ffef8cc      0x104 /home/charles/linux/code/tfa/mp157_alientek/tf-a-stm32mp-2.2.r1-r0/tf-a-stm32mp-2.2.r1/../build/optee/bl2/bsec2.o
                0x000000002ffef8cc                bsec_find_otp_name_in_dt
 .text.bsec_read_otp
                0x000000002ffef9d0       0x20 /home/charles/linux/code/tfa/mp157_alientek/tf-a-stm32mp-2.2.r1-r0/tf-a-stm32mp-2.2.r1/../build/optee/bl2/bsec2.o
                0x000000002ffef9d0                bsec_read_otp
 .text.bsec_read_debug_conf
                0x000000002ffef9f0        0xc /home/charles/linux/code/tfa/mp157_alientek/tf-a-stm32mp-2.2.r1-r0/tf-a-stm32mp-2.2.r1/../build/optee/bl2/bsec2.o
                0x000000002ffef9f0                bsec_read_debug_conf
 .text.bsec_get_status
                0x000000002ffef9fc        0xc /home/charles/linux/code/tfa/mp157_alientek/tf-a-stm32mp-2.2.r1-r0/tf-a-stm32mp-2.2.r1/../build/optee/bl2/bsec2.o
                0x000000002ffef9fc                bsec_get_status
 .text.bsec_power_safmem
                0x000000002ffefa08       0x64 /home/charles/linux/code/tfa/mp157_alientek/tf-a-stm32mp-2.2.r1-r0/tf-a-stm32mp-2.2.r1/../build/optee/bl2/bsec2.o
 .text.bsec_get_version
                0x000000002ffefa6c       0x10 /home/charles/linux/code/tfa/mp157_alientek/tf-a-stm32mp-2.2.r1-r0/tf-a-stm32mp-2.2.r1/../build/optee/bl2/bsec2.o
                0x000000002ffefa6c                bsec_get_version
 .text.bsec_get_id
                0x000000002ffefa7c       0x10 /home/charles/linux/code/tfa/mp157_alientek/tf-a-stm32mp-2.2.r1-r0/tf-a-stm32mp-2.2.r1/../build/optee/bl2/bsec2.o
                0x000000002ffefa7c                bsec_get_id
 .text.bsec_probe
                0x000000002ffefa8c       0x50 /home/charles/linux/code/tfa/mp157_alientek/tf-a-stm32mp-2.2.r1-r0/tf-a-stm32mp-2.2.r1/../build/optee/bl2/bsec2.o
                0x000000002ffefa8c                bsec_probe
 .text.bsec_set_sr_lock
                0x000000002ffefadc       0x38 /home/charles/linux/code/tfa/mp157_alientek/tf-a-stm32mp-2.2.r1-r0/tf-a-stm32mp-2.2.r1/../build/optee/bl2/bsec2.o
                0x000000002ffefadc                bsec_set_sr_lock
 .text.bsec_read_sr_lock
                0x000000002ffefb14       0x38 /home/charles/linux/code/tfa/mp157_alientek/tf-a-stm32mp-2.2.r1-r0/tf-a-stm32mp-2.2.r1/../build/optee/bl2/bsec2.o
                0x000000002ffefb14                bsec_read_sr_lock
 .text.bsec_shadow_register
                0x000000002ffefb4c       0x7c /home/charles/linux/code/tfa/mp157_alientek/tf-a-stm32mp-2.2.r1-r0/tf-a-stm32mp-2.2.r1/../build/optee/bl2/bsec2.o
                0x000000002ffefb4c                bsec_shadow_register
 .text.bsec_set_sw_lock
                0x000000002ffefbc8       0x38 /home/charles/linux/code/tfa/mp157_alientek/tf-a-stm32mp-2.2.r1-r0/tf-a-stm32mp-2.2.r1/../build/optee/bl2/bsec2.o
                0x000000002ffefbc8                bsec_set_sw_lock
 .text.bsec_read_sw_lock
                0x000000002ffefc00       0x38 /home/charles/linux/code/tfa/mp157_alientek/tf-a-stm32mp-2.2.r1-r0/tf-a-stm32mp-2.2.r1/../build/optee/bl2/bsec2.o
                0x000000002ffefc00                bsec_read_sw_lock
 .text.bsec_write_otp
                0x000000002ffefc38       0x44 /home/charles/linux/code/tfa/mp157_alientek/tf-a-stm32mp-2.2.r1-r0/tf-a-stm32mp-2.2.r1/../build/optee/bl2/bsec2.o
                0x000000002ffefc38                bsec_write_otp
 .text.bsec_read_sp_lock
                0x000000002ffefc7c       0x38 /home/charles/linux/code/tfa/mp157_alientek/tf-a-stm32mp-2.2.r1-r0/tf-a-stm32mp-2.2.r1/../build/optee/bl2/bsec2.o
                0x000000002ffefc7c                bsec_read_sp_lock
 .text.bsec_read_permanent_lock
                0x000000002ffefcb4       0x38 /home/charles/linux/code/tfa/mp157_alientek/tf-a-stm32mp-2.2.r1-r0/tf-a-stm32mp-2.2.r1/../build/optee/bl2/bsec2.o
                0x000000002ffefcb4                bsec_read_permanent_lock
 .text.bsec_program_otp
                0x000000002ffefcec       0xe0 /home/charles/linux/code/tfa/mp157_alientek/tf-a-stm32mp-2.2.r1-r0/tf-a-stm32mp-2.2.r1/../build/optee/bl2/bsec2.o
                0x000000002ffefcec                bsec_program_otp
 .text.bsec_shadow_read_otp
                0x000000002ffefdcc       0x3c /home/charles/linux/code/tfa/mp157_alientek/tf-a-stm32mp-2.2.r1-r0/tf-a-stm32mp-2.2.r1/../build/optee/bl2/bsec2.o
                0x000000002ffefdcc                bsec_shadow_read_otp
 .text.fdt_osc_read_freq
                0x000000002ffefe08       0xa0 /home/charles/linux/code/tfa/mp157_alientek/tf-a-stm32mp-2.2.r1-r0/tf-a-stm32mp-2.2.r1/../build/optee/bl2/stm32mp_clkfunc.o
                0x000000002ffefe08                fdt_osc_read_freq
 .text.fdt_osc_read_bool
                0x000000002ffefea8       0x74 /home/charles/linux/code/tfa/mp157_alientek/tf-a-stm32mp-2.2.r1-r0/tf-a-stm32mp-2.2.r1/../build/optee/bl2/stm32mp_clkfunc.o
                0x000000002ffefea8                fdt_osc_read_bool
 .text.fdt_osc_read_uint32_default
                0x000000002ffeff1c       0x74 /home/charles/linux/code/tfa/mp157_alientek/tf-a-stm32mp-2.2.r1-r0/tf-a-stm32mp-2.2.r1/../build/optee/bl2/stm32mp_clkfunc.o
                0x000000002ffeff1c                fdt_osc_read_uint32_default
 .text.fdt_get_rcc_node
                0x000000002ffeff90        0xc /home/charles/linux/code/tfa/mp157_alientek/tf-a-stm32mp-2.2.r1-r0/tf-a-stm32mp-2.2.r1/../build/optee/bl2/stm32mp_clkfunc.o
                0x000000002ffeff90                fdt_get_rcc_node
 .text.fdt_rcc_read_uint32_array
                0x000000002ffeff9c       0x24 /home/charles/linux/code/tfa/mp157_alientek/tf-a-stm32mp-2.2.r1-r0/tf-a-stm32mp-2.2.r1/../build/optee/bl2/stm32mp_clkfunc.o
                0x000000002ffeff9c                fdt_rcc_read_uint32_array
 .text.fdt_rcc_subnode_offset
                0x000000002ffeffc0       0x30 /home/charles/linux/code/tfa/mp157_alientek/tf-a-stm32mp-2.2.r1-r0/tf-a-stm32mp-2.2.r1/../build/optee/bl2/stm32mp_clkfunc.o
                0x000000002ffeffc0                fdt_rcc_subnode_offset
 .text.fdt_rcc_read_prop
                0x000000002ffefff0       0x30 /home/charles/linux/code/tfa/mp157_alientek/tf-a-stm32mp-2.2.r1-r0/tf-a-stm32mp-2.2.r1/../build/optee/bl2/stm32mp_clkfunc.o
                0x000000002ffefff0                fdt_rcc_read_prop
 .text.fdt_get_rcc_secure_status
                0x000000002fff0020       0x18 /home/charles/linux/code/tfa/mp157_alientek/tf-a-stm32mp-2.2.r1-r0/tf-a-stm32mp-2.2.r1/../build/optee/bl2/stm32mp_clkfunc.o
                0x000000002fff0020                fdt_get_rcc_secure_status
 .text.fdt_get_clock_id
                0x000000002fff0038       0x48 /home/charles/linux/code/tfa/mp157_alientek/tf-a-stm32mp-2.2.r1-r0/tf-a-stm32mp-2.2.r1/../build/optee/bl2/stm32mp_clkfunc.o
                0x000000002fff0038                fdt_get_clock_id
 .text.fdt_is_pll1_predefined
                0x000000002fff0080       0x14 /home/charles/linux/code/tfa/mp157_alientek/tf-a-stm32mp-2.2.r1-r0/tf-a-stm32mp-2.2.r1/../build/optee/bl2/stm32mp_clkfunc.o
                0x000000002fff0080                fdt_is_pll1_predefined
 .text.stm32mp_stgen_get_counter
                0x000000002fff0094       0x10 /home/charles/linux/code/tfa/mp157_alientek/tf-a-stm32mp-2.2.r1-r0/tf-a-stm32mp-2.2.r1/../build/optee/bl2/stm32mp_clkfunc.o
                0x000000002fff0094                stm32mp_stgen_get_counter
 .text.stm32mp_stgen_config
                0x000000002fff00a4       0x54 /home/charles/linux/code/tfa/mp157_alientek/tf-a-stm32mp-2.2.r1-r0/tf-a-stm32mp-2.2.r1/../build/optee/bl2/stm32mp_clkfunc.o
                0x000000002fff00a4                stm32mp_stgen_config
 .text.clock_is_always_on
                0x000000002fff00f8       0x1c /home/charles/linux/code/tfa/mp157_alientek/tf-a-stm32mp-2.2.r1-r0/tf-a-stm32mp-2.2.r1/../build/optee/bl2/stm32mp1_clk.o
 .text.stm32mp1_read_pll_freq
                0x000000002fff0114       0xb8 /home/charles/linux/code/tfa/mp157_alientek/tf-a-stm32mp-2.2.r1-r0/tf-a-stm32mp-2.2.r1/../build/optee/bl2/stm32mp1_clk.o
 .text.get_clock_rate
                0x000000002fff01cc      0x198 /home/charles/linux/code/tfa/mp157_alientek/tf-a-stm32mp-2.2.r1-r0/tf-a-stm32mp-2.2.r1/../build/optee/bl2/stm32mp1_clk.o
 .text.stm32mp1_pll_compute_pllxcfgr1
                0x000000002fff0364       0x8c /home/charles/linux/code/tfa/mp157_alientek/tf-a-stm32mp-2.2.r1-r0/tf-a-stm32mp-2.2.r1/../build/optee/bl2/stm32mp1_clk.o
 .text.stm32mp1_pll_start
                0x000000002fff03f0       0x24 /home/charles/linux/code/tfa/mp157_alientek/tf-a-stm32mp-2.2.r1-r0/tf-a-stm32mp-2.2.r1/../build/optee/bl2/stm32mp1_clk.o
 .text.stm32mp1_mco_csg
                0x000000002fff0414       0x3a /home/charles/linux/code/tfa/mp157_alientek/tf-a-stm32mp-2.2.r1-r0/tf-a-stm32mp-2.2.r1/../build/optee/bl2/stm32mp1_clk.o
 .text.stm32mp1_clk_lock
                0x000000002fff044e       0x16 /home/charles/linux/code/tfa/mp157_alientek/tf-a-stm32mp-2.2.r1-r0/tf-a-stm32mp-2.2.r1/../build/optee/bl2/stm32mp1_clk.o
 .text.stm32mp1_clk_unlock
                0x000000002fff0464       0x16 /home/charles/linux/code/tfa/mp157_alientek/tf-a-stm32mp-2.2.r1-r0/tf-a-stm32mp-2.2.r1/../build/optee/bl2/stm32mp1_clk.o
 *fill*         0x000000002fff047a        0x2 
 .text.stm32mp1_pll_stop
                0x000000002fff047c       0x80 /home/charles/linux/code/tfa/mp157_alientek/tf-a-stm32mp-2.2.r1-r0/tf-a-stm32mp-2.2.r1/../build/optee/bl2/stm32mp1_clk.o
 .text.__clk_enable
                0x000000002fff04fc       0x22 /home/charles/linux/code/tfa/mp157_alientek/tf-a-stm32mp-2.2.r1-r0/tf-a-stm32mp-2.2.r1/../build/optee/bl2/stm32mp1_clk.o
 .text.__clk_disable
                0x000000002fff051e       0x24 /home/charles/linux/code/tfa/mp157_alientek/tf-a-stm32mp-2.2.r1-r0/tf-a-stm32mp-2.2.r1/../build/optee/bl2/stm32mp1_clk.o
 *fill*         0x000000002fff0542        0x2 
 .text.stm32mp1_check_pll_conf
                0x000000002fff0544      0x114 /home/charles/linux/code/tfa/mp157_alientek/tf-a-stm32mp-2.2.r1-r0/tf-a-stm32mp-2.2.r1/../build/optee/bl2/stm32mp1_clk.o
 .text.stm32mp1_clk_get_gated_id
                0x000000002fff0658       0x34 /home/charles/linux/code/tfa/mp157_alientek/tf-a-stm32mp-2.2.r1-r0/tf-a-stm32mp-2.2.r1/../build/optee/bl2/stm32mp1_clk.o
 .text.stm32mp1_clk_get_parent
                0x000000002fff068c       0x78 /home/charles/linux/code/tfa/mp157_alientek/tf-a-stm32mp-2.2.r1-r0/tf-a-stm32mp-2.2.r1/../build/optee/bl2/stm32mp1_clk.o
 .text.__stm32mp1_clk_enable
                0x000000002fff0704       0x78 /home/charles/linux/code/tfa/mp157_alientek/tf-a-stm32mp-2.2.r1-r0/tf-a-stm32mp-2.2.r1/../build/optee/bl2/stm32mp1_clk.o
 .text.__stm32mp1_clk_disable
                0x000000002fff077c       0x74 /home/charles/linux/code/tfa/mp157_alientek/tf-a-stm32mp-2.2.r1-r0/tf-a-stm32mp-2.2.r1/../build/optee/bl2/stm32mp1_clk.o
 .text.stm32mp1_pkcs_config
                0x000000002fff07f0       0x26 /home/charles/linux/code/tfa/mp157_alientek/tf-a-stm32mp-2.2.r1-r0/tf-a-stm32mp-2.2.r1/../build/optee/bl2/stm32mp1_clk.o
 *fill*         0x000000002fff0816        0x2 
 .text.stm32mp1_set_clkdiv
                0x000000002fff0818       0x6c /home/charles/linux/code/tfa/mp157_alientek/tf-a-stm32mp-2.2.r1-r0/tf-a-stm32mp-2.2.r1/../build/optee/bl2/stm32mp1_clk.o
 .text.stm32mp1_osc_wait
                0x000000002fff0884       0x84 /home/charles/linux/code/tfa/mp157_alientek/tf-a-stm32mp-2.2.r1-r0/tf-a-stm32mp-2.2.r1/../build/optee/bl2/stm32mp1_clk.o
 .text.stm32mp1_set_clksrc
                0x000000002fff0908       0x80 /home/charles/linux/code/tfa/mp157_alientek/tf-a-stm32mp-2.2.r1-r0/tf-a-stm32mp-2.2.r1/../build/optee/bl2/stm32mp1_clk.o
 .text.stm32mp1_pll_output
                0x000000002fff0988       0x88 /home/charles/linux/code/tfa/mp157_alientek/tf-a-stm32mp-2.2.r1-r0/tf-a-stm32mp-2.2.r1/../build/optee/bl2/stm32mp1_clk.o
 .text.stm32mp1_pll_config_output
                0x000000002fff0a10       0x34 /home/charles/linux/code/tfa/mp157_alientek/tf-a-stm32mp-2.2.r1-r0/tf-a-stm32mp-2.2.r1/../build/optee/bl2/stm32mp1_clk.o
 .text.stm32mp1_pll_config
                0x000000002fff0a44       0x50 /home/charles/linux/code/tfa/mp157_alientek/tf-a-stm32mp-2.2.r1-r0/tf-a-stm32mp-2.2.r1/../build/optee/bl2/stm32mp1_clk.o
 .text.stm32mp1_clk_rcc_regs_lock
                0x000000002fff0a94        0xc /home/charles/linux/code/tfa/mp157_alientek/tf-a-stm32mp-2.2.r1-r0/tf-a-stm32mp-2.2.r1/../build/optee/bl2/stm32mp1_clk.o
                0x000000002fff0a94                stm32mp1_clk_rcc_regs_lock
 .text.stm32mp1_clk_rcc_regs_unlock
                0x000000002fff0aa0        0xc /home/charles/linux/code/tfa/mp157_alientek/tf-a-stm32mp-2.2.r1-r0/tf-a-stm32mp-2.2.r1/../build/optee/bl2/stm32mp1_clk.o
                0x000000002fff0aa0                stm32mp1_clk_rcc_regs_unlock
 .text.stm32mp_clk_enable
                0x000000002fff0aac        0x6 /home/charles/linux/code/tfa/mp157_alientek/tf-a-stm32mp-2.2.r1-r0/tf-a-stm32mp-2.2.r1/../build/optee/bl2/stm32mp1_clk.o
                0x000000002fff0aac                stm32mp_clk_enable
 .text.stm32mp_clk_disable
                0x000000002fff0ab2        0x6 /home/charles/linux/code/tfa/mp157_alientek/tf-a-stm32mp-2.2.r1-r0/tf-a-stm32mp-2.2.r1/../build/optee/bl2/stm32mp1_clk.o
                0x000000002fff0ab2                stm32mp_clk_disable
 .text.stm32mp1_clk_force_enable
                0x000000002fff0ab8        0x6 /home/charles/linux/code/tfa/mp157_alientek/tf-a-stm32mp-2.2.r1-r0/tf-a-stm32mp-2.2.r1/../build/optee/bl2/stm32mp1_clk.o
                0x000000002fff0ab8                stm32mp1_clk_force_enable
 .text.stm32mp_clk_get_rate
                0x000000002fff0abe       0x16 /home/charles/linux/code/tfa/mp157_alientek/tf-a-stm32mp-2.2.r1-r0/tf-a-stm32mp-2.2.r1/../build/optee/bl2/stm32mp1_clk.o
                0x000000002fff0abe                stm32mp_clk_get_rate
 *fill*         0x000000002fff0ad4        0x4 
 .text.clk_get_pll1_settings.part.0
                0x000000002fff0ad8      0x21c /home/charles/linux/code/tfa/mp157_alientek/tf-a-stm32mp-2.2.r1-r0/tf-a-stm32mp-2.2.r1/../build/optee/bl2/stm32mp1_clk.o
 .text.stm32mp1_clk_get_maxfreq_opp
                0x000000002fff0cf4       0x54 /home/charles/linux/code/tfa/mp157_alientek/tf-a-stm32mp-2.2.r1-r0/tf-a-stm32mp-2.2.r1/../build/optee/bl2/stm32mp1_clk.o
                0x000000002fff0cf4                stm32mp1_clk_get_maxfreq_opp
 .text.stm32mp1_clk_lp_load_opp_pll1_settings
                0x000000002fff0d48       0x20 /home/charles/linux/code/tfa/mp157_alientek/tf-a-stm32mp-2.2.r1-r0/tf-a-stm32mp-2.2.r1/../build/optee/bl2/stm32mp1_clk.o
                0x000000002fff0d48                stm32mp1_clk_lp_load_opp_pll1_settings
 .text.stm32mp1_clk_init
                0x000000002fff0d68      0x6b0 /home/charles/linux/code/tfa/mp157_alientek/tf-a-stm32mp-2.2.r1-r0/tf-a-stm32mp-2.2.r1/../build/optee/bl2/stm32mp1_clk.o
                0x000000002fff0d68                stm32mp1_clk_init
 .text.stm32mp1_clk_probe
                0x000000002fff1418       0xa4 /home/charles/linux/code/tfa/mp157_alientek/tf-a-stm32mp-2.2.r1-r0/tf-a-stm32mp-2.2.r1/../build/optee/bl2/stm32mp1_clk.o
                0x000000002fff1418                stm32mp1_clk_probe
 .text.ddr_enable_clock
                0x000000002fff14bc       0x22 /home/charles/linux/code/tfa/mp157_alientek/tf-a-stm32mp-2.2.r1-r0/tf-a-stm32mp-2.2.r1/../build/optee/bl2/stm32mp1_ddr_helpers.o
                0x000000002fff14bc                ddr_enable_clock
 *fill*         0x000000002fff14de        0x2 
 .text.ddr_read_sr_mode
                0x000000002fff14e0       0x18 /home/charles/linux/code/tfa/mp157_alientek/tf-a-stm32mp-2.2.r1-r0/tf-a-stm32mp-2.2.r1/../build/optee/bl2/stm32mp1_ddr_helpers.o
                0x000000002fff14e0                ddr_read_sr_mode
 .text.ddr_set_sr_mode
                0x000000002fff14f8      0x1cc /home/charles/linux/code/tfa/mp157_alientek/tf-a-stm32mp-2.2.r1-r0/tf-a-stm32mp-2.2.r1/../build/optee/bl2/stm32mp1_ddr_helpers.o
                0x000000002fff14f8                ddr_set_sr_mode
 .text.fdt32_to_cpu
                0x000000002fff16c4        0x4 /home/charles/linux/code/tfa/mp157_alientek/tf-a-stm32mp-2.2.r1-r0/tf-a-stm32mp-2.2.r1/../build/optee/bl2/stm32_gpio.o
 .text.set_gpio
                0x000000002fff16c8       0xdc /home/charles/linux/code/tfa/mp157_alientek/tf-a-stm32mp-2.2.r1-r0/tf-a-stm32mp-2.2.r1/../build/optee/bl2/stm32_gpio.o
                0x000000002fff16c8                set_gpio
 .text.dt_set_pinctrl_config
                0x000000002fff17a4      0x204 /home/charles/linux/code/tfa/mp157_alientek/tf-a-stm32mp-2.2.r1-r0/tf-a-stm32mp-2.2.r1/../build/optee/bl2/stm32_gpio.o
                0x000000002fff17a4                dt_set_pinctrl_config
 .text.i2c_transfer_config.isra.0
                0x000000002fff19a8       0x2c /home/charles/linux/code/tfa/mp157_alientek/tf-a-stm32mp-2.2.r1-r0/tf-a-stm32mp-2.2.r1/../build/optee/bl2/stm32_i2c.o
 .text.i2c_wait_flag
                0x000000002fff19d4       0x44 /home/charles/linux/code/tfa/mp157_alientek/tf-a-stm32mp-2.2.r1-r0/tf-a-stm32mp-2.2.r1/../build/optee/bl2/stm32_i2c.o
 .text.i2c_ack_failed
                0x000000002fff1a18       0x90 /home/charles/linux/code/tfa/mp157_alientek/tf-a-stm32mp-2.2.r1-r0/tf-a-stm32mp-2.2.r1/../build/optee/bl2/stm32_i2c.o
 .text.i2c_wait_txis
                0x000000002fff1aa8       0x42 /home/charles/linux/code/tfa/mp157_alientek/tf-a-stm32mp-2.2.r1-r0/tf-a-stm32mp-2.2.r1/../build/optee/bl2/stm32_i2c.o
 .text.i2c_wait_stop
                0x000000002fff1aea       0x42 /home/charles/linux/code/tfa/mp157_alientek/tf-a-stm32mp-2.2.r1-r0/tf-a-stm32mp-2.2.r1/../build/optee/bl2/stm32_i2c.o
 .text.i2c_write
                0x000000002fff1b2c      0x218 /home/charles/linux/code/tfa/mp157_alientek/tf-a-stm32mp-2.2.r1-r0/tf-a-stm32mp-2.2.r1/../build/optee/bl2/stm32_i2c.o
 .text.i2c_read.isra.0
                0x000000002fff1d44      0x1ec /home/charles/linux/code/tfa/mp157_alientek/tf-a-stm32mp-2.2.r1-r0/tf-a-stm32mp-2.2.r1/../build/optee/bl2/stm32_i2c.o
 .text.stm32_i2c_get_setup_from_fdt
                0x000000002fff1f30       0x60 /home/charles/linux/code/tfa/mp157_alientek/tf-a-stm32mp-2.2.r1-r0/tf-a-stm32mp-2.2.r1/../build/optee/bl2/stm32_i2c.o
                0x000000002fff1f30                stm32_i2c_get_setup_from_fdt
 .text.stm32_i2c_init
                0x000000002fff1f90      0x450 /home/charles/linux/code/tfa/mp157_alientek/tf-a-stm32mp-2.2.r1-r0/tf-a-stm32mp-2.2.r1/../build/optee/bl2/stm32_i2c.o
                0x000000002fff1f90                stm32_i2c_init
 .text.stm32_i2c_mem_write
                0x000000002fff23e0       0x1c /home/charles/linux/code/tfa/mp157_alientek/tf-a-stm32mp-2.2.r1-r0/tf-a-stm32mp-2.2.r1/../build/optee/bl2/stm32_i2c.o
                0x000000002fff23e0                stm32_i2c_mem_write
 .text.stm32_i2c_mem_read
                0x000000002fff23fc       0x12 /home/charles/linux/code/tfa/mp157_alientek/tf-a-stm32mp-2.2.r1-r0/tf-a-stm32mp-2.2.r1/../build/optee/bl2/stm32_i2c.o
                0x000000002fff23fc                stm32_i2c_mem_read
 *fill*         0x000000002fff240e        0x2 
 .text.stm32_i2c_is_device_ready
                0x000000002fff2410      0x148 /home/charles/linux/code/tfa/mp157_alientek/tf-a-stm32mp-2.2.r1-r0/tf-a-stm32mp-2.2.r1/../build/optee/bl2/stm32_i2c.o
                0x000000002fff2410                stm32_i2c_is_device_ready
 .text.stm32_iwdg_refresh
                0x000000002fff2558       0x40 /home/charles/linux/code/tfa/mp157_alientek/tf-a-stm32mp-2.2.r1-r0/tf-a-stm32mp-2.2.r1/../build/optee/bl2/stm32_iwdg.o
                0x000000002fff2558                stm32_iwdg_refresh
 .text.stm32_iwdg_init
                0x000000002fff2598      0x114 /home/charles/linux/code/tfa/mp157_alientek/tf-a-stm32mp-2.2.r1-r0/tf-a-stm32mp-2.2.r1/../build/optee/bl2/stm32_iwdg.o
                0x000000002fff2598                stm32_iwdg_init
 .text.dt_get_pmic_node
                0x000000002fff26ac       0x20 /home/charles/linux/code/tfa/mp157_alientek/tf-a-stm32mp-2.2.r1-r0/tf-a-stm32mp-2.2.r1/../build/optee/bl2/stm32mp_pmic.o
 .text.pmic_regulator_enable
                0x000000002fff26cc       0x2e /home/charles/linux/code/tfa/mp157_alientek/tf-a-stm32mp-2.2.r1-r0/tf-a-stm32mp-2.2.r1/../build/optee/bl2/stm32mp_pmic.o
 .text.pmic_regulator_disable
                0x000000002fff26fa       0x2e /home/charles/linux/code/tfa/mp157_alientek/tf-a-stm32mp-2.2.r1-r0/tf-a-stm32mp-2.2.r1/../build/optee/bl2/stm32mp_pmic.o
 .text.dt_pmic_get_regulator_voltage
                0x000000002fff2728       0x84 /home/charles/linux/code/tfa/mp157_alientek/tf-a-stm32mp-2.2.r1-r0/tf-a-stm32mp-2.2.r1/../build/optee/bl2/stm32mp_pmic.o
 .text.pmic_operate
                0x000000002fff27ac      0x17c /home/charles/linux/code/tfa/mp157_alientek/tf-a-stm32mp-2.2.r1-r0/tf-a-stm32mp-2.2.r1/../build/optee/bl2/stm32mp_pmic.o
 .text.dt_pmic_status
                0x000000002fff2928       0x28 /home/charles/linux/code/tfa/mp157_alientek/tf-a-stm32mp-2.2.r1-r0/tf-a-stm32mp-2.2.r1/../build/optee/bl2/stm32mp_pmic.o
                0x000000002fff2928                dt_pmic_status
 .text.pmic_configure_boot_on_regulators
                0x000000002fff2950        0xa /home/charles/linux/code/tfa/mp157_alientek/tf-a-stm32mp-2.2.r1-r0/tf-a-stm32mp-2.2.r1/../build/optee/bl2/stm32mp_pmic.o
                0x000000002fff2950                pmic_configure_boot_on_regulators
 *fill*         0x000000002fff295a        0x2 
 .text.dt_pmic_find_supply
                0x000000002fff295c       0x7c /home/charles/linux/code/tfa/mp157_alientek/tf-a-stm32mp-2.2.r1-r0/tf-a-stm32mp-2.2.r1/../build/optee/bl2/stm32mp_pmic.o
                0x000000002fff295c                dt_pmic_find_supply
 .text.initialize_pmic_i2c
                0x000000002fff29d8      0x118 /home/charles/linux/code/tfa/mp157_alientek/tf-a-stm32mp-2.2.r1-r0/tf-a-stm32mp-2.2.r1/../build/optee/bl2/stm32mp_pmic.o
                0x000000002fff29d8                initialize_pmic_i2c
 .text.is_pmic_regulator
                0x000000002fff2af0       0x38 /home/charles/linux/code/tfa/mp157_alientek/tf-a-stm32mp-2.2.r1-r0/tf-a-stm32mp-2.2.r1/../build/optee/bl2/stm32mp_pmic.o
                0x000000002fff2af0                is_pmic_regulator
 .text.bind_pmic_regulator
                0x000000002fff2b28        0xc /home/charles/linux/code/tfa/mp157_alientek/tf-a-stm32mp-2.2.r1-r0/tf-a-stm32mp-2.2.r1/../build/optee/bl2/stm32mp_pmic.o
                0x000000002fff2b28                bind_pmic_regulator
 .text.initialize_pmic
                0x000000002fff2b34       0x12 /home/charles/linux/code/tfa/mp157_alientek/tf-a-stm32mp-2.2.r1-r0/tf-a-stm32mp-2.2.r1/../build/optee/bl2/stm32mp_pmic.o
                0x000000002fff2b34                initialize_pmic
 .text.configure_pmic
                0x000000002fff2b46       0x14 /home/charles/linux/code/tfa/mp157_alientek/tf-a-stm32mp-2.2.r1-r0/tf-a-stm32mp-2.2.r1/../build/optee/bl2/stm32mp_pmic.o
                0x000000002fff2b46                configure_pmic
 *fill*         0x000000002fff2b5a        0x2 
 .text.print_pmic_info_and_debug
                0x000000002fff2b5c       0x34 /home/charles/linux/code/tfa/mp157_alientek/tf-a-stm32mp-2.2.r1-r0/tf-a-stm32mp-2.2.r1/../build/optee/bl2/stm32mp_pmic.o
                0x000000002fff2b5c                print_pmic_info_and_debug
 .text.pmic_ddr_power_init
                0x000000002fff2b90      0x150 /home/charles/linux/code/tfa/mp157_alientek/tf-a-stm32mp-2.2.r1-r0/tf-a-stm32mp-2.2.r1/../build/optee/bl2/stm32mp_pmic.o
                0x000000002fff2b90                pmic_ddr_power_init
 .text.get_regulator_data
                0x000000002fff2ce0       0x3c /home/charles/linux/code/tfa/mp157_alientek/tf-a-stm32mp-2.2.r1-r0/tf-a-stm32mp-2.2.r1/../build/optee/bl2/stpmic1.o
 .text.voltage_to_index
                0x000000002fff2d1c       0x2a /home/charles/linux/code/tfa/mp157_alientek/tf-a-stm32mp-2.2.r1-r0/tf-a-stm32mp-2.2.r1/../build/optee/bl2/stpmic1.o
 *fill*         0x000000002fff2d46        0x2 
 .text.stpmic1_register_read
                0x000000002fff2d48       0x28 /home/charles/linux/code/tfa/mp157_alientek/tf-a-stm32mp-2.2.r1-r0/tf-a-stm32mp-2.2.r1/../build/optee/bl2/stpmic1.o
                0x000000002fff2d48                stpmic1_register_read
 .text.stpmic1_is_regulator_enabled
                0x000000002fff2d70       0x28 /home/charles/linux/code/tfa/mp157_alientek/tf-a-stm32mp-2.2.r1-r0/tf-a-stm32mp-2.2.r1/../build/optee/bl2/stpmic1.o
                0x000000002fff2d70                stpmic1_is_regulator_enabled
 .text.stpmic1_regulator_voltage_get
                0x000000002fff2d98       0x74 /home/charles/linux/code/tfa/mp157_alientek/tf-a-stm32mp-2.2.r1-r0/tf-a-stm32mp-2.2.r1/../build/optee/bl2/stpmic1.o
                0x000000002fff2d98                stpmic1_regulator_voltage_get
 .text.stpmic1_register_write
                0x000000002fff2e0c       0x58 /home/charles/linux/code/tfa/mp157_alientek/tf-a-stm32mp-2.2.r1-r0/tf-a-stm32mp-2.2.r1/../build/optee/bl2/stpmic1.o
                0x000000002fff2e0c                stpmic1_register_write
 .text.stpmic1_register_update
                0x000000002fff2e64       0x2e /home/charles/linux/code/tfa/mp157_alientek/tf-a-stm32mp-2.2.r1-r0/tf-a-stm32mp-2.2.r1/../build/optee/bl2/stpmic1.o
                0x000000002fff2e64                stpmic1_register_update
 .text.stpmic1_regulator_enable
                0x000000002fff2e92       0x14 /home/charles/linux/code/tfa/mp157_alientek/tf-a-stm32mp-2.2.r1-r0/tf-a-stm32mp-2.2.r1/../build/optee/bl2/stpmic1.o
                0x000000002fff2e92                stpmic1_regulator_enable
 .text.stpmic1_regulator_disable
                0x000000002fff2ea6       0x14 /home/charles/linux/code/tfa/mp157_alientek/tf-a-stm32mp-2.2.r1-r0/tf-a-stm32mp-2.2.r1/../build/optee/bl2/stpmic1.o
                0x000000002fff2ea6                stpmic1_regulator_disable
 *fill*         0x000000002fff2eba        0x2 
 .text.stpmic1_regulator_voltage_set
                0x000000002fff2ebc       0x5c /home/charles/linux/code/tfa/mp157_alientek/tf-a-stm32mp-2.2.r1-r0/tf-a-stm32mp-2.2.r1/../build/optee/bl2/stpmic1.o
                0x000000002fff2ebc                stpmic1_regulator_voltage_set
 .text.stpmic1_regulator_pull_down_set
                0x000000002fff2f18       0x24 /home/charles/linux/code/tfa/mp157_alientek/tf-a-stm32mp-2.2.r1-r0/tf-a-stm32mp-2.2.r1/../build/optee/bl2/stpmic1.o
                0x000000002fff2f18                stpmic1_regulator_pull_down_set
 .text.stpmic1_regulator_mask_reset_set
                0x000000002fff2f3c       0x1a /home/charles/linux/code/tfa/mp157_alientek/tf-a-stm32mp-2.2.r1-r0/tf-a-stm32mp-2.2.r1/../build/optee/bl2/stpmic1.o
                0x000000002fff2f3c                stpmic1_regulator_mask_reset_set
 *fill*         0x000000002fff2f56        0x2 
 .text.stpmic1_bind_i2c
                0x000000002fff2f58       0x14 /home/charles/linux/code/tfa/mp157_alientek/tf-a-stm32mp-2.2.r1-r0/tf-a-stm32mp-2.2.r1/../build/optee/bl2/stpmic1.o
                0x000000002fff2f58                stpmic1_bind_i2c
 .text.stpmic1_dump_regulators
                0x000000002fff2f6c        0x2 /home/charles/linux/code/tfa/mp157_alientek/tf-a-stm32mp-2.2.r1-r0/tf-a-stm32mp-2.2.r1/../build/optee/bl2/stpmic1.o
                0x000000002fff2f6c                stpmic1_dump_regulators
 .text.stpmic1_get_version
                0x000000002fff2f6e       0x1e /home/charles/linux/code/tfa/mp157_alientek/tf-a-stm32mp-2.2.r1-r0/tf-a-stm32mp-2.2.r1/../build/optee/bl2/stpmic1.o
                0x000000002fff2f6e                stpmic1_get_version
 .text.dummy_regulator_enable
                0x000000002fff2f8c        0x4 /home/charles/linux/code/tfa/mp157_alientek/tf-a-stm32mp-2.2.r1-r0/tf-a-stm32mp-2.2.r1/../build/optee/bl2/stm32mp_dummy_regulator.o
 .text.dummy_regulator_disable
                0x000000002fff2f90        0x4 /home/charles/linux/code/tfa/mp157_alientek/tf-a-stm32mp-2.2.r1-r0/tf-a-stm32mp-2.2.r1/../build/optee/bl2/stm32mp_dummy_regulator.o
 .text.bind_dummy_regulator
                0x000000002fff2f94        0xc /home/charles/linux/code/tfa/mp157_alientek/tf-a-stm32mp-2.2.r1-r0/tf-a-stm32mp-2.2.r1/../build/optee/bl2/stm32mp_dummy_regulator.o
                0x000000002fff2f94                bind_dummy_regulator
 .text.stm32mp_regulator_enable
                0x000000002fff2fa0       0x1c /home/charles/linux/code/tfa/mp157_alientek/tf-a-stm32mp-2.2.r1-r0/tf-a-stm32mp-2.2.r1/../build/optee/bl2/stm32mp_regulator.o
                0x000000002fff2fa0                stm32mp_regulator_enable
 .text.stm32mp_regulator_disable
                0x000000002fff2fbc       0x24 /home/charles/linux/code/tfa/mp157_alientek/tf-a-stm32mp-2.2.r1-r0/tf-a-stm32mp-2.2.r1/../build/optee/bl2/stm32mp_regulator.o
                0x000000002fff2fbc                stm32mp_regulator_disable
 .text.stm32mp_regulator_register
                0x000000002fff2fe0        0x4 /home/charles/linux/code/tfa/mp157_alientek/tf-a-stm32mp-2.2.r1-r0/tf-a-stm32mp-2.2.r1/../build/optee/bl2/stm32mp_regulator.o
                0x000000002fff2fe0                stm32mp_regulator_register
 .text.stm32mp_reset_assert_to
                0x000000002fff2fe4       0x70 /home/charles/linux/code/tfa/mp157_alientek/tf-a-stm32mp-2.2.r1-r0/tf-a-stm32mp-2.2.r1/../build/optee/bl2/stm32mp1_reset.o
                0x000000002fff2fe4                stm32mp_reset_assert_to
 .text.stm32mp_reset_deassert_to
                0x000000002fff3054       0x74 /home/charles/linux/code/tfa/mp157_alientek/tf-a-stm32mp-2.2.r1-r0/tf-a-stm32mp-2.2.r1/../build/optee/bl2/stm32mp1_reset.o
                0x000000002fff3054                stm32mp_reset_deassert_to
 .text.fdt32_to_cpu
                0x000000002fff30c8        0x4 /home/charles/linux/code/tfa/mp157_alientek/tf-a-stm32mp-2.2.r1-r0/tf-a-stm32mp-2.2.r1/../build/optee/bl2/stm32mp_dt.o
 .text.fdt_get_node_parent_address_cells
                0x000000002fff30cc       0x24 /home/charles/linux/code/tfa/mp157_alientek/tf-a-stm32mp-2.2.r1-r0/tf-a-stm32mp-2.2.r1/../build/optee/bl2/stm32mp_dt.o
 .text.dt_get_stdout_node_offset
                0x000000002fff30f0       0x7c /home/charles/linux/code/tfa/mp157_alientek/tf-a-stm32mp-2.2.r1-r0/tf-a-stm32mp-2.2.r1/../build/optee/bl2/stm32mp_dt.o
 .text.dt_get_opp_freqvolt_from_subnode
                0x000000002fff316c       0xcc /home/charles/linux/code/tfa/mp157_alientek/tf-a-stm32mp-2.2.r1-r0/tf-a-stm32mp-2.2.r1/../build/optee/bl2/stm32mp_dt.o
 .text.dt_open_and_check
                0x000000002fff3238       0x1c /home/charles/linux/code/tfa/mp157_alientek/tf-a-stm32mp-2.2.r1-r0/tf-a-stm32mp-2.2.r1/../build/optee/bl2/stm32mp_dt.o
                0x000000002fff3238                dt_open_and_check
 .text.fdt_get_address
                0x000000002fff3254       0x18 /home/charles/linux/code/tfa/mp157_alientek/tf-a-stm32mp-2.2.r1-r0/tf-a-stm32mp-2.2.r1/../build/optee/bl2/stm32mp_dt.o
                0x000000002fff3254                fdt_get_address
 .text.fdt_check_node
                0x000000002fff326c       0x20 /home/charles/linux/code/tfa/mp157_alientek/tf-a-stm32mp-2.2.r1-r0/tf-a-stm32mp-2.2.r1/../build/optee/bl2/stm32mp_dt.o
                0x000000002fff326c                fdt_check_node
 .text.fdt_get_status
                0x000000002fff328c       0x64 /home/charles/linux/code/tfa/mp157_alientek/tf-a-stm32mp-2.2.r1-r0/tf-a-stm32mp-2.2.r1/../build/optee/bl2/stm32mp_dt.o
                0x000000002fff328c                fdt_get_status
 .text.fdt_read_uint32_default
                0x000000002fff32f0       0x28 /home/charles/linux/code/tfa/mp157_alientek/tf-a-stm32mp-2.2.r1-r0/tf-a-stm32mp-2.2.r1/../build/optee/bl2/stm32mp_dt.o
                0x000000002fff32f0                fdt_read_uint32_default
 .text.fdt_read_uint32_array
                0x000000002fff3318       0x50 /home/charles/linux/code/tfa/mp157_alientek/tf-a-stm32mp-2.2.r1-r0/tf-a-stm32mp-2.2.r1/../build/optee/bl2/stm32mp_dt.o
                0x000000002fff3318                fdt_read_uint32_array
 .text.fdt_get_reg_props_by_name
                0x000000002fff3368       0x98 /home/charles/linux/code/tfa/mp157_alientek/tf-a-stm32mp-2.2.r1-r0/tf-a-stm32mp-2.2.r1/../build/optee/bl2/stm32mp_dt.o
                0x000000002fff3368                fdt_get_reg_props_by_name
 .text.dt_set_stdout_pinctrl
                0x000000002fff3400       0x18 /home/charles/linux/code/tfa/mp157_alientek/tf-a-stm32mp-2.2.r1-r0/tf-a-stm32mp-2.2.r1/../build/optee/bl2/stm32mp_dt.o
                0x000000002fff3400                dt_set_stdout_pinctrl
 .text.dt_fill_device_info
                0x000000002fff3418       0x88 /home/charles/linux/code/tfa/mp157_alientek/tf-a-stm32mp-2.2.r1-r0/tf-a-stm32mp-2.2.r1/../build/optee/bl2/stm32mp_dt.o
                0x000000002fff3418                dt_fill_device_info
 .text.dt_get_node
                0x000000002fff34a0       0x24 /home/charles/linux/code/tfa/mp157_alientek/tf-a-stm32mp-2.2.r1-r0/tf-a-stm32mp-2.2.r1/../build/optee/bl2/stm32mp_dt.o
                0x000000002fff34a0                dt_get_node
 .text.dt_get_stdout_uart_info
                0x000000002fff34c4       0x1e /home/charles/linux/code/tfa/mp157_alientek/tf-a-stm32mp-2.2.r1-r0/tf-a-stm32mp-2.2.r1/../build/optee/bl2/stm32mp_dt.o
                0x000000002fff34c4                dt_get_stdout_uart_info
 *fill*         0x000000002fff34e2        0x2 
 .text.dt_get_node_by_compatible
                0x000000002fff34e4       0x28 /home/charles/linux/code/tfa/mp157_alientek/tf-a-stm32mp-2.2.r1-r0/tf-a-stm32mp-2.2.r1/../build/optee/bl2/stm32mp_dt.o
                0x000000002fff34e4                dt_get_node_by_compatible
 .text.dt_match_instance_by_compatible
                0x000000002fff350c       0x6c /home/charles/linux/code/tfa/mp157_alientek/tf-a-stm32mp-2.2.r1-r0/tf-a-stm32mp-2.2.r1/../build/optee/bl2/stm32mp_dt.o
                0x000000002fff350c                dt_match_instance_by_compatible
 .text.dt_get_ddr_size
                0x000000002fff3578       0x24 /home/charles/linux/code/tfa/mp157_alientek/tf-a-stm32mp-2.2.r1-r0/tf-a-stm32mp-2.2.r1/../build/optee/bl2/stm32mp_dt.o
                0x000000002fff3578                dt_get_ddr_size
 .text.dt_get_max_opp_freqvolt
                0x000000002fff359c       0x88 /home/charles/linux/code/tfa/mp157_alientek/tf-a-stm32mp-2.2.r1-r0/tf-a-stm32mp-2.2.r1/../build/optee/bl2/stm32mp_dt.o
                0x000000002fff359c                dt_get_max_opp_freqvolt
 .text.dt_get_pwr_vdd_voltage
                0x000000002fff3624       0x54 /home/charles/linux/code/tfa/mp157_alientek/tf-a-stm32mp-2.2.r1-r0/tf-a-stm32mp-2.2.r1/../build/optee/bl2/stm32mp_dt.o
                0x000000002fff3624                dt_get_pwr_vdd_voltage
 .text.dt_get_cpu_regulator_name
                0x000000002fff3678       0x50 /home/charles/linux/code/tfa/mp157_alientek/tf-a-stm32mp-2.2.r1-r0/tf-a-stm32mp-2.2.r1/../build/optee/bl2/stm32mp_dt.o
                0x000000002fff3678                dt_get_cpu_regulator_name
 .text.dt_get_board_model
                0x000000002fff36c8       0x2c /home/charles/linux/code/tfa/mp157_alientek/tf-a-stm32mp-2.2.r1-r0/tf-a-stm32mp-2.2.r1/../build/optee/bl2/stm32mp_dt.o
                0x000000002fff36c8                dt_get_board_model
 .text.stm32mp_lock_shregs
                0x000000002fff36f4       0x18 /home/charles/linux/code/tfa/mp157_alientek/tf-a-stm32mp-2.2.r1-r0/tf-a-stm32mp-2.2.r1/../build/optee/bl2/stm32mp_shres_helpers.o
                0x000000002fff36f4                stm32mp_lock_shregs
 .text.stm32mp_unlock_shregs
                0x000000002fff370c       0x18 /home/charles/linux/code/tfa/mp157_alientek/tf-a-stm32mp-2.2.r1-r0/tf-a-stm32mp-2.2.r1/../build/optee/bl2/stm32mp_shres_helpers.o
                0x000000002fff370c                stm32mp_unlock_shregs
 .text.stm32mp_mmio_clrbits_32_shregs
                0x000000002fff3724       0x1a /home/charles/linux/code/tfa/mp157_alientek/tf-a-stm32mp-2.2.r1-r0/tf-a-stm32mp-2.2.r1/../build/optee/bl2/stm32mp_shres_helpers.o
                0x000000002fff3724                stm32mp_mmio_clrbits_32_shregs
 .text.stm32mp_mmio_setbits_32_shregs
                0x000000002fff373e       0x18 /home/charles/linux/code/tfa/mp157_alientek/tf-a-stm32mp-2.2.r1-r0/tf-a-stm32mp-2.2.r1/../build/optee/bl2/stm32mp_shres_helpers.o
                0x000000002fff373e                stm32mp_mmio_setbits_32_shregs
 *fill*         0x000000002fff3756        0x2 
 .text.stm32_pm_get_optee_ep
                0x000000002fff3758       0x48 /home/charles/linux/code/tfa/mp157_alientek/tf-a-stm32mp-2.2.r1-r0/tf-a-stm32mp-2.2.r1/../build/optee/bl2/stm32mp1_context.o
                0x000000002fff3758                stm32_pm_get_optee_ep
 .text.stm32_get_zdata_from_context
                0x000000002fff37a0       0x1c /home/charles/linux/code/tfa/mp157_alientek/tf-a-stm32mp-2.2.r1-r0/tf-a-stm32mp-2.2.r1/../build/optee/bl2/stm32mp1_context.o
                0x000000002fff37a0                stm32_get_zdata_from_context
 .text.stm32_get_pll1_settings_from_context
                0x000000002fff37bc       0x58 /home/charles/linux/code/tfa/mp157_alientek/tf-a-stm32mp-2.2.r1-r0/tf-a-stm32mp-2.2.r1/../build/optee/bl2/stm32mp1_context.o
                0x000000002fff37bc                stm32_get_pll1_settings_from_context
 .text.stm32_save_boot_interface
                0x000000002fff3814       0x30 /home/charles/linux/code/tfa/mp157_alientek/tf-a-stm32mp-2.2.r1-r0/tf-a-stm32mp-2.2.r1/../build/optee/bl2/stm32mp1_context.o
                0x000000002fff3814                stm32_save_boot_interface
 .text.stm32_restore_ddr_training_area
                0x000000002fff3844       0x28 /home/charles/linux/code/tfa/mp157_alientek/tf-a-stm32mp-2.2.r1-r0/tf-a-stm32mp-2.2.r1/../build/optee/bl2/stm32mp1_context.o
                0x000000002fff3844                stm32_restore_ddr_training_area
 .text.stm32mp1_dbgmcu_init
                0x000000002fff386c       0x2c /home/charles/linux/code/tfa/mp157_alientek/tf-a-stm32mp-2.2.r1-r0/tf-a-stm32mp-2.2.r1/../build/optee/bl2/stm32mp1_dbgmcu.o
 .text.stm32mp1_dbgmcu_get_chip_version
                0x000000002fff3898       0x2c /home/charles/linux/code/tfa/mp157_alientek/tf-a-stm32mp-2.2.r1-r0/tf-a-stm32mp-2.2.r1/../build/optee/bl2/stm32mp1_dbgmcu.o
                0x000000002fff3898                stm32mp1_dbgmcu_get_chip_version
 .text.stm32mp1_dbgmcu_get_chip_dev_id
                0x000000002fff38c4       0x30 /home/charles/linux/code/tfa/mp157_alientek/tf-a-stm32mp-2.2.r1-r0/tf-a-stm32mp-2.2.r1/../build/optee/bl2/stm32mp1_dbgmcu.o
                0x000000002fff38c4                stm32mp1_dbgmcu_get_chip_dev_id
 .text.stm32mp1_dbgmcu_freeze_iwdg2
                0x000000002fff38f4       0x2c /home/charles/linux/code/tfa/mp157_alientek/tf-a-stm32mp-2.2.r1-r0/tf-a-stm32mp-2.2.r1/../build/optee/bl2/stm32mp1_dbgmcu.o
                0x000000002fff38f4                stm32mp1_dbgmcu_freeze_iwdg2
 .text.stm32mp1_arch_security_setup
                0x000000002fff3920       0x50 /home/charles/linux/code/tfa/mp157_alientek/tf-a-stm32mp-2.2.r1-r0/tf-a-stm32mp-2.2.r1/../build/optee/bl2/stm32mp1_security.o
                0x000000002fff3920                stm32mp1_arch_security_setup
 .text.stm32mp1_security_setup
                0x000000002fff3970       0xac /home/charles/linux/code/tfa/mp157_alientek/tf-a-stm32mp-2.2.r1-r0/tf-a-stm32mp-2.2.r1/../build/optee/bl2/stm32mp1_security.o
                0x000000002fff3970                stm32mp1_security_setup
 .text.stm32mp1_syscfg_enable_io_compensation
                0x000000002fff3a1c       0x68 /home/charles/linux/code/tfa/mp157_alientek/tf-a-stm32mp-2.2.r1-r0/tf-a-stm32mp-2.2.r1/../build/optee/bl2/stm32mp1_syscfg.o
                0x000000002fff3a1c                stm32mp1_syscfg_enable_io_compensation
 .text.stm32mp1_syscfg_init
                0x000000002fff3a84       0xa0 /home/charles/linux/code/tfa/mp157_alientek/tf-a-stm32mp-2.2.r1-r0/tf-a-stm32mp-2.2.r1/../build/optee/bl2/stm32mp1_syscfg.o
                0x000000002fff3a84                stm32mp1_syscfg_init
 .text          0x000000002fff3b24       0x24 /home/charles/linux/code/tfa/mp157_alientek/tf-a-stm32mp-2.2.r1-r0/tf-a-stm32mp-2.2.r1/../build/optee/bl2/aeabi_uldivmod.o
                0x000000002fff3b24                __aeabi_uldivmod
 .text.fdt32_to_cpu
                0x000000002fff3b48        0x4 /home/charles/linux/code/tfa/mp157_alientek/tf-a-stm32mp-2.2.r1-r0/tf-a-stm32mp-2.2.r1/../build/optee/lib/libfdt.a(fdt.o)
 .text.fdt_check_header
                0x000000002fff3b4c       0x58 /home/charles/linux/code/tfa/mp157_alientek/tf-a-stm32mp-2.2.r1-r0/tf-a-stm32mp-2.2.r1/../build/optee/lib/libfdt.a(fdt.o)
                0x000000002fff3b4c                fdt_check_header
 .text.fdt_offset_ptr
                0x000000002fff3ba4       0x3c /home/charles/linux/code/tfa/mp157_alientek/tf-a-stm32mp-2.2.r1-r0/tf-a-stm32mp-2.2.r1/../build/optee/lib/libfdt.a(fdt.o)
                0x000000002fff3ba4                fdt_offset_ptr
 .text.fdt_next_tag
                0x000000002fff3be0       0xc8 /home/charles/linux/code/tfa/mp157_alientek/tf-a-stm32mp-2.2.r1-r0/tf-a-stm32mp-2.2.r1/../build/optee/lib/libfdt.a(fdt.o)
                0x000000002fff3be0                fdt_next_tag
 .text.fdt_check_node_offset_
                0x000000002fff3ca8       0x24 /home/charles/linux/code/tfa/mp157_alientek/tf-a-stm32mp-2.2.r1-r0/tf-a-stm32mp-2.2.r1/../build/optee/lib/libfdt.a(fdt.o)
                0x000000002fff3ca8                fdt_check_node_offset_
 .text.fdt_check_prop_offset_
                0x000000002fff3ccc       0x24 /home/charles/linux/code/tfa/mp157_alientek/tf-a-stm32mp-2.2.r1-r0/tf-a-stm32mp-2.2.r1/../build/optee/lib/libfdt.a(fdt.o)
                0x000000002fff3ccc                fdt_check_prop_offset_
 .text.fdt_next_node
                0x000000002fff3cf0       0x6e /home/charles/linux/code/tfa/mp157_alientek/tf-a-stm32mp-2.2.r1-r0/tf-a-stm32mp-2.2.r1/../build/optee/lib/libfdt.a(fdt.o)
                0x000000002fff3cf0                fdt_next_node
 .text.fdt_first_subnode
                0x000000002fff3d5e       0x26 /home/charles/linux/code/tfa/mp157_alientek/tf-a-stm32mp-2.2.r1-r0/tf-a-stm32mp-2.2.r1/../build/optee/lib/libfdt.a(fdt.o)
                0x000000002fff3d5e                fdt_first_subnode
 .text.fdt_next_subnode
                0x000000002fff3d84       0x2a /home/charles/linux/code/tfa/mp157_alientek/tf-a-stm32mp-2.2.r1-r0/tf-a-stm32mp-2.2.r1/../build/optee/lib/libfdt.a(fdt.o)
                0x000000002fff3d84                fdt_next_subnode
 *fill*         0x000000002fff3dae        0x2 
 .text.fdt_address_cells
                0x000000002fff3db0       0x48 /home/charles/linux/code/tfa/mp157_alientek/tf-a-stm32mp-2.2.r1-r0/tf-a-stm32mp-2.2.r1/../build/optee/lib/libfdt.a(fdt_addresses.o)
                0x000000002fff3db0                fdt_address_cells
 .text.fdt_size_cells
                0x000000002fff3df8       0x48 /home/charles/linux/code/tfa/mp157_alientek/tf-a-stm32mp-2.2.r1-r0/tf-a-stm32mp-2.2.r1/../build/optee/lib/libfdt.a(fdt_addresses.o)
                0x000000002fff3df8                fdt_size_cells
 .text.fdt32_to_cpu
                0x000000002fff3e40        0x4 /home/charles/linux/code/tfa/mp157_alientek/tf-a-stm32mp-2.2.r1-r0/tf-a-stm32mp-2.2.r1/../build/optee/lib/libfdt.a(fdt_ro.o)
 .text.nextprop_
                0x000000002fff3e44       0x32 /home/charles/linux/code/tfa/mp157_alientek/tf-a-stm32mp-2.2.r1-r0/tf-a-stm32mp-2.2.r1/../build/optee/lib/libfdt.a(fdt_ro.o)
 .text.fdt_get_property_by_offset_
                0x000000002fff3e76       0x36 /home/charles/linux/code/tfa/mp157_alientek/tf-a-stm32mp-2.2.r1-r0/tf-a-stm32mp-2.2.r1/../build/optee/lib/libfdt.a(fdt_ro.o)
 .text.fdt_string
                0x000000002fff3eac       0x10 /home/charles/linux/code/tfa/mp157_alientek/tf-a-stm32mp-2.2.r1-r0/tf-a-stm32mp-2.2.r1/../build/optee/lib/libfdt.a(fdt_ro.o)
                0x000000002fff3eac                fdt_string
 .text.fdt_get_name
                0x000000002fff3ebc       0x5e /home/charles/linux/code/tfa/mp157_alientek/tf-a-stm32mp-2.2.r1-r0/tf-a-stm32mp-2.2.r1/../build/optee/lib/libfdt.a(fdt_ro.o)
                0x000000002fff3ebc                fdt_get_name
 .text.fdt_subnode_offset_namelen
                0x000000002fff3f1a       0x80 /home/charles/linux/code/tfa/mp157_alientek/tf-a-stm32mp-2.2.r1-r0/tf-a-stm32mp-2.2.r1/../build/optee/lib/libfdt.a(fdt_ro.o)
                0x000000002fff3f1a                fdt_subnode_offset_namelen
 .text.fdt_subnode_offset
                0x000000002fff3f9a       0x1e /home/charles/linux/code/tfa/mp157_alientek/tf-a-stm32mp-2.2.r1-r0/tf-a-stm32mp-2.2.r1/../build/optee/lib/libfdt.a(fdt_ro.o)
                0x000000002fff3f9a                fdt_subnode_offset
 .text.fdt_first_property_offset
                0x000000002fff3fb8       0x18 /home/charles/linux/code/tfa/mp157_alientek/tf-a-stm32mp-2.2.r1-r0/tf-a-stm32mp-2.2.r1/../build/optee/lib/libfdt.a(fdt_ro.o)
                0x000000002fff3fb8                fdt_first_property_offset
 .text.fdt_next_property_offset
                0x000000002fff3fd0       0x18 /home/charles/linux/code/tfa/mp157_alientek/tf-a-stm32mp-2.2.r1-r0/tf-a-stm32mp-2.2.r1/../build/optee/lib/libfdt.a(fdt_ro.o)
                0x000000002fff3fd0                fdt_next_property_offset
 .text.fdt_get_property_namelen_
                0x000000002fff3fe8       0x78 /home/charles/linux/code/tfa/mp157_alientek/tf-a-stm32mp-2.2.r1-r0/tf-a-stm32mp-2.2.r1/../build/optee/lib/libfdt.a(fdt_ro.o)
 .text.fdt_getprop_namelen
                0x000000002fff4060       0x3e /home/charles/linux/code/tfa/mp157_alientek/tf-a-stm32mp-2.2.r1-r0/tf-a-stm32mp-2.2.r1/../build/optee/lib/libfdt.a(fdt_ro.o)
                0x000000002fff4060                fdt_getprop_namelen
 .text.fdt_getprop
                0x000000002fff409e       0x22 /home/charles/linux/code/tfa/mp157_alientek/tf-a-stm32mp-2.2.r1-r0/tf-a-stm32mp-2.2.r1/../build/optee/lib/libfdt.a(fdt_ro.o)
                0x000000002fff409e                fdt_getprop
 .text.fdt_get_phandle
                0x000000002fff40c0       0x44 /home/charles/linux/code/tfa/mp157_alientek/tf-a-stm32mp-2.2.r1-r0/tf-a-stm32mp-2.2.r1/../build/optee/lib/libfdt.a(fdt_ro.o)
                0x000000002fff40c0                fdt_get_phandle
 .text.fdt_get_alias_namelen
                0x000000002fff4104       0x2c /home/charles/linux/code/tfa/mp157_alientek/tf-a-stm32mp-2.2.r1-r0/tf-a-stm32mp-2.2.r1/../build/optee/lib/libfdt.a(fdt_ro.o)
                0x000000002fff4104                fdt_get_alias_namelen
 .text.fdt_path_offset_namelen
                0x000000002fff4130       0x92 /home/charles/linux/code/tfa/mp157_alientek/tf-a-stm32mp-2.2.r1-r0/tf-a-stm32mp-2.2.r1/../build/optee/lib/libfdt.a(fdt_ro.o)
                0x000000002fff4130                fdt_path_offset_namelen
 .text.fdt_path_offset
                0x000000002fff41c2       0x1a /home/charles/linux/code/tfa/mp157_alientek/tf-a-stm32mp-2.2.r1-r0/tf-a-stm32mp-2.2.r1/../build/optee/lib/libfdt.a(fdt_ro.o)
                0x000000002fff41c2                fdt_path_offset
 .text.fdt_supernode_atdepth_offset
                0x000000002fff41dc       0x68 /home/charles/linux/code/tfa/mp157_alientek/tf-a-stm32mp-2.2.r1-r0/tf-a-stm32mp-2.2.r1/../build/optee/lib/libfdt.a(fdt_ro.o)
                0x000000002fff41dc                fdt_supernode_atdepth_offset
 .text.fdt_node_depth
                0x000000002fff4244       0x1e /home/charles/linux/code/tfa/mp157_alientek/tf-a-stm32mp-2.2.r1-r0/tf-a-stm32mp-2.2.r1/../build/optee/lib/libfdt.a(fdt_ro.o)
                0x000000002fff4244                fdt_node_depth
 .text.fdt_parent_offset
                0x000000002fff4262       0x20 /home/charles/linux/code/tfa/mp157_alientek/tf-a-stm32mp-2.2.r1-r0/tf-a-stm32mp-2.2.r1/../build/optee/lib/libfdt.a(fdt_ro.o)
                0x000000002fff4262                fdt_parent_offset
 .text.fdt_node_offset_by_phandle
                0x000000002fff4282       0x42 /home/charles/linux/code/tfa/mp157_alientek/tf-a-stm32mp-2.2.r1-r0/tf-a-stm32mp-2.2.r1/../build/optee/lib/libfdt.a(fdt_ro.o)
                0x000000002fff4282                fdt_node_offset_by_phandle
 .text.fdt_stringlist_contains
                0x000000002fff42c4       0x46 /home/charles/linux/code/tfa/mp157_alientek/tf-a-stm32mp-2.2.r1-r0/tf-a-stm32mp-2.2.r1/../build/optee/lib/libfdt.a(fdt_ro.o)
                0x000000002fff42c4                fdt_stringlist_contains
 .text.fdt_stringlist_search
                0x000000002fff430a       0x66 /home/charles/linux/code/tfa/mp157_alientek/tf-a-stm32mp-2.2.r1-r0/tf-a-stm32mp-2.2.r1/../build/optee/lib/libfdt.a(fdt_ro.o)
                0x000000002fff430a                fdt_stringlist_search
 .text.fdt_node_check_compatible
                0x000000002fff4370       0x28 /home/charles/linux/code/tfa/mp157_alientek/tf-a-stm32mp-2.2.r1-r0/tf-a-stm32mp-2.2.r1/../build/optee/lib/libfdt.a(fdt_ro.o)
                0x000000002fff4370                fdt_node_check_compatible
 .text.fdt_node_offset_by_compatible
                0x000000002fff4398       0x40 /home/charles/linux/code/tfa/mp157_alientek/tf-a-stm32mp-2.2.r1-r0/tf-a-stm32mp-2.2.r1/../build/optee/lib/libfdt.a(fdt_ro.o)
                0x000000002fff4398                fdt_node_offset_by_compatible
 .text.__assert
                0x000000002fff43d8       0x18 /home/charles/linux/code/tfa/mp157_alientek/tf-a-stm32mp-2.2.r1-r0/tf-a-stm32mp-2.2.r1/../build/optee/lib/libc.a(assert.o)
                0x000000002fff43d8                __assert
 .text.memchr   0x000000002fff43f0       0x1c /home/charles/linux/code/tfa/mp157_alientek/tf-a-stm32mp-2.2.r1-r0/tf-a-stm32mp-2.2.r1/../build/optee/lib/libc.a(memchr.o)
                0x000000002fff43f0                memchr
 .text.memcmp   0x000000002fff440c       0x1c /home/charles/linux/code/tfa/mp157_alientek/tf-a-stm32mp-2.2.r1-r0/tf-a-stm32mp-2.2.r1/../build/optee/lib/libc.a(memcmp.o)
                0x000000002fff440c                memcmp
 .text.memcpy   0x000000002fff4428       0x16 /home/charles/linux/code/tfa/mp157_alientek/tf-a-stm32mp-2.2.r1-r0/tf-a-stm32mp-2.2.r1/../build/optee/lib/libc.a(memcpy.o)
                0x000000002fff4428                memcpy
 .text.memmove  0x000000002fff443e       0x2c /home/charles/linux/code/tfa/mp157_alientek/tf-a-stm32mp-2.2.r1-r0/tf-a-stm32mp-2.2.r1/../build/optee/lib/libc.a(memmove.o)
                0x000000002fff443e                memmove
 .text.memset   0x000000002fff446a       0x10 /home/charles/linux/code/tfa/mp157_alientek/tf-a-stm32mp-2.2.r1-r0/tf-a-stm32mp-2.2.r1/../build/optee/lib/libc.a(memset.o)
                0x000000002fff446a                memset
 .text.unsigned_num_print
                0x000000002fff447a       0x80 /home/charles/linux/code/tfa/mp157_alientek/tf-a-stm32mp-2.2.r1-r0/tf-a-stm32mp-2.2.r1/../build/optee/lib/libc.a(printf.o)
 *fill*         0x000000002fff44fa        0x2 
 .text.vprintf  0x000000002fff44fc      0x1a0 /home/charles/linux/code/tfa/mp157_alientek/tf-a-stm32mp-2.2.r1-r0/tf-a-stm32mp-2.2.r1/../build/optee/lib/libc.a(printf.o)
                0x000000002fff44fc                vprintf
 .text.printf   0x000000002fff469c       0x1a /home/charles/linux/code/tfa/mp157_alientek/tf-a-stm32mp-2.2.r1-r0/tf-a-stm32mp-2.2.r1/../build/optee/lib/libc.a(printf.o)
                0x000000002fff469c                printf
 .text.putchar  0x000000002fff46b6       0x16 /home/charles/linux/code/tfa/mp157_alientek/tf-a-stm32mp-2.2.r1-r0/tf-a-stm32mp-2.2.r1/../build/optee/lib/libc.a(putchar.o)
                0x000000002fff46b6                putchar
 .text.unsigned_dec_print
                0x000000002fff46cc       0x4a /home/charles/linux/code/tfa/mp157_alientek/tf-a-stm32mp-2.2.r1-r0/tf-a-stm32mp-2.2.r1/../build/optee/lib/libc.a(snprintf.o)
 *fill*         0x000000002fff4716        0x2 
 .text.snprintf
                0x000000002fff4718       0xe0 /home/charles/linux/code/tfa/mp157_alientek/tf-a-stm32mp-2.2.r1-r0/tf-a-stm32mp-2.2.r1/../build/optee/lib/libc.a(snprintf.o)
                0x000000002fff4718                snprintf
 .text.strchr   0x000000002fff47f8       0x16 /home/charles/linux/code/tfa/mp157_alientek/tf-a-stm32mp-2.2.r1-r0/tf-a-stm32mp-2.2.r1/../build/optee/lib/libc.a(strchr.o)
                0x000000002fff47f8                strchr
 .text.strcmp   0x000000002fff480e       0x18 /home/charles/linux/code/tfa/mp157_alientek/tf-a-stm32mp-2.2.r1-r0/tf-a-stm32mp-2.2.r1/../build/optee/lib/libc.a(strcmp.o)
                0x000000002fff480e                strcmp
 .text.strlen   0x000000002fff4826       0x10 /home/charles/linux/code/tfa/mp157_alientek/tf-a-stm32mp-2.2.r1-r0/tf-a-stm32mp-2.2.r1/../build/optee/lib/libc.a(strlen.o)
                0x000000002fff4826                strlen
 .text.strncmp  0x000000002fff4836       0x28 /home/charles/linux/code/tfa/mp157_alientek/tf-a-stm32mp-2.2.r1-r0/tf-a-stm32mp-2.2.r1/../build/optee/lib/libc.a(strncmp.o)
                0x000000002fff4836                strncmp
 .text.strnlen  0x000000002fff485e       0x14 /home/charles/linux/code/tfa/mp157_alientek/tf-a-stm32mp-2.2.r1-r0/tf-a-stm32mp-2.2.r1/../build/optee/lib/libc.a(strnlen.o)
                0x000000002fff485e                strnlen
 .text.strrchr  0x000000002fff4872       0x1a /home/charles/linux/code/tfa/mp157_alientek/tf-a-stm32mp-2.2.r1-r0/tf-a-stm32mp-2.2.r1/../build/optee/lib/libc.a(strrchr.o)
                0x000000002fff4872                strrchr
 *(.rodata*)
 .rodata.build_message
                0x000000002fff488c       0x1e /home/charles/linux/code/tfa/mp157_alientek/tf-a-stm32mp-2.2.r1-r0/tf-a-stm32mp-2.2.r1/../build/optee/bl2/build_message.o
                0x000000002fff488c                build_message
 .rodata.version_string
                0x000000002fff48aa       0x12 /home/charles/linux/code/tfa/mp157_alientek/tf-a-stm32mp-2.2.r1-r0/tf-a-stm32mp-2.2.r1/../build/optee/bl2/build_message.o
                0x000000002fff48aa                version_string
 .rodata.block_write.str1.1
                0x000000002fff48bc       0x16 /home/charles/linux/code/tfa/mp157_alientek/tf-a-stm32mp-2.2.r1-r0/tf-a-stm32mp-2.2.r1/../build/optee/bl2/io_block.o
 *fill*         0x000000002fff48d2        0x2 
 .rodata.block_dev_connector
                0x000000002fff48d4        0x4 /home/charles/linux/code/tfa/mp157_alientek/tf-a-stm32mp-2.2.r1-r0/tf-a-stm32mp-2.2.r1/../build/optee/bl2/io_block.o
 .rodata.block_dev_funcs
                0x000000002fff48d8       0x24 /home/charles/linux/code/tfa/mp157_alientek/tf-a-stm32mp-2.2.r1-r0/tf-a-stm32mp-2.2.r1/../build/optee/bl2/io_block.o
 .rodata.dummy_dev_open.str1.1
                0x000000002fff48fc       0x16 /home/charles/linux/code/tfa/mp157_alientek/tf-a-stm32mp-2.2.r1-r0/tf-a-stm32mp-2.2.r1/../build/optee/bl2/io_dummy.o
 .rodata.dummy_block_open.str1.1
                0x000000002fff4912       0x31 /home/charles/linux/code/tfa/mp157_alientek/tf-a-stm32mp-2.2.r1-r0/tf-a-stm32mp-2.2.r1/../build/optee/bl2/io_dummy.o
 *fill*         0x000000002fff4943        0x1 
 .rodata.dummy_dev_connector
                0x000000002fff4944        0x4 /home/charles/linux/code/tfa/mp157_alientek/tf-a-stm32mp-2.2.r1-r0/tf-a-stm32mp-2.2.r1/../build/optee/bl2/io_dummy.o
 .rodata.dummy_dev_funcs
                0x000000002fff4948       0x24 /home/charles/linux/code/tfa/mp157_alientek/tf-a-stm32mp-2.2.r1-r0/tf-a-stm32mp-2.2.r1/../build/optee/bl2/io_dummy.o
 .rodata.dummy_dev_info
                0x000000002fff496c        0x8 /home/charles/linux/code/tfa/mp157_alientek/tf-a-stm32mp-2.2.r1-r0/tf-a-stm32mp-2.2.r1/../build/optee/bl2/io_dummy.o
 .rodata.mtd_read.str1.1
                0x000000002fff4974       0x14 /home/charles/linux/code/tfa/mp157_alientek/tf-a-stm32mp-2.2.r1-r0/tf-a-stm32mp-2.2.r1/../build/optee/bl2/io_mtd.o
 .rodata.mtd_dev_connector
                0x000000002fff4988        0x4 /home/charles/linux/code/tfa/mp157_alientek/tf-a-stm32mp-2.2.r1-r0/tf-a-stm32mp-2.2.r1/../build/optee/bl2/io_mtd.o
 .rodata.mtd_dev_funcs
                0x000000002fff498c       0x24 /home/charles/linux/code/tfa/mp157_alientek/tf-a-stm32mp-2.2.r1-r0/tf-a-stm32mp-2.2.r1/../build/optee/bl2/io_mtd.o
 .rodata.free_entity.str1.1
                0x000000002fff49b0       0x18 /home/charles/linux/code/tfa/mp157_alientek/tf-a-stm32mp-2.2.r1-r0/tf-a-stm32mp-2.2.r1/../build/optee/bl2/io_storage.o
 .rodata.hash_write_data.str1.1
                0x000000002fff49c8       0x13 /home/charles/linux/code/tfa/mp157_alientek/tf-a-stm32mp-2.2.r1-r0/tf-a-stm32mp-2.2.r1/../build/optee/bl2/stm32_hash.o
 .rodata.stm32_hash_update.str1.1
                0x000000002fff49db       0x1f /home/charles/linux/code/tfa/mp157_alientek/tf-a-stm32mp-2.2.r1-r0/tf-a-stm32mp-2.2.r1/../build/optee/bl2/stm32_hash.o
 .rodata.stm32_hash_register.str1.1
                0x000000002fff49fa       0x12 /home/charles/linux/code/tfa/mp157_alientek/tf-a-stm32mp-2.2.r1-r0/tf-a-stm32mp-2.2.r1/../build/optee/bl2/stm32_hash.o
 .rodata.__func__.7019
                0x000000002fff4a0c        0xf /home/charles/linux/code/tfa/mp157_alientek/tf-a-stm32mp-2.2.r1-r0/tf-a-stm32mp-2.2.r1/../build/optee/bl2/stm32_hash.o
 .rodata.__func__.7027
                0x000000002fff4a1b       0x16 /home/charles/linux/code/tfa/mp157_alientek/tf-a-stm32mp-2.2.r1-r0/tf-a-stm32mp-2.2.r1/../build/optee/bl2/stm32_hash.o
 .rodata.stm32image_dev_init.str1.1
                0x000000002fff4a31       0x44 /home/charles/linux/code/tfa/mp157_alientek/tf-a-stm32mp-2.2.r1-r0/tf-a-stm32mp-2.2.r1/../build/optee/bl2/io_stm32image.o
 .rodata.stm32image_partition_read.str1.1
                0x000000002fff4a75       0x6c /home/charles/linux/code/tfa/mp157_alientek/tf-a-stm32mp-2.2.r1-r0/tf-a-stm32mp-2.2.r1/../build/optee/bl2/io_stm32image.o
 .rodata.stm32image_partition_size.str1.1
                0x000000002fff4ae1       0x19 /home/charles/linux/code/tfa/mp157_alientek/tf-a-stm32mp-2.2.r1-r0/tf-a-stm32mp-2.2.r1/../build/optee/bl2/io_stm32image.o
 .rodata.stm32image_partition_open.str1.1
                0x000000002fff4afa       0x1d /home/charles/linux/code/tfa/mp157_alientek/tf-a-stm32mp-2.2.r1-r0/tf-a-stm32mp-2.2.r1/../build/optee/bl2/io_stm32image.o
 .rodata.__func__.7190
                0x000000002fff4b17       0x1a /home/charles/linux/code/tfa/mp157_alientek/tf-a-stm32mp-2.2.r1-r0/tf-a-stm32mp-2.2.r1/../build/optee/bl2/io_stm32image.o
 .rodata.__func__.7204
                0x000000002fff4b31       0x1a /home/charles/linux/code/tfa/mp157_alientek/tf-a-stm32mp-2.2.r1-r0/tf-a-stm32mp-2.2.r1/../build/optee/bl2/io_stm32image.o
 *fill*         0x000000002fff4b4b        0x1 
 .rodata.stm32image_dev_connector
                0x000000002fff4b4c        0x4 /home/charles/linux/code/tfa/mp157_alientek/tf-a-stm32mp-2.2.r1-r0/tf-a-stm32mp-2.2.r1/../build/optee/bl2/io_stm32image.o
 .rodata.stm32image_dev_funcs
                0x000000002fff4b50       0x24 /home/charles/linux/code/tfa/mp157_alientek/tf-a-stm32mp-2.2.r1-r0/tf-a-stm32mp-2.2.r1/../build/optee/bl2/io_stm32image.o
 .rodata.boot_mmc.str1.1
                0x000000002fff4b74       0x79 /home/charles/linux/code/tfa/mp157_alientek/tf-a-stm32mp-2.2.r1-r0/tf-a-stm32mp-2.2.r1/../build/optee/bl2/bl2_io_storage.o
 .rodata.stm32mp_io_setup.str1.1
                0x000000002fff4bed       0xd4 /home/charles/linux/code/tfa/mp157_alientek/tf-a-stm32mp-2.2.r1-r0/tf-a-stm32mp-2.2.r1/../build/optee/bl2/bl2_io_storage.o
 *fill*         0x000000002fff4cc1        0x3 
 .rodata.bl2_block_spec
                0x000000002fff4cc4        0x8 /home/charles/linux/code/tfa/mp157_alientek/tf-a-stm32mp-2.2.r1-r0/tf-a-stm32mp-2.2.r1/../build/optee/bl2/bl2_io_storage.o
 .rodata.bl33_partition_spec
                0x000000002fff4ccc       0x34 /home/charles/linux/code/tfa/mp157_alientek/tf-a-stm32mp-2.2.r1-r0/tf-a-stm32mp-2.2.r1/../build/optee/bl2/bl2_io_storage.o
 .rodata.mmc_block_dev_spec
                0x000000002fff4d00       0x14 /home/charles/linux/code/tfa/mp157_alientek/tf-a-stm32mp-2.2.r1-r0/tf-a-stm32mp-2.2.r1/../build/optee/bl2/bl2_io_storage.o
 .rodata.optee_header_partition_spec
                0x000000002fff4d14       0x34 /home/charles/linux/code/tfa/mp157_alientek/tf-a-stm32mp-2.2.r1-r0/tf-a-stm32mp-2.2.r1/../build/optee/bl2/bl2_io_storage.o
 .rodata.optee_paged_partition_spec
                0x000000002fff4d48       0x34 /home/charles/linux/code/tfa/mp157_alientek/tf-a-stm32mp-2.2.r1-r0/tf-a-stm32mp-2.2.r1/../build/optee/bl2/bl2_io_storage.o
 .rodata.optee_pager_partition_spec
                0x000000002fff4d7c       0x34 /home/charles/linux/code/tfa/mp157_alientek/tf-a-stm32mp-2.2.r1-r0/tf-a-stm32mp-2.2.r1/../build/optee/bl2/bl2_io_storage.o
 .rodata.policies
                0x000000002fff4db0      0x168 /home/charles/linux/code/tfa/mp157_alientek/tf-a-stm32mp-2.2.r1-r0/tf-a-stm32mp-2.2.r1/../build/optee/bl2/bl2_io_storage.o
 .rodata.bl2_platform_setup.str1.1
                0x000000002fff4f18       0x57 /home/charles/linux/code/tfa/mp157_alientek/tf-a-stm32mp-2.2.r1-r0/tf-a-stm32mp-2.2.r1/../build/optee/bl2/bl2_plat_setup.o
 .rodata.bl2_el3_plat_arch_setup.str1.1
                0x000000002fff4f6f      0x2f5 /home/charles/linux/code/tfa/mp157_alientek/tf-a-stm32mp-2.2.r1-r0/tf-a-stm32mp-2.2.r1/../build/optee/bl2/bl2_plat_setup.o
 .rodata.bl2_plat_handle_post_image_load.str1.1
                0x000000002fff5264       0x1c /home/charles/linux/code/tfa/mp157_alientek/tf-a-stm32mp-2.2.r1-r0/tf-a-stm32mp-2.2.r1/../build/optee/bl2/bl2_plat_setup.o
 .rodata.debug_msg
                0x000000002fff5280      0x272 /home/charles/linux/code/tfa/mp157_alientek/tf-a-stm32mp-2.2.r1-r0/tf-a-stm32mp-2.2.r1/../build/optee/bl2/bl2_plat_setup.o
 .rodata.auth_mod_get_parent_id.str1.1
                0x000000002fff54f2       0x18 /home/charles/linux/code/tfa/mp157_alientek/tf-a-stm32mp-2.2.r1-r0/tf-a-stm32mp-2.2.r1/../build/optee/bl2/auth_mod.o
 .rodata.auth_mod_verify_img.str1.1
                0x000000002fff550a       0x42 /home/charles/linux/code/tfa/mp157_alientek/tf-a-stm32mp-2.2.r1-r0/tf-a-stm32mp-2.2.r1/../build/optee/bl2/auth_mod.o
 .rodata.crypto_mod_init.str1.1
                0x000000002fff554c       0x36 /home/charles/linux/code/tfa/mp157_alientek/tf-a-stm32mp-2.2.r1-r0/tf-a-stm32mp-2.2.r1/../build/optee/bl2/crypto_mod.o
 .rodata.img_parser_init.str1.1
                0x000000002fff5582       0x1e /home/charles/linux/code/tfa/mp157_alientek/tf-a-stm32mp-2.2.r1-r0/tf-a-stm32mp-2.2.r1/../build/optee/bl2/img_parser_mod.o
 .rodata.__compound_literal.0
                0x000000002fff55a0       0x50 /home/charles/linux/code/tfa/mp157_alientek/tf-a-stm32mp-2.2.r1-r0/tf-a-stm32mp-2.2.r1/../build/optee/bl2/stm32mp_cot.o
 .rodata.__compound_literal.1
                0x000000002fff55f0       0x50 /home/charles/linux/code/tfa/mp157_alientek/tf-a-stm32mp-2.2.r1-r0/tf-a-stm32mp-2.2.r1/../build/optee/bl2/stm32mp_cot.o
 .rodata.__compound_literal.2
                0x000000002fff5640       0x50 /home/charles/linux/code/tfa/mp157_alientek/tf-a-stm32mp-2.2.r1-r0/tf-a-stm32mp-2.2.r1/../build/optee/bl2/stm32mp_cot.o
 .rodata.__compound_literal.3
                0x000000002fff5690       0x50 /home/charles/linux/code/tfa/mp157_alientek/tf-a-stm32mp-2.2.r1-r0/tf-a-stm32mp-2.2.r1/../build/optee/bl2/stm32mp_cot.o
 .rodata.bl32_extra1_image
                0x000000002fff56e0       0x14 /home/charles/linux/code/tfa/mp157_alientek/tf-a-stm32mp-2.2.r1-r0/tf-a-stm32mp-2.2.r1/../build/optee/bl2/stm32mp_cot.o
 .rodata.bl32_extra2_image
                0x000000002fff56f4       0x14 /home/charles/linux/code/tfa/mp157_alientek/tf-a-stm32mp-2.2.r1-r0/tf-a-stm32mp-2.2.r1/../build/optee/bl2/stm32mp_cot.o
 .rodata.bl32_image
                0x000000002fff5708       0x14 /home/charles/linux/code/tfa/mp157_alientek/tf-a-stm32mp-2.2.r1-r0/tf-a-stm32mp-2.2.r1/../build/optee/bl2/stm32mp_cot.o
 .rodata.bl33_image
                0x000000002fff571c       0x14 /home/charles/linux/code/tfa/mp157_alientek/tf-a-stm32mp-2.2.r1-r0/tf-a-stm32mp-2.2.r1/../build/optee/bl2/stm32mp_cot.o
 .rodata.cot_desc
                0x000000002fff5730       0x5c /home/charles/linux/code/tfa/mp157_alientek/tf-a-stm32mp-2.2.r1-r0/tf-a-stm32mp-2.2.r1/../build/optee/bl2/stm32mp_cot.o
 .rodata.cot_desc_ptr
                0x000000002fff578c        0x4 /home/charles/linux/code/tfa/mp157_alientek/tf-a-stm32mp-2.2.r1-r0/tf-a-stm32mp-2.2.r1/../build/optee/bl2/stm32mp_cot.o
                0x000000002fff578c                cot_desc_ptr
 .rodata.crypto_verify_signature.str1.1
                0x000000002fff5790       0x8f /home/charles/linux/code/tfa/mp157_alientek/tf-a-stm32mp-2.2.r1-r0/tf-a-stm32mp-2.2.r1/../build/optee/bl2/stm32mp_crypto_lib.o
 .rodata.str1.1
                0x000000002fff581f       0x11 /home/charles/linux/code/tfa/mp157_alientek/tf-a-stm32mp-2.2.r1-r0/tf-a-stm32mp-2.2.r1/../build/optee/bl2/stm32mp_crypto_lib.o
 .rodata.crypto_lib_desc
                0x000000002fff5830       0x10 /home/charles/linux/code/tfa/mp157_alientek/tf-a-stm32mp-2.2.r1-r0/tf-a-stm32mp-2.2.r1/../build/optee/bl2/stm32mp_crypto_lib.o
                0x000000002fff5830                crypto_lib_desc
 .rodata.str1.1
                0x000000002fff5840       0x15 /home/charles/linux/code/tfa/mp157_alientek/tf-a-stm32mp-2.2.r1-r0/tf-a-stm32mp-2.2.r1/../build/optee/bl2/stm32mp_img_parser_lib.o
 .rodata.plat_get_rotpk_info.str1.1
                0x000000002fff5855        0x8 /home/charles/linux/code/tfa/mp157_alientek/tf-a-stm32mp-2.2.r1-r0/tf-a-stm32mp-2.2.r1/../build/optee/bl2/stm32mp_trusted_boot.o
 .rodata.plat_get_nv_ctr.str1.1
                0x000000002fff585d        0xe /home/charles/linux/code/tfa/mp157_alientek/tf-a-stm32mp-2.2.r1-r0/tf-a-stm32mp-2.2.r1/../build/optee/bl2/stm32mp_trusted_boot.o
 .rodata.mmc_device_state.str1.1
                0x000000002fff585d       0x20 /home/charles/linux/code/tfa/mp157_alientek/tf-a-stm32mp-2.2.r1-r0/tf-a-stm32mp-2.2.r1/../build/optee/bl2/mmc.o
 .rodata.mmc_read_blocks.str1.1
                0x000000002fff587d       0x12 /home/charles/linux/code/tfa/mp157_alientek/tf-a-stm32mp-2.2.r1-r0/tf-a-stm32mp-2.2.r1/../build/optee/bl2/mmc.o
 .rodata.mmc_init.str1.1
                0x000000002fff588f       0x95 /home/charles/linux/code/tfa/mp157_alientek/tf-a-stm32mp-2.2.r1-r0/tf-a-stm32mp-2.2.r1/../build/optee/bl2/mmc.o
 .rodata.sd_tran_speed_base
                0x000000002fff5924       0x10 /home/charles/linux/code/tfa/mp157_alientek/tf-a-stm32mp-2.2.r1-r0/tf-a-stm32mp-2.2.r1/../build/optee/bl2/mmc.o
 .rodata.tran_speed_base
                0x000000002fff5934       0x10 /home/charles/linux/code/tfa/mp157_alientek/tf-a-stm32mp-2.2.r1-r0/tf-a-stm32mp-2.2.r1/../build/optee/bl2/mmc.o
 .rodata.parse_gpt_entry.str1.1
                0x000000002fff5944       0x18 /home/charles/linux/code/tfa/mp157_alientek/tf-a-stm32mp-2.2.r1-r0/tf-a-stm32mp-2.2.r1/../build/optee/bl2/gpt.o
 .rodata.load_partition_table.str1.1
                0x000000002fff595c       0xad /home/charles/linux/code/tfa/mp157_alientek/tf-a-stm32mp-2.2.r1-r0/tf-a-stm32mp-2.2.r1/../build/optee/bl2/partition.o
 .rodata.mmc_dev_open.str1.1
                0x000000002fff5a09       0x17 /home/charles/linux/code/tfa/mp157_alientek/tf-a-stm32mp-2.2.r1-r0/tf-a-stm32mp-2.2.r1/../build/optee/bl2/io_mmc.o
 .rodata.mmc_dev_connector
                0x000000002fff5a20        0x4 /home/charles/linux/code/tfa/mp157_alientek/tf-a-stm32mp-2.2.r1-r0/tf-a-stm32mp-2.2.r1/../build/optee/bl2/io_mmc.o
 .rodata.mmc_dev_funcs
                0x000000002fff5a24       0x24 /home/charles/linux/code/tfa/mp157_alientek/tf-a-stm32mp-2.2.r1-r0/tf-a-stm32mp-2.2.r1/../build/optee/bl2/io_mmc.o
 .rodata.mmc_dev_info
                0x000000002fff5a48        0x8 /home/charles/linux/code/tfa/mp157_alientek/tf-a-stm32mp-2.2.r1-r0/tf-a-stm32mp-2.2.r1/../build/optee/bl2/io_mmc.o
 .rodata.dump_registers.str1.1
                0x000000002fff5a50      0x168 /home/charles/linux/code/tfa/mp157_alientek/tf-a-stm32mp-2.2.r1-r0/tf-a-stm32mp-2.2.r1/../build/optee/bl2/stm32_sdmmc2.o
 .rodata.stm32_sdmmc2_send_cmd.str1.1
                0x000000002fff5bb8       0xda /home/charles/linux/code/tfa/mp157_alientek/tf-a-stm32mp-2.2.r1-r0/tf-a-stm32mp-2.2.r1/../build/optee/bl2/stm32_sdmmc2.o
 .rodata.stm32_sdmmc2_read.str1.1
                0x000000002fff5c92       0x59 /home/charles/linux/code/tfa/mp157_alientek/tf-a-stm32mp-2.2.r1-r0/tf-a-stm32mp-2.2.r1/../build/optee/bl2/stm32_sdmmc2.o
 .rodata.stm32_sdmmc2_prepare.str1.1
                0x000000002fff5ceb        0xf /home/charles/linux/code/tfa/mp157_alientek/tf-a-stm32mp-2.2.r1-r0/tf-a-stm32mp-2.2.r1/../build/optee/bl2/stm32_sdmmc2.o
 .rodata.stm32_sdmmc2_mmc_init.str1.1
                0x000000002fff5cfa       0x4e /home/charles/linux/code/tfa/mp157_alientek/tf-a-stm32mp-2.2.r1-r0/tf-a-stm32mp-2.2.r1/../build/optee/bl2/stm32_sdmmc2.o
                                         0x66 (size before relaxing)
 .rodata.__func__.7255
                0x000000002fff5d48       0x1a /home/charles/linux/code/tfa/mp157_alientek/tf-a-stm32mp-2.2.r1-r0/tf-a-stm32mp-2.2.r1/../build/optee/bl2/stm32_sdmmc2.o
 .rodata.__func__.7316
                0x000000002fff5d62       0x12 /home/charles/linux/code/tfa/mp157_alientek/tf-a-stm32mp-2.2.r1-r0/tf-a-stm32mp-2.2.r1/../build/optee/bl2/stm32_sdmmc2.o
 .rodata.__func__.7345
                0x000000002fff5d74       0x16 /home/charles/linux/code/tfa/mp157_alientek/tf-a-stm32mp-2.2.r1-r0/tf-a-stm32mp-2.2.r1/../build/optee/bl2/stm32_sdmmc2.o
 *fill*         0x000000002fff5d8a        0x2 
 .rodata.stm32_sdmmc2_ops
                0x000000002fff5d8c       0x18 /home/charles/linux/code/tfa/mp157_alientek/tf-a-stm32mp-2.2.r1-r0/tf-a-stm32mp-2.2.r1/../build/optee/bl2/stm32_sdmmc2.o
 .rodata.nand_read_param_page.str1.1
                0x000000002fff5da4       0x32 /home/charles/linux/code/tfa/mp157_alientek/tf-a-stm32mp-2.2.r1-r0/tf-a-stm32mp-2.2.r1/../build/optee/bl2/raw_nand.o
 .rodata.nand_mtd_block_is_bad.str1.1
                0x000000002fff5dd6       0x12 /home/charles/linux/code/tfa/mp157_alientek/tf-a-stm32mp-2.2.r1-r0/tf-a-stm32mp-2.2.r1/../build/optee/bl2/raw_nand.o
 .rodata.nand_raw_init.str1.1
                0x000000002fff5de8       0x4a /home/charles/linux/code/tfa/mp157_alientek/tf-a-stm32mp-2.2.r1-r0/tf-a-stm32mp-2.2.r1/../build/optee/bl2/raw_nand.o
 .rodata.stm32_fmc2_read_page.str1.1
                0x000000002fff5e32       0x3e /home/charles/linux/code/tfa/mp157_alientek/tf-a-stm32mp-2.2.r1-r0/tf-a-stm32mp-2.2.r1/../build/optee/bl2/stm32_fmc2_nand.o
 .rodata.stm32_fmc2_init.str1.1
                0x000000002fff5e70       0x6b /home/charles/linux/code/tfa/mp157_alientek/tf-a-stm32mp-2.2.r1-r0/tf-a-stm32mp-2.2.r1/../build/optee/bl2/stm32_fmc2_nand.o
                                         0x6f (size before relaxing)
 .rodata.__func__.6688
                0x000000002fff5edb       0x17 /home/charles/linux/code/tfa/mp157_alientek/tf-a-stm32mp-2.2.r1-r0/tf-a-stm32mp-2.2.r1/../build/optee/bl2/stm32_fmc2_nand.o
 *fill*         0x000000002fff5ef2        0x2 
 .rodata.ctrl_ops
                0x000000002fff5ef4        0x8 /home/charles/linux/code/tfa/mp157_alientek/tf-a-stm32mp-2.2.r1-r0/tf-a-stm32mp-2.2.r1/../build/optee/bl2/stm32_fmc2_nand.o
 .rodata.spi_nand_mtd_block_is_bad.str1.1
                0x000000002fff5efc       0x12 /home/charles/linux/code/tfa/mp157_alientek/tf-a-stm32mp-2.2.r1-r0/tf-a-stm32mp-2.2.r1/../build/optee/bl2/spi_nand.o
 .rodata.spi_nor_init.str1.1
                0x000000002fff5f0e       0x39 /home/charles/linux/code/tfa/mp157_alientek/tf-a-stm32mp-2.2.r1-r0/tf-a-stm32mp-2.2.r1/../build/optee/bl2/spi_nor.o
 .rodata.spi_mem_exec_op.str1.1
                0x000000002fff5f47       0x2d /home/charles/linux/code/tfa/mp157_alientek/tf-a-stm32mp-2.2.r1-r0/tf-a-stm32mp-2.2.r1/../build/optee/bl2/spi_mem.o
 .rodata.spi_mem_init_slave.str1.1
                0x000000002fff5f74      0x100 /home/charles/linux/code/tfa/mp157_alientek/tf-a-stm32mp-2.2.r1-r0/tf-a-stm32mp-2.2.r1/../build/optee/bl2/spi_mem.o
                                        0x104 (size before relaxing)
 .rodata.stm32_qspi_wait_for_not_busy.str1.1
                0x000000002fff6074       0x13 /home/charles/linux/code/tfa/mp157_alientek/tf-a-stm32mp-2.2.r1-r0/tf-a-stm32mp-2.2.r1/../build/optee/bl2/stm32_qspi.o
 .rodata.stm32_qspi_exec_op.str1.1
                0x000000002fff6074       0x4e /home/charles/linux/code/tfa/mp157_alientek/tf-a-stm32mp-2.2.r1-r0/tf-a-stm32mp-2.2.r1/../build/optee/bl2/stm32_qspi.o
 .rodata.stm32_qspi_init.str1.1
                0x000000002fff60c2       0x2f /home/charles/linux/code/tfa/mp157_alientek/tf-a-stm32mp-2.2.r1-r0/tf-a-stm32mp-2.2.r1/../build/optee/bl2/stm32_qspi.o
                                         0x34 (size before relaxing)
 .rodata.__func__.6560
                0x000000002fff60f1       0x1d /home/charles/linux/code/tfa/mp157_alientek/tf-a-stm32mp-2.2.r1-r0/tf-a-stm32mp-2.2.r1/../build/optee/bl2/stm32_qspi.o
 .rodata.__func__.6572
                0x000000002fff610e       0x14 /home/charles/linux/code/tfa/mp157_alientek/tf-a-stm32mp-2.2.r1-r0/tf-a-stm32mp-2.2.r1/../build/optee/bl2/stm32_qspi.o
 .rodata.__func__.6590
                0x000000002fff6122       0x10 /home/charles/linux/code/tfa/mp157_alientek/tf-a-stm32mp-2.2.r1-r0/tf-a-stm32mp-2.2.r1/../build/optee/bl2/stm32_qspi.o
 .rodata.__func__.6615
                0x000000002fff6132       0x13 /home/charles/linux/code/tfa/mp157_alientek/tf-a-stm32mp-2.2.r1-r0/tf-a-stm32mp-2.2.r1/../build/optee/bl2/stm32_qspi.o
 *fill*         0x000000002fff6145        0x3 
 .rodata.stm32_qspi_bus_ops
                0x000000002fff6148       0x14 /home/charles/linux/code/tfa/mp157_alientek/tf-a-stm32mp-2.2.r1-r0/tf-a-stm32mp-2.2.r1/../build/optee/bl2/stm32_qspi.o
 .rodata.get_data_from_otp.str1.1
                0x000000002fff615c       0x74 /home/charles/linux/code/tfa/mp157_alientek/tf-a-stm32mp-2.2.r1-r0/tf-a-stm32mp-2.2.r1/../build/optee/bl2/stm32mp1_boot_device.o
 .rodata.set_reg.str1.1
                0x000000002fff61d0       0x21 /home/charles/linux/code/tfa/mp157_alientek/tf-a-stm32mp-2.2.r1-r0/tf-a-stm32mp-2.2.r1/../build/optee/bl2/stm32mp1_ddr.o
 .rodata.stm32mp1_ddr_init.str1.1
                0x000000002fff61f1       0x19 /home/charles/linux/code/tfa/mp157_alientek/tf-a-stm32mp-2.2.r1-r0/tf-a-stm32mp-2.2.r1/../build/optee/bl2/stm32mp1_ddr.o
 .rodata.str1.1
                0x000000002fff620a      0x307 /home/charles/linux/code/tfa/mp157_alientek/tf-a-stm32mp-2.2.r1-r0/tf-a-stm32mp-2.2.r1/../build/optee/bl2/stm32mp1_ddr.o
                                        0x320 (size before relaxing)
 *fill*         0x000000002fff6511        0x3 
 .rodata.ddr_map
                0x000000002fff6514       0x48 /home/charles/linux/code/tfa/mp157_alientek/tf-a-stm32mp-2.2.r1-r0/tf-a-stm32mp-2.2.r1/../build/optee/bl2/stm32mp1_ddr.o
 .rodata.ddr_perf
                0x000000002fff655c       0x88 /home/charles/linux/code/tfa/mp157_alientek/tf-a-stm32mp-2.2.r1-r0/tf-a-stm32mp-2.2.r1/../build/optee/bl2/stm32mp1_ddr.o
 .rodata.ddr_reg
                0x000000002fff65e4       0xc8 /home/charles/linux/code/tfa/mp157_alientek/tf-a-stm32mp-2.2.r1-r0/tf-a-stm32mp-2.2.r1/../build/optee/bl2/stm32mp1_ddr.o
 .rodata.ddr_registers
                0x000000002fff66ac       0x70 /home/charles/linux/code/tfa/mp157_alientek/tf-a-stm32mp-2.2.r1-r0/tf-a-stm32mp-2.2.r1/../build/optee/bl2/stm32mp1_ddr.o
 .rodata.ddr_timing
                0x000000002fff671c       0x60 /home/charles/linux/code/tfa/mp157_alientek/tf-a-stm32mp-2.2.r1-r0/tf-a-stm32mp-2.2.r1/../build/optee/bl2/stm32mp1_ddr.o
 .rodata.ddrphy_cal
                0x000000002fff677c       0x60 /home/charles/linux/code/tfa/mp157_alientek/tf-a-stm32mp-2.2.r1-r0/tf-a-stm32mp-2.2.r1/../build/optee/bl2/stm32mp1_ddr.o
 .rodata.ddrphy_reg
                0x000000002fff67dc       0x58 /home/charles/linux/code/tfa/mp157_alientek/tf-a-stm32mp-2.2.r1-r0/tf-a-stm32mp-2.2.r1/../build/optee/bl2/stm32mp1_ddr.o
 .rodata.ddrphy_timing
                0x000000002fff6834       0x50 /home/charles/linux/code/tfa/mp157_alientek/tf-a-stm32mp-2.2.r1-r0/tf-a-stm32mp-2.2.r1/../build/optee/bl2/stm32mp1_ddr.o
 .rodata.stm32mp1_ddr_setup.str1.1
                0x000000002fff6884      0x189 /home/charles/linux/code/tfa/mp157_alientek/tf-a-stm32mp-2.2.r1-r0/tf-a-stm32mp-2.2.r1/../build/optee/bl2/stm32mp1_ram.o
 .rodata.stm32mp1_ddr_clk_enable.str1.1
                0x000000002fff6a0d       0x2f /home/charles/linux/code/tfa/mp157_alientek/tf-a-stm32mp-2.2.r1-r0/tf-a-stm32mp-2.2.r1/../build/optee/bl2/stm32mp1_ram.o
 .rodata.__func__.6740
                0x000000002fff6a3c       0x13 /home/charles/linux/code/tfa/mp157_alientek/tf-a-stm32mp-2.2.r1-r0/tf-a-stm32mp-2.2.r1/../build/optee/bl2/stm32mp1_ram.o
 .rodata.flush_bl_params_desc_args.str1.1
                0x000000002fff6a4f       0x19 /home/charles/linux/code/tfa/mp157_alientek/tf-a-stm32mp-2.2.r1-r0/tf-a-stm32mp-2.2.r1/../build/optee/bl2/desc_image_load.o
 .rodata.tee_validate_header.str1.1
                0x000000002fff6a68       0x30 /home/charles/linux/code/tfa/mp157_alientek/tf-a-stm32mp-2.2.r1-r0/tf-a-stm32mp-2.2.r1/../build/optee/bl2/optee_utils.o
 .rodata.parse_optee_image.str1.1
                0x000000002fff6a98       0x4d /home/charles/linux/code/tfa/mp157_alientek/tf-a-stm32mp-2.2.r1-r0/tf-a-stm32mp-2.2.r1/../build/optee/bl2/optee_utils.o
 .rodata.get_optee_header_ep.str1.1
                0x000000002fff6ae5       0x18 /home/charles/linux/code/tfa/mp157_alientek/tf-a-stm32mp-2.2.r1-r0/tf-a-stm32mp-2.2.r1/../build/optee/bl2/optee_utils.o
 .rodata.parse_optee_header.str1.1
                0x000000002fff6afd       0xee /home/charles/linux/code/tfa/mp157_alientek/tf-a-stm32mp-2.2.r1-r0/tf-a-stm32mp-2.2.r1/../build/optee/bl2/optee_utils.o
 .rodata.bl2_load_images.str1.1
                0x000000002fff6beb      0x114 /home/charles/linux/code/tfa/mp157_alientek/tf-a-stm32mp-2.2.r1-r0/tf-a-stm32mp-2.2.r1/../build/optee/bl2/bl2_image_load_v2.o
 .rodata.bl2_main.str1.1
                0x000000002fff6cff       0x1e /home/charles/linux/code/tfa/mp157_alientek/tf-a-stm32mp-2.2.r1-r0/tf-a-stm32mp-2.2.r1/../build/optee/bl2/bl2_main.o
 .rodata.load_auth_image_internal.str1.1
                0x000000002fff6d1d       0xd8 /home/charles/linux/code/tfa/mp157_alientek/tf-a-stm32mp-2.2.r1-r0/tf-a-stm32mp-2.2.r1/../build/optee/bl2/bl_common.o
                                        0x12d (size before relaxing)
 .rodata.print_entry_point_info.str1.1
                0x000000002fff6df5       0x2c /home/charles/linux/code/tfa/mp157_alientek/tf-a-stm32mp-2.2.r1-r0/tf-a-stm32mp-2.2.r1/../build/optee/bl2/bl_common.o
 .rodata.tf_log.str1.1
                0x000000002fff6e21       0x10 /home/charles/linux/code/tfa/mp157_alientek/tf-a-stm32mp-2.2.r1-r0/tf-a-stm32mp-2.2.r1/../build/optee/bl2/tf_log.o
 .rodata.console_unregister.str1.1
                0x000000002fff6e31       0x20 /home/charles/linux/code/tfa/mp157_alientek/tf-a-stm32mp-2.2.r1-r0/tf-a-stm32mp-2.2.r1/../build/optee/bl2/multi_console.o
 .rodata.str1.1
                0x000000002fff6e51       0x32 /home/charles/linux/code/tfa/mp157_alientek/tf-a-stm32mp-2.2.r1-r0/tf-a-stm32mp-2.2.r1/../build/optee/bl2/plat_log_common.o
 *fill*         0x000000002fff6e83        0x1 
 .rodata.plat_prefix_str
                0x000000002fff6e84       0x14 /home/charles/linux/code/tfa/mp157_alientek/tf-a-stm32mp-2.2.r1-r0/tf-a-stm32mp-2.2.r1/../build/optee/bl2/plat_log_common.o
 .rodata.stm32_get_gpio_bank_base.str1.1
                0x000000002fff6e98       0x20 /home/charles/linux/code/tfa/mp157_alientek/tf-a-stm32mp-2.2.r1-r0/tf-a-stm32mp-2.2.r1/../build/optee/bl2/stm32mp_common.o
 .rodata.stm32mp_check_header.str1.1
                0x000000002fff6eb8       0x41 /home/charles/linux/code/tfa/mp157_alientek/tf-a-stm32mp-2.2.r1-r0/tf-a-stm32mp-2.2.r1/../build/optee/bl2/stm32mp_common.o
 .rodata.stm32_get_gpio_bank_clock.str1.1
                0x000000002fff6ef9       0x24 /home/charles/linux/code/tfa/mp157_alientek/tf-a-stm32mp-2.2.r1-r0/tf-a-stm32mp-2.2.r1/../build/optee/bl2/stm32mp1_private.o
 .rodata.stm32_get_otp_value_from_idx.str1.1
                0x000000002fff6f1d       0x1a /home/charles/linux/code/tfa/mp157_alientek/tf-a-stm32mp-2.2.r1-r0/tf-a-stm32mp-2.2.r1/../build/optee/bl2/stm32mp1_private.o
 .rodata.stm32_get_otp_value.str1.1
                0x000000002fff6f37       0x16 /home/charles/linux/code/tfa/mp157_alientek/tf-a-stm32mp-2.2.r1-r0/tf-a-stm32mp-2.2.r1/../build/optee/bl2/stm32mp1_private.o
 .rodata.get_part_number.str1.1
                0x000000002fff6f4d       0x36 /home/charles/linux/code/tfa/mp157_alientek/tf-a-stm32mp-2.2.r1-r0/tf-a-stm32mp-2.2.r1/../build/optee/bl2/stm32mp1_private.o
 .rodata.stm32mp_print_cpuinfo.str1.1
                0x000000002fff6f83       0x92 /home/charles/linux/code/tfa/mp157_alientek/tf-a-stm32mp-2.2.r1-r0/tf-a-stm32mp-2.2.r1/../build/optee/bl2/stm32mp1_private.o
                                         0x99 (size before relaxing)
 .rodata.stm32mp_print_boardinfo.str1.1
                0x000000002fff7015       0x2e /home/charles/linux/code/tfa/mp157_alientek/tf-a-stm32mp-2.2.r1-r0/tf-a-stm32mp-2.2.r1/../build/optee/bl2/stm32mp1_private.o
 .rodata.stm32mp_is_closed_device.str1.1
                0x000000002fff7043        0x9 /home/charles/linux/code/tfa/mp157_alientek/tf-a-stm32mp-2.2.r1-r0/tf-a-stm32mp-2.2.r1/../build/optee/bl2/stm32mp1_private.o
 .rodata.stm32_iwdg_get_otp_config.str1.1
                0x000000002fff704c        0x8 /home/charles/linux/code/tfa/mp157_alientek/tf-a-stm32mp-2.2.r1-r0/tf-a-stm32mp-2.2.r1/../build/optee/bl2/stm32mp1_private.o
 .rodata.plat_bind_regulator.str1.1
                0x000000002fff7054       0x14 /home/charles/linux/code/tfa/mp157_alientek/tf-a-stm32mp-2.2.r1-r0/tf-a-stm32mp-2.2.r1/../build/optee/bl2/stm32mp1_private.o
 .rodata.str1.1
                0x000000002fff7068        0xc /home/charles/linux/code/tfa/mp157_alientek/tf-a-stm32mp-2.2.r1-r0/tf-a-stm32mp-2.2.r1/../build/optee/bl2/stm32mp1_private.o
 .rodata.CSWTCH.52
                0x000000002fff7074       0x10 /home/charles/linux/code/tfa/mp157_alientek/tf-a-stm32mp-2.2.r1-r0/tf-a-stm32mp-2.2.r1/../build/optee/bl2/stm32mp1_private.o
 *fill*         0x000000002fff7084        0x4 
 .rodata.stm32mp1_mmap
                0x000000002fff7088       0x60 /home/charles/linux/code/tfa/mp157_alientek/tf-a-stm32mp-2.2.r1-r0/tf-a-stm32mp-2.2.r1/../build/optee/bl2/stm32mp1_private.o
 .rodata.xlat_arch_regime_get_xn_desc.str1.1
                0x000000002fff70e8       0x2e /home/charles/linux/code/tfa/mp157_alientek/tf-a-stm32mp-2.2.r1-r0/tf-a-stm32mp-2.2.r1/../build/optee/bl2/xlat_tables_arch.o
 .rodata.mmap_add_alloc_va.str1.1
                0x000000002fff7116       0x29 /home/charles/linux/code/tfa/mp157_alientek/tf-a-stm32mp-2.2.r1-r0/tf-a-stm32mp-2.2.r1/../build/optee/bl2/xlat_tables_context.o
 .rodata.xlat_table_get_index.str1.1
                0x000000002fff713f       0x26 /home/charles/linux/code/tfa/mp157_alientek/tf-a-stm32mp-2.2.r1-r0/tf-a-stm32mp-2.2.r1/../build/optee/bl2/xlat_tables_core.o
 .rodata.mmap_add_region_ctx.str1.1
                0x000000002fff7165       0x2b /home/charles/linux/code/tfa/mp157_alientek/tf-a-stm32mp-2.2.r1-r0/tf-a-stm32mp-2.2.r1/../build/optee/bl2/xlat_tables_core.o
 .rodata.init_xlat_tables_ctx.str1.1
                0x000000002fff7190       0x4f /home/charles/linux/code/tfa/mp157_alientek/tf-a-stm32mp-2.2.r1-r0/tf-a-stm32mp-2.2.r1/../build/optee/bl2/xlat_tables_core.o
 .rodata.tzc400_set_action.str1.1
                0x000000002fff71df       0x19 /home/charles/linux/code/tfa/mp157_alientek/tf-a-stm32mp-2.2.r1-r0/tf-a-stm32mp-2.2.r1/../build/optee/bl2/tzc400.o
 .rodata.tzc400_init.str1.1
                0x000000002fff71f8       0x24 /home/charles/linux/code/tfa/mp157_alientek/tf-a-stm32mp-2.2.r1-r0/tf-a-stm32mp-2.2.r1/../build/optee/bl2/tzc400.o
 .rodata.tzc400_enable_filters.str1.1
                0x000000002fff721c       0x30 /home/charles/linux/code/tfa/mp157_alientek/tf-a-stm32mp-2.2.r1-r0/tf-a-stm32mp-2.2.r1/../build/optee/bl2/tzc400.o
 .rodata.udelay.str1.1
                0x000000002fff724c       0x22 /home/charles/linux/code/tfa/mp157_alientek/tf-a-stm32mp-2.2.r1-r0/tf-a-stm32mp-2.2.r1/../build/optee/bl2/delay_timer.o
 .rodata.generic_delay_timer_init.str1.1
                0x000000002fff726e       0x2a /home/charles/linux/code/tfa/mp157_alientek/tf-a-stm32mp-2.2.r1-r0/tf-a-stm32mp-2.2.r1/../build/optee/bl2/generic_delay_timer.o
 .rodata.otp_bank_offset.str1.1
                0x000000002fff7298       0x18 /home/charles/linux/code/tfa/mp157_alientek/tf-a-stm32mp-2.2.r1-r0/tf-a-stm32mp-2.2.r1/../build/optee/bl2/bsec2.o
 .rodata.bsec_find_otp_name_in_dt.str1.1
                0x000000002fff72b0       0x85 /home/charles/linux/code/tfa/mp157_alientek/tf-a-stm32mp-2.2.r1-r0/tf-a-stm32mp-2.2.r1/../build/optee/bl2/bsec2.o
                                         0x89 (size before relaxing)
 .rodata.bsec_probe.str1.1
                0x000000002fff7335       0x12 /home/charles/linux/code/tfa/mp157_alientek/tf-a-stm32mp-2.2.r1-r0/tf-a-stm32mp-2.2.r1/../build/optee/bl2/bsec2.o
 .rodata.bsec_shadow_register.str1.1
                0x000000002fff7347       0x29 /home/charles/linux/code/tfa/mp157_alientek/tf-a-stm32mp-2.2.r1-r0/tf-a-stm32mp-2.2.r1/../build/optee/bl2/bsec2.o
 .rodata.bsec_write_otp.str1.1
                0x000000002fff7370       0x2a /home/charles/linux/code/tfa/mp157_alientek/tf-a-stm32mp-2.2.r1-r0/tf-a-stm32mp-2.2.r1/../build/optee/bl2/bsec2.o
 .rodata.bsec_program_otp.str1.1
                0x000000002fff739a       0xa8 /home/charles/linux/code/tfa/mp157_alientek/tf-a-stm32mp-2.2.r1-r0/tf-a-stm32mp-2.2.r1/../build/optee/bl2/bsec2.o
 .rodata.bsec_shadow_read_otp.str1.1
                0x000000002fff7442       0x37 /home/charles/linux/code/tfa/mp157_alientek/tf-a-stm32mp-2.2.r1-r0/tf-a-stm32mp-2.2.r1/../build/optee/bl2/bsec2.o
 .rodata.fdt_osc_read_freq.str1.1
                0x000000002fff7479       0x18 /home/charles/linux/code/tfa/mp157_alientek/tf-a-stm32mp-2.2.r1-r0/tf-a-stm32mp-2.2.r1/../build/optee/bl2/stm32mp_clkfunc.o
 .rodata.fdt_get_rcc_node.str1.1
                0x000000002fff7491       0x10 /home/charles/linux/code/tfa/mp157_alientek/tf-a-stm32mp-2.2.r1-r0/tf-a-stm32mp-2.2.r1/../build/optee/bl2/stm32mp_clkfunc.o
 .rodata.fdt_get_clock_id.str1.1
                0x000000002fff74a1       0x10 /home/charles/linux/code/tfa/mp157_alientek/tf-a-stm32mp-2.2.r1-r0/tf-a-stm32mp-2.2.r1/../build/optee/bl2/stm32mp_clkfunc.o
                                          0x7 (size before relaxing)
 .rodata.fdt_is_pll1_predefined.str1.1
                0x000000002fff74a1        0x9 /home/charles/linux/code/tfa/mp157_alientek/tf-a-stm32mp-2.2.r1-r0/tf-a-stm32mp-2.2.r1/../build/optee/bl2/stm32mp_clkfunc.o
 .rodata.stm32mp1_pll_stop.str1.1
                0x000000002fff74aa       0x22 /home/charles/linux/code/tfa/mp157_alientek/tf-a-stm32mp-2.2.r1-r0/tf-a-stm32mp-2.2.r1/../build/optee/bl2/stm32mp1_clk.o
 .rodata.stm32mp1_check_pll_conf.str1.1
                0x000000002fff74cc        0x5 /home/charles/linux/code/tfa/mp157_alientek/tf-a-stm32mp-2.2.r1-r0/tf-a-stm32mp-2.2.r1/../build/optee/bl2/stm32mp1_clk.o
 .rodata.stm32mp1_clk_get_gated_id.str1.1
                0x000000002fff74d1       0x1a /home/charles/linux/code/tfa/mp157_alientek/tf-a-stm32mp-2.2.r1-r0/tf-a-stm32mp-2.2.r1/../build/optee/bl2/stm32mp1_clk.o
 .rodata.__stm32mp1_clk_enable.str1.1
                0x000000002fff74eb       0x1c /home/charles/linux/code/tfa/mp157_alientek/tf-a-stm32mp-2.2.r1-r0/tf-a-stm32mp-2.2.r1/../build/optee/bl2/stm32mp1_clk.o
 .rodata.__stm32mp1_clk_disable.str1.1
                0x000000002fff7507       0x1d /home/charles/linux/code/tfa/mp157_alientek/tf-a-stm32mp-2.2.r1-r0/tf-a-stm32mp-2.2.r1/../build/optee/bl2/stm32mp1_clk.o
 .rodata.stm32mp1_set_clkdiv.str1.1
                0x000000002fff7524       0x27 /home/charles/linux/code/tfa/mp157_alientek/tf-a-stm32mp-2.2.r1-r0/tf-a-stm32mp-2.2.r1/../build/optee/bl2/stm32mp1_clk.o
 .rodata.stm32mp1_osc_wait.str1.1
                0x000000002fff754b       0x2c /home/charles/linux/code/tfa/mp157_alientek/tf-a-stm32mp-2.2.r1-r0/tf-a-stm32mp-2.2.r1/../build/optee/bl2/stm32mp1_clk.o
 .rodata.stm32mp1_set_clksrc.str1.1
                0x000000002fff7577       0x27 /home/charles/linux/code/tfa/mp157_alientek/tf-a-stm32mp-2.2.r1-r0/tf-a-stm32mp-2.2.r1/../build/optee/bl2/stm32mp1_clk.o
 .rodata.stm32mp1_pll_output.str1.1
                0x000000002fff759e       0x23 /home/charles/linux/code/tfa/mp157_alientek/tf-a-stm32mp-2.2.r1-r0/tf-a-stm32mp-2.2.r1/../build/optee/bl2/stm32mp1_clk.o
 .rodata.stm32mp1_clk_get_maxfreq_opp.str1.1
                0x000000002fff75c1       0x1e /home/charles/linux/code/tfa/mp157_alientek/tf-a-stm32mp-2.2.r1-r0/tf-a-stm32mp-2.2.r1/../build/optee/bl2/stm32mp1_clk.o
 .rodata.stm32mp1_clk_init.str1.1
                0x000000002fff75df       0x8b /home/charles/linux/code/tfa/mp157_alientek/tf-a-stm32mp-2.2.r1-r0/tf-a-stm32mp-2.2.r1/../build/optee/bl2/stm32mp1_clk.o
                                         0x8f (size before relaxing)
 .rodata.str1.1
                0x000000002fff766a       0x31 /home/charles/linux/code/tfa/mp157_alientek/tf-a-stm32mp-2.2.r1-r0/tf-a-stm32mp-2.2.r1/../build/optee/bl2/stm32mp1_clk.o
 .rodata.__func__.7250
                0x000000002fff769b       0x1a /home/charles/linux/code/tfa/mp157_alientek/tf-a-stm32mp-2.2.r1-r0/tf-a-stm32mp-2.2.r1/../build/optee/bl2/stm32mp1_clk.o
 .rodata.axiss_parents
                0x000000002fff76b5        0x3 /home/charles/linux/code/tfa/mp157_alientek/tf-a-stm32mp-2.2.r1-r0/tf-a-stm32mp-2.2.r1/../build/optee/bl2/stm32mp1_clk.o
 .rodata.fmc_parents
                0x000000002fff76b8        0x4 /home/charles/linux/code/tfa/mp157_alientek/tf-a-stm32mp-2.2.r1-r0/tf-a-stm32mp-2.2.r1/../build/optee/bl2/stm32mp1_clk.o
 .rodata.i2c12_parents
                0x000000002fff76bc        0x4 /home/charles/linux/code/tfa/mp157_alientek/tf-a-stm32mp-2.2.r1-r0/tf-a-stm32mp-2.2.r1/../build/optee/bl2/stm32mp1_clk.o
 .rodata.i2c35_parents
                0x000000002fff76c0        0x4 /home/charles/linux/code/tfa/mp157_alientek/tf-a-stm32mp-2.2.r1-r0/tf-a-stm32mp-2.2.r1/../build/optee/bl2/stm32mp1_clk.o
 .rodata.i2c46_parents
                0x000000002fff76c4        0x4 /home/charles/linux/code/tfa/mp157_alientek/tf-a-stm32mp-2.2.r1-r0/tf-a-stm32mp-2.2.r1/../build/optee/bl2/stm32mp1_clk.o
 .rodata.mcuss_parents
                0x000000002fff76c8        0x4 /home/charles/linux/code/tfa/mp157_alientek/tf-a-stm32mp-2.2.r1-r0/tf-a-stm32mp-2.2.r1/../build/optee/bl2/stm32mp1_clk.o
 .rodata.mpu_parents
                0x000000002fff76cc        0x4 /home/charles/linux/code/tfa/mp157_alientek/tf-a-stm32mp-2.2.r1-r0/tf-a-stm32mp-2.2.r1/../build/optee/bl2/stm32mp1_clk.o
 .rodata.parent_id_clock_id
                0x000000002fff76d0       0x22 /home/charles/linux/code/tfa/mp157_alientek/tf-a-stm32mp-2.2.r1-r0/tf-a-stm32mp-2.2.r1/../build/optee/bl2/stm32mp1_clk.o
 .rodata.per_parents
                0x000000002fff76f2        0x3 /home/charles/linux/code/tfa/mp157_alientek/tf-a-stm32mp-2.2.r1-r0/tf-a-stm32mp-2.2.r1/../build/optee/bl2/stm32mp1_clk.o
 .rodata.pllncfgr2
                0x000000002fff76f5        0x3 /home/charles/linux/code/tfa/mp157_alientek/tf-a-stm32mp-2.2.r1-r0/tf-a-stm32mp-2.2.r1/../build/optee/bl2/stm32mp1_clk.o
 .rodata.qspi_parents
                0x000000002fff76f8        0x4 /home/charles/linux/code/tfa/mp157_alientek/tf-a-stm32mp-2.2.r1-r0/tf-a-stm32mp-2.2.r1/../build/optee/bl2/stm32mp1_clk.o
 .rodata.rng1_parents
                0x000000002fff76fc        0x4 /home/charles/linux/code/tfa/mp157_alientek/tf-a-stm32mp-2.2.r1-r0/tf-a-stm32mp-2.2.r1/../build/optee/bl2/stm32mp1_clk.o
 .rodata.rtc_parents
                0x000000002fff7700        0x4 /home/charles/linux/code/tfa/mp157_alientek/tf-a-stm32mp-2.2.r1-r0/tf-a-stm32mp-2.2.r1/../build/optee/bl2/stm32mp1_clk.o
 .rodata.sdmmc12_parents
                0x000000002fff7704        0x4 /home/charles/linux/code/tfa/mp157_alientek/tf-a-stm32mp-2.2.r1-r0/tf-a-stm32mp-2.2.r1/../build/optee/bl2/stm32mp1_clk.o
 .rodata.sdmmc3_parents
                0x000000002fff7708        0x4 /home/charles/linux/code/tfa/mp157_alientek/tf-a-stm32mp-2.2.r1-r0/tf-a-stm32mp-2.2.r1/../build/optee/bl2/stm32mp1_clk.o
 .rodata.spi6_parents
                0x000000002fff770c        0x6 /home/charles/linux/code/tfa/mp157_alientek/tf-a-stm32mp-2.2.r1-r0/tf-a-stm32mp-2.2.r1/../build/optee/bl2/stm32mp1_clk.o
 .rodata.stgen_parents
                0x000000002fff7712        0x2 /home/charles/linux/code/tfa/mp157_alientek/tf-a-stm32mp-2.2.r1-r0/tf-a-stm32mp-2.2.r1/../build/optee/bl2/stm32mp1_clk.o
 .rodata.stm32mp1_axi_div
                0x000000002fff7714        0x8 /home/charles/linux/code/tfa/mp157_alientek/tf-a-stm32mp-2.2.r1-r0/tf-a-stm32mp-2.2.r1/../build/optee/bl2/stm32mp1_clk.o
 .rodata.stm32mp1_clk_gate
                0x000000002fff771c      0x1b8 /home/charles/linux/code/tfa/mp157_alientek/tf-a-stm32mp-2.2.r1-r0/tf-a-stm32mp-2.2.r1/../build/optee/bl2/stm32mp1_clk.o
 .rodata.stm32mp1_clk_pll
                0x000000002fff78d4       0x80 /home/charles/linux/code/tfa/mp157_alientek/tf-a-stm32mp-2.2.r1-r0/tf-a-stm32mp-2.2.r1/../build/optee/bl2/stm32mp1_clk.o
 .rodata.stm32mp1_clk_sel
                0x000000002fff7954      0x108 /home/charles/linux/code/tfa/mp157_alientek/tf-a-stm32mp-2.2.r1-r0/tf-a-stm32mp-2.2.r1/../build/optee/bl2/stm32mp1_clk.o
 .rodata.stm32mp1_mcu_div
                0x000000002fff7a5c       0x10 /home/charles/linux/code/tfa/mp157_alientek/tf-a-stm32mp-2.2.r1-r0/tf-a-stm32mp-2.2.r1/../build/optee/bl2/stm32mp1_clk.o
 .rodata.stm32mp1_mpu_apbx_div
                0x000000002fff7a6c        0x8 /home/charles/linux/code/tfa/mp157_alientek/tf-a-stm32mp-2.2.r1-r0/tf-a-stm32mp-2.2.r1/../build/optee/bl2/stm32mp1_clk.o
 .rodata.stm32mp1_pll
                0x000000002fff7a74        0x6 /home/charles/linux/code/tfa/mp157_alientek/tf-a-stm32mp-2.2.r1-r0/tf-a-stm32mp-2.2.r1/../build/optee/bl2/stm32mp1_clk.o
 .rodata.uart234578_parents
                0x000000002fff7a7a        0x5 /home/charles/linux/code/tfa/mp157_alientek/tf-a-stm32mp-2.2.r1-r0/tf-a-stm32mp-2.2.r1/../build/optee/bl2/stm32mp1_clk.o
 .rodata.uart6_parents
                0x000000002fff7a7f        0x5 /home/charles/linux/code/tfa/mp157_alientek/tf-a-stm32mp-2.2.r1-r0/tf-a-stm32mp-2.2.r1/../build/optee/bl2/stm32mp1_clk.o
 .rodata.usart1_parents
                0x000000002fff7a84        0x6 /home/charles/linux/code/tfa/mp157_alientek/tf-a-stm32mp-2.2.r1-r0/tf-a-stm32mp-2.2.r1/../build/optee/bl2/stm32mp1_clk.o
 .rodata.usbo_parents
                0x000000002fff7a8a        0x2 /home/charles/linux/code/tfa/mp157_alientek/tf-a-stm32mp-2.2.r1-r0/tf-a-stm32mp-2.2.r1/../build/optee/bl2/stm32mp1_clk.o
 .rodata.usbphy_parents
                0x000000002fff7a8c        0x3 /home/charles/linux/code/tfa/mp157_alientek/tf-a-stm32mp-2.2.r1-r0/tf-a-stm32mp-2.2.r1/../build/optee/bl2/stm32mp1_clk.o
 .rodata.ddr_set_sr_mode.str1.1
                0x000000002fff7a8f       0x1c /home/charles/linux/code/tfa/mp157_alientek/tf-a-stm32mp-2.2.r1-r0/tf-a-stm32mp-2.2.r1/../build/optee/bl2/stm32mp1_ddr_helpers.o
 .rodata.CSWTCH.26
                0x000000002fff7aab        0xa /home/charles/linux/code/tfa/mp157_alientek/tf-a-stm32mp-2.2.r1-r0/tf-a-stm32mp-2.2.r1/../build/optee/bl2/stm32mp1_ddr_helpers.o
 .rodata.set_gpio.str1.1
                0x000000002fff7ab5       0x1d /home/charles/linux/code/tfa/mp157_alientek/tf-a-stm32mp-2.2.r1-r0/tf-a-stm32mp-2.2.r1/../build/optee/bl2/stm32_gpio.o
 .rodata.dt_set_pinctrl_config.str1.1
                0x000000002fff7ad2       0x75 /home/charles/linux/code/tfa/mp157_alientek/tf-a-stm32mp-2.2.r1-r0/tf-a-stm32mp-2.2.r1/../build/optee/bl2/stm32_gpio.o
                                         0x79 (size before relaxing)
 .rodata.stm32_i2c_get_setup_from_fdt.str1.1
                0x000000002fff7b47       0x4d /home/charles/linux/code/tfa/mp157_alientek/tf-a-stm32mp-2.2.r1-r0/tf-a-stm32mp-2.2.r1/../build/optee/bl2/stm32_i2c.o
                                         0x5d (size before relaxing)
 .rodata.stm32_i2c_init.str1.1
                0x000000002fff7b94      0x146 /home/charles/linux/code/tfa/mp157_alientek/tf-a-stm32mp-2.2.r1-r0/tf-a-stm32mp-2.2.r1/../build/optee/bl2/stm32_i2c.o
 *fill*         0x000000002fff7cda        0x2 
 .rodata.i2c_specs
                0x000000002fff7cdc       0x60 /home/charles/linux/code/tfa/mp157_alientek/tf-a-stm32mp-2.2.r1-r0/tf-a-stm32mp-2.2.r1/../build/optee/bl2/stm32_i2c.o
 .rodata.stm32_iwdg_init.str1.1
                0x000000002fff7d3c       0x63 /home/charles/linux/code/tfa/mp157_alientek/tf-a-stm32mp-2.2.r1-r0/tf-a-stm32mp-2.2.r1/../build/optee/bl2/stm32_iwdg.o
 .rodata.dt_get_pmic_node.str1.1
                0x000000002fff7d9f        0xb /home/charles/linux/code/tfa/mp157_alientek/tf-a-stm32mp-2.2.r1-r0/tf-a-stm32mp-2.2.r1/../build/optee/bl2/stm32mp_pmic.o
 .rodata.dt_pmic_get_regulator_voltage.str1.1
                0x000000002fff7daa       0x30 /home/charles/linux/code/tfa/mp157_alientek/tf-a-stm32mp-2.2.r1-r0/tf-a-stm32mp-2.2.r1/../build/optee/bl2/stm32mp_pmic.o
 .rodata.pmic_operate.str1.1
                0x000000002fff7dda       0x53 /home/charles/linux/code/tfa/mp157_alientek/tf-a-stm32mp-2.2.r1-r0/tf-a-stm32mp-2.2.r1/../build/optee/bl2/stm32mp_pmic.o
                                         0x72 (size before relaxing)
 .rodata.dt_pmic_find_supply.str1.1
                0x000000002fff7e2d        0xf /home/charles/linux/code/tfa/mp157_alientek/tf-a-stm32mp-2.2.r1-r0/tf-a-stm32mp-2.2.r1/../build/optee/bl2/stm32mp_pmic.o
 .rodata.initialize_pmic_i2c.str1.1
                0x000000002fff7e3c       0x55 /home/charles/linux/code/tfa/mp157_alientek/tf-a-stm32mp-2.2.r1-r0/tf-a-stm32mp-2.2.r1/../build/optee/bl2/stm32mp_pmic.o
                                         0x59 (size before relaxing)
 .rodata.is_pmic_regulator.str1.1
                0x000000002fff7e91       0x16 /home/charles/linux/code/tfa/mp157_alientek/tf-a-stm32mp-2.2.r1-r0/tf-a-stm32mp-2.2.r1/../build/optee/bl2/stm32mp_pmic.o
 .rodata.print_pmic_info_and_debug.str1.1
                0x000000002fff7ea7       0x31 /home/charles/linux/code/tfa/mp157_alientek/tf-a-stm32mp-2.2.r1-r0/tf-a-stm32mp-2.2.r1/../build/optee/bl2/stm32mp_pmic.o
 .rodata.pmic_ddr_power_init.str1.1
                0x000000002fff7ed8       0x14 /home/charles/linux/code/tfa/mp157_alientek/tf-a-stm32mp-2.2.r1-r0/tf-a-stm32mp-2.2.r1/../build/optee/bl2/stm32mp_pmic.o
 .rodata.pmic_regu_ops
                0x000000002fff7eec        0x8 /home/charles/linux/code/tfa/mp157_alientek/tf-a-stm32mp-2.2.r1-r0/tf-a-stm32mp-2.2.r1/../build/optee/bl2/stm32mp_pmic.o
 .rodata.stpmic1_regulator_voltage_get.str1.1
                0x000000002fff7ef4        0xe /home/charles/linux/code/tfa/mp157_alientek/tf-a-stm32mp-2.2.r1-r0/tf-a-stm32mp-2.2.r1/../build/optee/bl2/stpmic1.o
 .rodata.str1.1
                0x000000002fff7f02       0x3c /home/charles/linux/code/tfa/mp157_alientek/tf-a-stm32mp-2.2.r1-r0/tf-a-stm32mp-2.2.r1/../build/optee/bl2/stpmic1.o
                                         0x50 (size before relaxing)
 .rodata.buck1_voltage_table
                0x000000002fff7f3e       0x80 /home/charles/linux/code/tfa/mp157_alientek/tf-a-stm32mp-2.2.r1-r0/tf-a-stm32mp-2.2.r1/../build/optee/bl2/stpmic1.o
 .rodata.buck2_voltage_table
                0x000000002fff7fbe       0x4a /home/charles/linux/code/tfa/mp157_alientek/tf-a-stm32mp-2.2.r1-r0/tf-a-stm32mp-2.2.r1/../build/optee/bl2/stpmic1.o
 .rodata.buck3_voltage_table
                0x000000002fff8008       0x70 /home/charles/linux/code/tfa/mp157_alientek/tf-a-stm32mp-2.2.r1-r0/tf-a-stm32mp-2.2.r1/../build/optee/bl2/stpmic1.o
 .rodata.buck4_voltage_table
                0x000000002fff8078       0x7a /home/charles/linux/code/tfa/mp157_alientek/tf-a-stm32mp-2.2.r1-r0/tf-a-stm32mp-2.2.r1/../build/optee/bl2/stpmic1.o
 .rodata.fixed_5v_voltage_table
                0x000000002fff80f2        0x2 /home/charles/linux/code/tfa/mp157_alientek/tf-a-stm32mp-2.2.r1-r0/tf-a-stm32mp-2.2.r1/../build/optee/bl2/stpmic1.o
 .rodata.ldo1_voltage_table
                0x000000002fff80f4       0x32 /home/charles/linux/code/tfa/mp157_alientek/tf-a-stm32mp-2.2.r1-r0/tf-a-stm32mp-2.2.r1/../build/optee/bl2/stpmic1.o
 .rodata.ldo2_voltage_table
                0x000000002fff8126       0x32 /home/charles/linux/code/tfa/mp157_alientek/tf-a-stm32mp-2.2.r1-r0/tf-a-stm32mp-2.2.r1/../build/optee/bl2/stpmic1.o
 .rodata.ldo3_voltage_table
                0x000000002fff8158       0x42 /home/charles/linux/code/tfa/mp157_alientek/tf-a-stm32mp-2.2.r1-r0/tf-a-stm32mp-2.2.r1/../build/optee/bl2/stpmic1.o
 .rodata.ldo4_voltage_table
                0x000000002fff819a        0x2 /home/charles/linux/code/tfa/mp157_alientek/tf-a-stm32mp-2.2.r1-r0/tf-a-stm32mp-2.2.r1/../build/optee/bl2/stpmic1.o
 .rodata.ldo5_voltage_table
                0x000000002fff819c       0x3e /home/charles/linux/code/tfa/mp157_alientek/tf-a-stm32mp-2.2.r1-r0/tf-a-stm32mp-2.2.r1/../build/optee/bl2/stpmic1.o
 .rodata.ldo6_voltage_table
                0x000000002fff81da       0x32 /home/charles/linux/code/tfa/mp157_alientek/tf-a-stm32mp-2.2.r1-r0/tf-a-stm32mp-2.2.r1/../build/optee/bl2/stpmic1.o
 .rodata.regulators_table
                0x000000002fff820c       0xe0 /home/charles/linux/code/tfa/mp157_alientek/tf-a-stm32mp-2.2.r1-r0/tf-a-stm32mp-2.2.r1/../build/optee/bl2/stpmic1.o
 .rodata.vref_ddr_voltage_table
                0x000000002fff82ec        0x2 /home/charles/linux/code/tfa/mp157_alientek/tf-a-stm32mp-2.2.r1-r0/tf-a-stm32mp-2.2.r1/../build/optee/bl2/stpmic1.o
 *fill*         0x000000002fff82ee        0x2 
 .rodata.dummy_regu_ops
                0x000000002fff82f0        0x8 /home/charles/linux/code/tfa/mp157_alientek/tf-a-stm32mp-2.2.r1-r0/tf-a-stm32mp-2.2.r1/../build/optee/bl2/stm32mp_dummy_regulator.o
 .rodata.stm32mp_regulator_enable.str1.1
                0x000000002fff82f8       0x29 /home/charles/linux/code/tfa/mp157_alientek/tf-a-stm32mp-2.2.r1-r0/tf-a-stm32mp-2.2.r1/../build/optee/bl2/stm32mp_regulator.o
 .rodata.dt_get_stdout_node_offset.str1.1
                0x000000002fff8321       0x25 /home/charles/linux/code/tfa/mp157_alientek/tf-a-stm32mp-2.2.r1-r0/tf-a-stm32mp-2.2.r1/../build/optee/bl2/stm32mp_dt.o
 .rodata.dt_get_opp_freqvolt_from_subnode.str1.1
                0x000000002fff8346       0x26 /home/charles/linux/code/tfa/mp157_alientek/tf-a-stm32mp-2.2.r1-r0/tf-a-stm32mp-2.2.r1/../build/optee/bl2/stm32mp_dt.o
 .rodata.fdt_get_status.str1.1
                0x000000002fff836c       0x13 /home/charles/linux/code/tfa/mp157_alientek/tf-a-stm32mp-2.2.r1-r0/tf-a-stm32mp-2.2.r1/../build/optee/bl2/stm32mp_dt.o
                                         0x1a (size before relaxing)
 .rodata.fdt_get_reg_props_by_name.str1.1
                0x000000002fff837f       0x26 /home/charles/linux/code/tfa/mp157_alientek/tf-a-stm32mp-2.2.r1-r0/tf-a-stm32mp-2.2.r1/../build/optee/bl2/stm32mp_dt.o
                                         0x2a (size before relaxing)
 .rodata.dt_fill_device_info.str1.1
                0x000000002fff83a5        0x7 /home/charles/linux/code/tfa/mp157_alientek/tf-a-stm32mp-2.2.r1-r0/tf-a-stm32mp-2.2.r1/../build/optee/bl2/stm32mp_dt.o
                                          0xe (size before relaxing)
 .rodata.dt_get_node_by_compatible.str1.1
                0x000000002fff83ac       0x1c /home/charles/linux/code/tfa/mp157_alientek/tf-a-stm32mp-2.2.r1-r0/tf-a-stm32mp-2.2.r1/../build/optee/bl2/stm32mp_dt.o
 .rodata.dt_get_ddr_size.str1.1
                0x000000002fff83c8       0x1c /home/charles/linux/code/tfa/mp157_alientek/tf-a-stm32mp-2.2.r1-r0/tf-a-stm32mp-2.2.r1/../build/optee/bl2/stm32mp_dt.o
 .rodata.dt_get_max_opp_freqvolt.str1.1
                0x000000002fff83c8       0x14 /home/charles/linux/code/tfa/mp157_alientek/tf-a-stm32mp-2.2.r1-r0/tf-a-stm32mp-2.2.r1/../build/optee/bl2/stm32mp_dt.o
 .rodata.dt_get_pwr_vdd_voltage.str1.1
                0x000000002fff83dc       0x1f /home/charles/linux/code/tfa/mp157_alientek/tf-a-stm32mp-2.2.r1-r0/tf-a-stm32mp-2.2.r1/../build/optee/bl2/stm32mp_dt.o
                                         0x37 (size before relaxing)
 .rodata.dt_get_cpu_regulator_name.str1.1
                0x000000002fff83fb       0x17 /home/charles/linux/code/tfa/mp157_alientek/tf-a-stm32mp-2.2.r1-r0/tf-a-stm32mp-2.2.r1/../build/optee/bl2/stm32mp_dt.o
                                         0x26 (size before relaxing)
 .rodata.dt_get_board_model.str1.1
                0x000000002fff8412        0x8 /home/charles/linux/code/tfa/mp157_alientek/tf-a-stm32mp-2.2.r1-r0/tf-a-stm32mp-2.2.r1/../build/optee/bl2/stm32mp_dt.o
 .rodata.stm32_pm_get_optee_ep.str1.1
                0x000000002fff841a       0x18 /home/charles/linux/code/tfa/mp157_alientek/tf-a-stm32mp-2.2.r1-r0/tf-a-stm32mp-2.2.r1/../build/optee/bl2/stm32mp1_context.o
 .rodata.stm32_get_pll1_settings_from_context.str1.1
                0x000000002fff8432       0x24 /home/charles/linux/code/tfa/mp157_alientek/tf-a-stm32mp-2.2.r1-r0/tf-a-stm32mp-2.2.r1/../build/optee/bl2/stm32mp1_context.o
 .rodata.stm32mp1_dbgmcu_init.str1.1
                0x000000002fff8456       0x36 /home/charles/linux/code/tfa/mp157_alientek/tf-a-stm32mp-2.2.r1-r0/tf-a-stm32mp-2.2.r1/../build/optee/bl2/stm32mp1_dbgmcu.o
 .rodata.stm32mp1_dbgmcu_get_chip_version.str1.1
                0x000000002fff848c       0x23 /home/charles/linux/code/tfa/mp157_alientek/tf-a-stm32mp-2.2.r1-r0/tf-a-stm32mp-2.2.r1/../build/optee/bl2/stm32mp1_dbgmcu.o
 .rodata.stm32mp1_syscfg_enable_io_compensation.str1.1
                0x000000002fff84af       0x21 /home/charles/linux/code/tfa/mp157_alientek/tf-a-stm32mp-2.2.r1-r0/tf-a-stm32mp-2.2.r1/../build/optee/bl2/stm32mp1_syscfg.o
 .rodata.stm32mp1_syscfg_init.str1.1
                0x000000002fff84d0       0x8e /home/charles/linux/code/tfa/mp157_alientek/tf-a-stm32mp-2.2.r1-r0/tf-a-stm32mp-2.2.r1/../build/optee/bl2/stm32mp1_syscfg.o
                                         0x96 (size before relaxing)
 .rodata.str1.1
                0x000000002fff855e       0x29 /home/charles/linux/code/tfa/mp157_alientek/tf-a-stm32mp-2.2.r1-r0/tf-a-stm32mp-2.2.r1/../build/optee/bl2/bl2_el3_entrypoint.o
 .rodata.str1.1
                0x000000002fff8587       0x1f /home/charles/linux/code/tfa/mp157_alientek/tf-a-stm32mp-2.2.r1-r0/tf-a-stm32mp-2.2.r1/../build/optee/bl2/cpu_helpers.o
 .rodata.panic_str
                0x000000002fff85a6       0x14 /home/charles/linux/code/tfa/mp157_alientek/tf-a-stm32mp-2.2.r1-r0/tf-a-stm32mp-2.2.r1/../build/optee/bl2/debug.o
 .rodata.assert_str
                0x000000002fff85ba       0x15 /home/charles/linux/code/tfa/mp157_alientek/tf-a-stm32mp-2.2.r1-r0/tf-a-stm32mp-2.2.r1/../build/optee/bl2/debug.o
 .rodata.str1.1
                0x000000002fff85cf       0x28 /home/charles/linux/code/tfa/mp157_alientek/tf-a-stm32mp-2.2.r1-r0/tf-a-stm32mp-2.2.r1/../build/optee/bl2/stm32_console.o
 .rodata.str1.1
                0x000000002fff85f7       0x28 /home/charles/linux/code/tfa/mp157_alientek/tf-a-stm32mp-2.2.r1-r0/tf-a-stm32mp-2.2.r1/../build/optee/bl2/enable_mmu.o
 .rodata.rev_err_str
                0x000000002fff861f       0xa0 /home/charles/linux/code/tfa/mp157_alientek/tf-a-stm32mp-2.2.r1-r0/tf-a-stm32mp-2.2.r1/../build/optee/bl2/stm32mp1_helper.o
 .rodata.fdt_address_cells.str1.1
                0x000000002fff86bf        0xf /home/charles/linux/code/tfa/mp157_alientek/tf-a-stm32mp-2.2.r1-r0/tf-a-stm32mp-2.2.r1/../build/optee/lib/libfdt.a(fdt_addresses.o)
 .rodata.fdt_size_cells.str1.1
                0x000000002fff86ce        0xc /home/charles/linux/code/tfa/mp157_alientek/tf-a-stm32mp-2.2.r1-r0/tf-a-stm32mp-2.2.r1/../build/optee/lib/libfdt.a(fdt_addresses.o)
 .rodata.fdt_get_phandle.str1.1
                0x000000002fff86da        0xe /home/charles/linux/code/tfa/mp157_alientek/tf-a-stm32mp-2.2.r1-r0/tf-a-stm32mp-2.2.r1/../build/optee/lib/libfdt.a(fdt_ro.o)
                                         0x16 (size before relaxing)
 .rodata.fdt_get_alias_namelen.str1.1
                0x000000002fff86e8        0x9 /home/charles/linux/code/tfa/mp157_alientek/tf-a-stm32mp-2.2.r1-r0/tf-a-stm32mp-2.2.r1/../build/optee/lib/libfdt.a(fdt_ro.o)
 .rodata.fdt_node_check_compatible.str1.1
                0x000000002fff86f1        0xb /home/charles/linux/code/tfa/mp157_alientek/tf-a-stm32mp-2.2.r1-r0/tf-a-stm32mp-2.2.r1/../build/optee/lib/libfdt.a(fdt_ro.o)
 .rodata.__assert.str1.1
                0x000000002fff86fc        0xf /home/charles/linux/code/tfa/mp157_alientek/tf-a-stm32mp-2.2.r1-r0/tf-a-stm32mp-2.2.r1/../build/optee/lib/libc.a(assert.o)
 .rodata.vprintf.str1.1
                0x000000002fff870b       0x15 /home/charles/linux/code/tfa/mp157_alientek/tf-a-stm32mp-2.2.r1-r0/tf-a-stm32mp-2.2.r1/../build/optee/lib/libc.a(printf.o)
 .rodata.snprintf.str1.1
                0x000000002fff8720       0x39 /home/charles/linux/code/tfa/mp157_alientek/tf-a-stm32mp-2.2.r1-r0/tf-a-stm32mp-2.2.r1/../build/optee/lib/libc.a(snprintf.o)
                0x000000002fff8760                . = ALIGN (0x8)
 *fill*         0x000000002fff8759        0x7 
                0x000000002fff8760                __CPU_OPS_START__ = .
 *(cpu_ops)
 cpu_ops        0x000000002fff8760        0x8 /home/charles/linux/code/tfa/mp157_alientek/tf-a-stm32mp-2.2.r1-r0/tf-a-stm32mp-2.2.r1/../build/optee/bl2/cortex_a7.o
                0x000000002fff8768                __CPU_OPS_END__ = .
                0x000000002fff8768                . = ALIGN (0x8)
                0x000000002fff8768                __PARSER_LIB_DESCS_START__ = .
 *(.img_parser_lib_descs)
 .img_parser_lib_descs
                0x000000002fff8768       0x14 /home/charles/linux/code/tfa/mp157_alientek/tf-a-stm32mp-2.2.r1-r0/tf-a-stm32mp-2.2.r1/../build/optee/bl2/stm32mp_img_parser_lib.o
                0x000000002fff877c                __PARSER_LIB_DESCS_END__ = .
 *(.vectors)
 *fill*         0x000000002fff877c        0x4 
 .vectors       0x000000002fff8780       0x20 /home/charles/linux/code/tfa/mp157_alientek/tf-a-stm32mp-2.2.r1-r0/tf-a-stm32mp-2.2.r1/../build/optee/bl2/bl2_el3_exceptions.o
                0x000000002fff8780                bl2_vector_table
 .vectors.__stub
                0x000000002fff87a0       0x40 linker stubs
                0x000000002fff87e0                __RO_END_UNALIGNED__ = .
                0x000000002fff9000                . = ALIGN (0x1000)
 *fill*         0x000000002fff87e0      0x820 
                0x000000002fff9000                __RO_END__ = .
                0x0000000000000001                ASSERT ((__CPU_OPS_END__ > __CPU_OPS_START__), cpu_ops not defined for this platform.)
                0x000000002fff9000                __RW_START__ = .

.glue_7         0x000000002fff9000        0x0
 .glue_7        0x000000002fff9000        0x0 linker stubs

.glue_7t        0x000000002fff9000        0x0
 .glue_7t       0x000000002fff9000        0x0 linker stubs

.vfp11_veneer   0x000000002fff9000        0x0
 .vfp11_veneer  0x000000002fff9000        0x0 linker stubs

.v4_bx          0x000000002fff9000        0x0
 .v4_bx         0x000000002fff9000        0x0 linker stubs

.iplt           0x000000002fff9000        0x0
 .iplt          0x000000002fff9000        0x0 /home/charles/linux/code/tfa/mp157_alientek/tf-a-stm32mp-2.2.r1-r0/tf-a-stm32mp-2.2.r1/../build/optee/bl2/build_message.o

.rel.dyn        0x000000002fff9000        0x0
 .rel.iplt      0x000000002fff9000        0x0 /home/charles/linux/code/tfa/mp157_alientek/tf-a-stm32mp-2.2.r1-r0/tf-a-stm32mp-2.2.r1/../build/optee/bl2/build_message.o

.data           0x000000002fff9000      0x34c
                0x000000002fff9000                __DATA_RAM_START__ = .
 *(.data*)
 .data.stm32image_dev_info
                0x000000002fff9000        0x8 /home/charles/linux/code/tfa/mp157_alientek/tf-a-stm32mp-2.2.r1-r0/tf-a-stm32mp-2.2.r1/../build/optee/bl2/io_stm32image.o
 .data.backup_id.7481
                0x000000002fff9008        0x4 /home/charles/linux/code/tfa/mp157_alientek/tf-a-stm32mp-2.2.r1-r0/tf-a-stm32mp-2.2.r1/../build/optee/bl2/bl2_io_storage.o
 .data.gpt_block_spec
                0x000000002fff900c        0x8 /home/charles/linux/code/tfa/mp157_alientek/tf-a-stm32mp-2.2.r1-r0/tf-a-stm32mp-2.2.r1/../build/optee/bl2/bl2_io_storage.o
 *fill*         0x000000002fff9014        0x4 
 .data.nand_dev_spec
                0x000000002fff9018       0x18 /home/charles/linux/code/tfa/mp157_alientek/tf-a-stm32mp-2.2.r1-r0/tf-a-stm32mp-2.2.r1/../build/optee/bl2/bl2_io_storage.o
 .data.spi_nand_dev_spec
                0x000000002fff9030       0x18 /home/charles/linux/code/tfa/mp157_alientek/tf-a-stm32mp-2.2.r1-r0/tf-a-stm32mp-2.2.r1/../build/optee/bl2/bl2_io_storage.o
 .data.spi_nor_dev_spec
                0x000000002fff9048       0x18 /home/charles/linux/code/tfa/mp157_alientek/tf-a-stm32mp-2.2.r1-r0/tf-a-stm32mp-2.2.r1/../build/optee/bl2/bl2_io_storage.o
 .data.stm32image_dev_info_spec
                0x000000002fff9060       0xe0 /home/charles/linux/code/tfa/mp157_alientek/tf-a-stm32mp-2.2.r1-r0/tf-a-stm32mp-2.2.r1/../build/optee/bl2/bl2_io_storage.o
 .data.stm32_header_pk
                0x000000002fff9140        0x8 /home/charles/linux/code/tfa/mp157_alientek/tf-a-stm32mp-2.2.r1-r0/tf-a-stm32mp-2.2.r1/../build/optee/bl2/stm32mp_cot.o
 .data.stm32_header_sig
                0x000000002fff9148        0x8 /home/charles/linux/code/tfa/mp157_alientek/tf-a-stm32mp-2.2.r1-r0/tf-a-stm32mp-2.2.r1/../build/optee/bl2/stm32mp_cot.o
 .data.stm32_header_sig_alg
                0x000000002fff9150        0x8 /home/charles/linux/code/tfa/mp157_alientek/tf-a-stm32mp-2.2.r1-r0/tf-a-stm32mp-2.2.r1/../build/optee/bl2/stm32mp_cot.o
 .data.stm32_load
                0x000000002fff9158        0x8 /home/charles/linux/code/tfa/mp157_alientek/tf-a-stm32mp-2.2.r1-r0/tf-a-stm32mp-2.2.r1/../build/optee/bl2/stm32mp_cot.o
 .data.bl2_mem_params_descs
                0x000000002fff9160      0x170 /home/charles/linux/code/tfa/mp157_alientek/tf-a-stm32mp-2.2.r1-r0/tf-a-stm32mp-2.2.r1/../build/optee/bl2/plat_bl2_mem_params_desc.o
 .data.bl_mem_params_desc_num
                0x000000002fff92d0        0x4 /home/charles/linux/code/tfa/mp157_alientek/tf-a-stm32mp-2.2.r1-r0/tf-a-stm32mp-2.2.r1/../build/optee/bl2/plat_bl2_mem_params_desc.o
                0x000000002fff92d0                bl_mem_params_desc_num
 .data.bl_mem_params_desc_ptr
                0x000000002fff92d4        0x4 /home/charles/linux/code/tfa/mp157_alientek/tf-a-stm32mp-2.2.r1-r0/tf-a-stm32mp-2.2.r1/../build/optee/bl2/plat_bl2_mem_params_desc.o
                0x000000002fff92d4                bl_mem_params_desc_ptr
 .data.max_log_level
                0x000000002fff92d8        0x4 /home/charles/linux/code/tfa/mp157_alientek/tf-a-stm32mp-2.2.r1-r0/tf-a-stm32mp-2.2.r1/../build/optee/bl2/tf_log.o
 .data.console_state
                0x000000002fff92dc        0x1 /home/charles/linux/code/tfa/mp157_alientek/tf-a-stm32mp-2.2.r1-r0/tf-a-stm32mp-2.2.r1/../build/optee/bl2/multi_console.o
                0x000000002fff92dc                console_state
 *fill*         0x000000002fff92dd        0x3 
 .data.tf_xlat_ctx
                0x000000002fff92e0       0x48 /home/charles/linux/code/tfa/mp157_alientek/tf-a-stm32mp-2.2.r1-r0/tf-a-stm32mp-2.2.r1/../build/optee/bl2/xlat_tables_context.o
 .data.stm32mp_osc_node_label
                0x000000002fff9328       0x18 /home/charles/linux/code/tfa/mp157_alientek/tf-a-stm32mp-2.2.r1-r0/tf-a-stm32mp-2.2.r1/../build/optee/bl2/stm32mp1_clk.o
                0x000000002fff9328                stm32mp_osc_node_label
 .data.i2c_node.6738
                0x000000002fff9340        0x4 /home/charles/linux/code/tfa/mp157_alientek/tf-a-stm32mp-2.2.r1-r0/tf-a-stm32mp-2.2.r1/../build/optee/bl2/stm32mp_pmic.o
 .data.node.6688
                0x000000002fff9344        0x4 /home/charles/linux/code/tfa/mp157_alientek/tf-a-stm32mp-2.2.r1-r0/tf-a-stm32mp-2.2.r1/../build/optee/bl2/stm32mp_pmic.o
 .data.status.6692
                0x000000002fff9348        0x4 /home/charles/linux/code/tfa/mp157_alientek/tf-a-stm32mp-2.2.r1-r0/tf-a-stm32mp-2.2.r1/../build/optee/bl2/stm32mp_pmic.o
                0x000000002fff934c                __DATA_RAM_END__ = .

.igot.plt       0x000000002fff934c        0x0
 .igot.plt      0x000000002fff934c        0x0 /home/charles/linux/code/tfa/mp157_alientek/tf-a-stm32mp-2.2.r1-r0/tf-a-stm32mp-2.2.r1/../build/optee/bl2/build_message.o

stacks          0x000000002fff9380      0xc00
                0x000000002fff9380                __STACKS_START__ = .
 *(tzfw_normal_stacks)
 tzfw_normal_stacks
                0x000000002fff9380      0xc00 /home/charles/linux/code/tfa/mp157_alientek/tf-a-stm32mp-2.2.r1-r0/tf-a-stm32mp-2.2.r1/../build/optee/bl2/platform_up_stack.o
                0x000000002fff9f80                __STACKS_END__ = .

.bss            0x000000002fffa000     0x2700
                0x000000002fffa000                __BSS_START__ = .
 *(SORT_BY_ALIGNMENT(.bss*))
 .bss.block_buffer
                0x000000002fffa000      0x800 /home/charles/linux/code/tfa/mp157_alientek/tf-a-stm32mp-2.2.r1-r0/tf-a-stm32mp-2.2.r1/../build/optee/bl2/bl2_io_storage.o
 .bss.tf_base_xlat_table
                0x000000002fffa800       0x20 /home/charles/linux/code/tfa/mp157_alientek/tf-a-stm32mp-2.2.r1-r0/tf-a-stm32mp-2.2.r1/../build/optee/bl2/xlat_tables_context.o
 .bss.mmc_ext_csd
                0x000000002fffa820      0x200 /home/charles/linux/code/tfa/mp157_alientek/tf-a-stm32mp-2.2.r1-r0/tf-a-stm32mp-2.2.r1/../build/optee/bl2/mmc.o
 .bss.scr       0x000000002fffaa20        0x8 /home/charles/linux/code/tfa/mp157_alientek/tf-a-stm32mp-2.2.r1-r0/tf-a-stm32mp-2.2.r1/../build/optee/bl2/mmc.o
 .bss.state_pool
                0x000000002fffaa28       0x18 /home/charles/linux/code/tfa/mp157_alientek/tf-a-stm32mp-2.2.r1-r0/tf-a-stm32mp-2.2.r1/../build/optee/bl2/io_block.o
 .bss.state_pool
                0x000000002fffaa40       0x18 /home/charles/linux/code/tfa/mp157_alientek/tf-a-stm32mp-2.2.r1-r0/tf-a-stm32mp-2.2.r1/../build/optee/bl2/io_mtd.o
 .bss.stm32image_dev
                0x000000002fffaa58       0xe0 /home/charles/linux/code/tfa/mp157_alientek/tf-a-stm32mp-2.2.r1-r0/tf-a-stm32mp-2.2.r1/../build/optee/bl2/io_stm32image.o
 .bss.list      0x000000002fffab38      0x158 /home/charles/linux/code/tfa/mp157_alientek/tf-a-stm32mp-2.2.r1-r0/tf-a-stm32mp-2.2.r1/../build/optee/bl2/partition.o
 .bss.seek_offset
                0x000000002fffac90        0x8 /home/charles/linux/code/tfa/mp157_alientek/tf-a-stm32mp-2.2.r1-r0/tf-a-stm32mp-2.2.r1/../build/optee/bl2/io_mmc.o
 .bss.spinand_dev
                0x000000002fffac98       0x40 /home/charles/linux/code/tfa/mp157_alientek/tf-a-stm32mp-2.2.r1-r0/tf-a-stm32mp-2.2.r1/../build/optee/bl2/spi_nand.o
 .bss.nor_dev   0x000000002fffacd8       0x40 /home/charles/linux/code/tfa/mp157_alientek/tf-a-stm32mp-2.2.r1-r0/tf-a-stm32mp-2.2.r1/../build/optee/bl2/spi_nor.o
 .bss.nand_dev  0x000000002fffad18       0x30 /home/charles/linux/code/tfa/mp157_alientek/tf-a-stm32mp-2.2.r1-r0/tf-a-stm32mp-2.2.r1/../build/optee/bl2/core.o
 .bss.ddr_priv_data
                0x000000002fffad48       0x20 /home/charles/linux/code/tfa/mp157_alientek/tf-a-stm32mp-2.2.r1-r0/tf-a-stm32mp-2.2.r1/../build/optee/bl2/stm32mp1_ram.o
 .bss.tf_mmap   0x000000002fffad68      0x120 /home/charles/linux/code/tfa/mp157_alientek/tf-a-stm32mp-2.2.r1-r0/tf-a-stm32mp-2.2.r1/../build/optee/bl2/xlat_tables_context.o
 .bss.block_dev_count
                0x000000002fffae88        0x4 /home/charles/linux/code/tfa/mp157_alientek/tf-a-stm32mp-2.2.r1-r0/tf-a-stm32mp-2.2.r1/../build/optee/bl2/io_block.o
 .bss.dev_info_pool
                0x000000002fffae8c        0x8 /home/charles/linux/code/tfa/mp157_alientek/tf-a-stm32mp-2.2.r1-r0/tf-a-stm32mp-2.2.r1/../build/optee/bl2/io_block.o
 .bss.current_file
                0x000000002fffae94        0x8 /home/charles/linux/code/tfa/mp157_alientek/tf-a-stm32mp-2.2.r1-r0/tf-a-stm32mp-2.2.r1/../build/optee/bl2/io_dummy.o
 .bss.dev_info_pool
                0x000000002fffae9c        0x8 /home/charles/linux/code/tfa/mp157_alientek/tf-a-stm32mp-2.2.r1-r0/tf-a-stm32mp-2.2.r1/../build/optee/bl2/io_mtd.o
 .bss.dev_count
                0x000000002fffaea4        0x4 /home/charles/linux/code/tfa/mp157_alientek/tf-a-stm32mp-2.2.r1-r0/tf-a-stm32mp-2.2.r1/../build/optee/bl2/io_storage.o
 .bss.entity_count
                0x000000002fffaea8        0x4 /home/charles/linux/code/tfa/mp157_alientek/tf-a-stm32mp-2.2.r1-r0/tf-a-stm32mp-2.2.r1/../build/optee/bl2/io_storage.o
 .bss.entity_map
                0x000000002fffaeac       0x10 /home/charles/linux/code/tfa/mp157_alientek/tf-a-stm32mp-2.2.r1-r0/tf-a-stm32mp-2.2.r1/../build/optee/bl2/io_storage.o
 .bss.entity_pool
                0x000000002fffaebc       0x20 /home/charles/linux/code/tfa/mp157_alientek/tf-a-stm32mp-2.2.r1-r0/tf-a-stm32mp-2.2.r1/../build/optee/bl2/io_storage.o
 .bss.stm32_hash
                0x000000002fffaedc        0xc /home/charles/linux/code/tfa/mp157_alientek/tf-a-stm32mp-2.2.r1-r0/tf-a-stm32mp-2.2.r1/../build/optee/bl2/stm32_hash.o
 .bss.stm32_remain
                0x000000002fffaee8        0x8 /home/charles/linux/code/tfa/mp157_alientek/tf-a-stm32mp-2.2.r1-r0/tf-a-stm32mp-2.2.r1/../build/optee/bl2/stm32_hash.o
 .bss.backend_dev_handle
                0x000000002fffaef0        0x4 /home/charles/linux/code/tfa/mp157_alientek/tf-a-stm32mp-2.2.r1-r0/tf-a-stm32mp-2.2.r1/../build/optee/bl2/io_stm32image.o
 .bss.backend_image_spec
                0x000000002fffaef4        0x4 /home/charles/linux/code/tfa/mp157_alientek/tf-a-stm32mp-2.2.r1-r0/tf-a-stm32mp-2.2.r1/../build/optee/bl2/io_stm32image.o
 .bss.current_part
                0x000000002fffaef8        0x4 /home/charles/linux/code/tfa/mp157_alientek/tf-a-stm32mp-2.2.r1-r0/tf-a-stm32mp-2.2.r1/../build/optee/bl2/io_stm32image.o
 .bss.first_lba_buffer
                0x000000002fffaefc      0x200 /home/charles/linux/code/tfa/mp157_alientek/tf-a-stm32mp-2.2.r1-r0/tf-a-stm32mp-2.2.r1/../build/optee/bl2/io_stm32image.o
 .bss.stm32_img
                0x000000002fffb0fc        0x4 /home/charles/linux/code/tfa/mp157_alientek/tf-a-stm32mp-2.2.r1-r0/tf-a-stm32mp-2.2.r1/../build/optee/bl2/io_stm32image.o
 .bss.backup_nb.7480
                0x000000002fffb100        0x4 /home/charles/linux/code/tfa/mp157_alientek/tf-a-stm32mp-2.2.r1-r0/tf-a-stm32mp-2.2.r1/../build/optee/bl2/bl2_io_storage.o
 .bss.dummy_dev_con
                0x000000002fffb104        0x4 /home/charles/linux/code/tfa/mp157_alientek/tf-a-stm32mp-2.2.r1-r0/tf-a-stm32mp-2.2.r1/../build/optee/bl2/bl2_io_storage.o
 .bss.dummy_dev_handle
                0x000000002fffb108        0x4 /home/charles/linux/code/tfa/mp157_alientek/tf-a-stm32mp-2.2.r1-r0/tf-a-stm32mp-2.2.r1/../build/optee/bl2/bl2_io_storage.o
 .bss.image_dev_handle
                0x000000002fffb10c        0x4 /home/charles/linux/code/tfa/mp157_alientek/tf-a-stm32mp-2.2.r1-r0/tf-a-stm32mp-2.2.r1/../build/optee/bl2/bl2_io_storage.o
 .bss.mmc_dev_con
                0x000000002fffb110        0x4 /home/charles/linux/code/tfa/mp157_alientek/tf-a-stm32mp-2.2.r1-r0/tf-a-stm32mp-2.2.r1/../build/optee/bl2/bl2_io_storage.o
 .bss.nand_dev_con
                0x000000002fffb114        0x4 /home/charles/linux/code/tfa/mp157_alientek/tf-a-stm32mp-2.2.r1-r0/tf-a-stm32mp-2.2.r1/../build/optee/bl2/bl2_io_storage.o
 .bss.spi_dev_con
                0x000000002fffb118        0x4 /home/charles/linux/code/tfa/mp157_alientek/tf-a-stm32mp-2.2.r1-r0/tf-a-stm32mp-2.2.r1/../build/optee/bl2/bl2_io_storage.o
 .bss.stm32image_block_spec
                0x000000002fffb11c        0x8 /home/charles/linux/code/tfa/mp157_alientek/tf-a-stm32mp-2.2.r1-r0/tf-a-stm32mp-2.2.r1/../build/optee/bl2/bl2_io_storage.o
 .bss.stm32image_dev_con
                0x000000002fffb124        0x4 /home/charles/linux/code/tfa/mp157_alientek/tf-a-stm32mp-2.2.r1-r0/tf-a-stm32mp-2.2.r1/../build/optee/bl2/bl2_io_storage.o
 .bss.storage_dev_handle
                0x000000002fffb128        0x4 /home/charles/linux/code/tfa/mp157_alientek/tf-a-stm32mp-2.2.r1-r0/tf-a-stm32mp-2.2.r1/../build/optee/bl2/bl2_io_storage.o
 .bss.console   0x000000002fffb12c       0x18 /home/charles/linux/code/tfa/mp157_alientek/tf-a-stm32mp-2.2.r1-r0/tf-a-stm32mp-2.2.r1/../build/optee/bl2/bl2_plat_setup.o
 .bss.parser_lib_descs
                0x000000002fffb144        0x4 /home/charles/linux/code/tfa/mp157_alientek/tf-a-stm32mp-2.2.r1-r0/tf-a-stm32mp-2.2.r1/../build/optee/bl2/img_parser_mod.o
 .bss.parser_lib_indices
                0x000000002fffb148        0xc /home/charles/linux/code/tfa/mp157_alientek/tf-a-stm32mp-2.2.r1-r0/tf-a-stm32mp-2.2.r1/../build/optee/bl2/img_parser_mod.o
 .bss.auth_ops  0x000000002fffb154        0x8 /home/charles/linux/code/tfa/mp157_alientek/tf-a-stm32mp-2.2.r1-r0/tf-a-stm32mp-2.2.r1/../build/optee/bl2/stm32mp_crypto_lib.o
 .bss.root_pk_hash
                0x000000002fffb15c       0x20 /home/charles/linux/code/tfa/mp157_alientek/tf-a-stm32mp-2.2.r1-r0/tf-a-stm32mp-2.2.r1/../build/optee/bl2/stm32mp_trusted_boot.o
 .bss.mmc_csd   0x000000002fffb17c       0x10 /home/charles/linux/code/tfa/mp157_alientek/tf-a-stm32mp-2.2.r1-r0/tf-a-stm32mp-2.2.r1/../build/optee/bl2/mmc.o
 .bss.mmc_dev_info
                0x000000002fffb18c        0x4 /home/charles/linux/code/tfa/mp157_alientek/tf-a-stm32mp-2.2.r1-r0/tf-a-stm32mp-2.2.r1/../build/optee/bl2/mmc.o
 .bss.mmc_flags
                0x000000002fffb190        0x4 /home/charles/linux/code/tfa/mp157_alientek/tf-a-stm32mp-2.2.r1-r0/tf-a-stm32mp-2.2.r1/../build/optee/bl2/mmc.o
 .bss.mmc_ocr_value
                0x000000002fffb194        0x4 /home/charles/linux/code/tfa/mp157_alientek/tf-a-stm32mp-2.2.r1-r0/tf-a-stm32mp-2.2.r1/../build/optee/bl2/mmc.o
 .bss.ops       0x000000002fffb198        0x4 /home/charles/linux/code/tfa/mp157_alientek/tf-a-stm32mp-2.2.r1-r0/tf-a-stm32mp-2.2.r1/../build/optee/bl2/mmc.o
 .bss.rca       0x000000002fffb19c        0x4 /home/charles/linux/code/tfa/mp157_alientek/tf-a-stm32mp-2.2.r1-r0/tf-a-stm32mp-2.2.r1/../build/optee/bl2/mmc.o
 .bss.sdmmc2_params
                0x000000002fffb1a0       0x3c /home/charles/linux/code/tfa/mp157_alientek/tf-a-stm32mp-2.2.r1-r0/tf-a-stm32mp-2.2.r1/../build/optee/bl2/stm32_sdmmc2.o
 .bss.rawnand_dev
                0x000000002fffb1dc        0x8 /home/charles/linux/code/tfa/mp157_alientek/tf-a-stm32mp-2.2.r1-r0/tf-a-stm32mp-2.2.r1/../build/optee/bl2/raw_nand.o
 .bss.stm32_fmc2
                0x000000002fffb1e4       0x28 /home/charles/linux/code/tfa/mp157_alientek/tf-a-stm32mp-2.2.r1-r0/tf-a-stm32mp-2.2.r1/../build/optee/bl2/stm32_fmc2_nand.o
 .bss.spi_slave
                0x000000002fffb20c       0x10 /home/charles/linux/code/tfa/mp157_alientek/tf-a-stm32mp-2.2.r1-r0/tf-a-stm32mp-2.2.r1/../build/optee/bl2/spi_mem.o
 .bss.stm32_qspi
                0x000000002fffb21c       0x14 /home/charles/linux/code/tfa/mp157_alientek/tf-a-stm32mp-2.2.r1-r0/tf-a-stm32mp-2.2.r1/../build/optee/bl2/stm32_qspi.o
 .bss.bl_load_info
                0x000000002fffb230        0xc /home/charles/linux/code/tfa/mp157_alientek/tf-a-stm32mp-2.2.r1-r0/tf-a-stm32mp-2.2.r1/../build/optee/bl2/desc_image_load.o
 .bss.next_bl_params
                0x000000002fffb23c        0xc /home/charles/linux/code/tfa/mp157_alientek/tf-a-stm32mp-2.2.r1-r0/tf-a-stm32mp-2.2.r1/../build/optee/bl2/desc_image_load.o
 .bss.boot_ctx_address
                0x000000002fffb248        0x4 /home/charles/linux/code/tfa/mp157_alientek/tf-a-stm32mp-2.2.r1-r0/tf-a-stm32mp-2.2.r1/../build/optee/bl2/stm32mp_common.o
 .bss.latest_stm32_header
                0x000000002fffb24c        0x4 /home/charles/linux/code/tfa/mp157_alientek/tf-a-stm32mp-2.2.r1-r0/tf-a-stm32mp-2.2.r1/../build/optee/bl2/stm32mp_common.o
 .bss.part_number.7229
                0x000000002fffb250        0x4 /home/charles/linux/code/tfa/mp157_alientek/tf-a-stm32mp-2.2.r1-r0/tf-a-stm32mp-2.2.r1/../build/optee/bl2/stm32mp1_private.o
 .bss.tf_mapped_regions
                0x000000002fffb254       0x10 /home/charles/linux/code/tfa/mp157_alientek/tf-a-stm32mp-2.2.r1-r0/tf-a-stm32mp-2.2.r1/../build/optee/bl2/xlat_tables_context.o
 .bss.tzc400    0x000000002fffb264        0x8 /home/charles/linux/code/tfa/mp157_alientek/tf-a-stm32mp-2.2.r1-r0/tf-a-stm32mp-2.2.r1/../build/optee/bl2/tzc400.o
 .bss.timer_ops
                0x000000002fffb26c        0x4 /home/charles/linux/code/tfa/mp157_alientek/tf-a-stm32mp-2.2.r1-r0/tf-a-stm32mp-2.2.r1/../build/optee/bl2/delay_timer.o
 .bss.ops       0x000000002fffb270        0xc /home/charles/linux/code/tfa/mp157_alientek/tf-a-stm32mp-2.2.r1-r0/tf-a-stm32mp-2.2.r1/../build/optee/bl2/generic_delay_timer.o
 .bss.bsec_base
                0x000000002fffb27c        0x4 /home/charles/linux/code/tfa/mp157_alientek/tf-a-stm32mp-2.2.r1-r0/tf-a-stm32mp-2.2.r1/../build/optee/bl2/bsec2.o
 .bss.bsec_spinlock
                0x000000002fffb280        0x4 /home/charles/linux/code/tfa/mp157_alientek/tf-a-stm32mp-2.2.r1-r0/tf-a-stm32mp-2.2.r1/../build/optee/bl2/bsec2.o
 .bss.current_opp_khz
                0x000000002fffb284        0x4 /home/charles/linux/code/tfa/mp157_alientek/tf-a-stm32mp-2.2.r1-r0/tf-a-stm32mp-2.2.r1/../build/optee/bl2/stm32mp1_clk.o
 .bss.gate_refcounts
                0x000000002fffb288       0xdc /home/charles/linux/code/tfa/mp157_alientek/tf-a-stm32mp-2.2.r1-r0/tf-a-stm32mp-2.2.r1/../build/optee/bl2/stm32mp1_clk.o
 .bss.pll1_settings
                0x000000002fffb364       0x4c /home/charles/linux/code/tfa/mp157_alientek/tf-a-stm32mp-2.2.r1-r0/tf-a-stm32mp-2.2.r1/../build/optee/bl2/stm32mp1_clk.o
 .bss.refcount_lock
                0x000000002fffb3b0        0x4 /home/charles/linux/code/tfa/mp157_alientek/tf-a-stm32mp-2.2.r1-r0/tf-a-stm32mp-2.2.r1/../build/optee/bl2/stm32mp1_clk.o
 .bss.reg_lock  0x000000002fffb3b4        0x4 /home/charles/linux/code/tfa/mp157_alientek/tf-a-stm32mp-2.2.r1-r0/tf-a-stm32mp-2.2.r1/../build/optee/bl2/stm32mp1_clk.o
 .bss.stm32mp1_osc
                0x000000002fffb3b8       0x18 /home/charles/linux/code/tfa/mp157_alientek/tf-a-stm32mp-2.2.r1-r0/tf-a-stm32mp-2.2.r1/../build/optee/bl2/stm32mp1_clk.o
 .bss.stm32_iwdg
                0x000000002fffb3d0       0x20 /home/charles/linux/code/tfa/mp157_alientek/tf-a-stm32mp-2.2.r1-r0/tf-a-stm32mp-2.2.r1/../build/optee/bl2/stm32_iwdg.o
 .bss.i2c_handle
                0x000000002fffb3f0       0x24 /home/charles/linux/code/tfa/mp157_alientek/tf-a-stm32mp-2.2.r1-r0/tf-a-stm32mp-2.2.r1/../build/optee/bl2/stm32mp_pmic.o
 .bss.pmic_i2c_addr
                0x000000002fffb414        0x4 /home/charles/linux/code/tfa/mp157_alientek/tf-a-stm32mp-2.2.r1-r0/tf-a-stm32mp-2.2.r1/../build/optee/bl2/stm32mp_pmic.o
 .bss.pmic_i2c_handle
                0x000000002fffb418        0x4 /home/charles/linux/code/tfa/mp157_alientek/tf-a-stm32mp-2.2.r1-r0/tf-a-stm32mp-2.2.r1/../build/optee/bl2/stpmic1.o
 .bss.fdt_checked
                0x000000002fffb41c        0x4 /home/charles/linux/code/tfa/mp157_alientek/tf-a-stm32mp-2.2.r1-r0/tf-a-stm32mp-2.2.r1/../build/optee/bl2/stm32mp_dt.o
 .bss.shregs_lock
                0x000000002fffb420        0x4 /home/charles/linux/code/tfa/mp157_alientek/tf-a-stm32mp-2.2.r1-r0/tf-a-stm32mp-2.2.r1/../build/optee/bl2/stm32mp_shres_helpers.o
 .bss.sd_switch_func_status
                0x000000002fffb424       0x40 /home/charles/linux/code/tfa/mp157_alientek/tf-a-stm32mp-2.2.r1-r0/tf-a-stm32mp-2.2.r1/../build/optee/bl2/mmc.o
 .bss.pmic_i2c_addr
                0x000000002fffb464        0x2 /home/charles/linux/code/tfa/mp157_alientek/tf-a-stm32mp-2.2.r1-r0/tf-a-stm32mp-2.2.r1/../build/optee/bl2/stpmic1.o
 .bss.wakeup_standby
                0x000000002fffb466        0x1 /home/charles/linux/code/tfa/mp157_alientek/tf-a-stm32mp-2.2.r1-r0/tf-a-stm32mp-2.2.r1/../build/optee/bl2/bl2_plat_setup.o
 .bss.mbr_sector
                0x000000002fffb467      0x200 /home/charles/linux/code/tfa/mp157_alientek/tf-a-stm32mp-2.2.r1-r0/tf-a-stm32mp-2.2.r1/../build/optee/bl2/partition.o
 .bss.next_cmd_is_acmd
                0x000000002fffb667        0x1 /home/charles/linux/code/tfa/mp157_alientek/tf-a-stm32mp-2.2.r1-r0/tf-a-stm32mp-2.2.r1/../build/optee/bl2/stm32_sdmmc2.o
 .bss.scratch_buff
                0x000000002fffb668     0x1000 /home/charles/linux/code/tfa/mp157_alientek/tf-a-stm32mp-2.2.r1-r0/tf-a-stm32mp-2.2.r1/../build/optee/bl2/core.o
 *(COMMON)
 COMMON         0x000000002fffc668       0x78 /home/charles/linux/code/tfa/mp157_alientek/tf-a-stm32mp-2.2.r1-r0/tf-a-stm32mp-2.2.r1/../build/optee/bl2/stm32mp_cot.o
                0x000000002fffc668                auth_img_flags
 COMMON         0x000000002fffc6e0        0x4 /home/charles/linux/code/tfa/mp157_alientek/tf-a-stm32mp-2.2.r1-r0/tf-a-stm32mp-2.2.r1/../build/optee/bl2/multi_console.o
                0x000000002fffc6e0                console_list
 *fill*         0x000000002fffc6e4        0x4 
 COMMON         0x000000002fffc6e8       0x18 /home/charles/linux/code/tfa/mp157_alientek/tf-a-stm32mp-2.2.r1-r0/tf-a-stm32mp-2.2.r1/../build/optee/bl2/xlat_tables_context.o
                0x000000002fffc6e8                mmu_cfg_params
                0x000000002fffc700                __BSS_END__ = .

xlat_table
 *(xlat_table)
                0x000000002fffc700                __RW_END__ = .
                0x000000002fffc700                __BL2_END__ = .
                0x0000000000002700                __BSS_SIZE__ = SIZEOF (.bss)
                0x0000000000000001                ASSERT ((. <= 0x2ffff000), BL2 image has exceeded its limit.)
LOAD /home/charles/linux/code/tfa/mp157_alientek/tf-a-stm32mp-2.2.r1-r0/tf-a-stm32mp-2.2.r1/../build/optee/bl2/build_message.o
LOAD /home/charles/linux/code/tfa/mp157_alientek/tf-a-stm32mp-2.2.r1-r0/tf-a-stm32mp-2.2.r1/../build/optee/bl2/io_block.o
LOAD /home/charles/linux/code/tfa/mp157_alientek/tf-a-stm32mp-2.2.r1-r0/tf-a-stm32mp-2.2.r1/../build/optee/bl2/io_dummy.o
LOAD /home/charles/linux/code/tfa/mp157_alientek/tf-a-stm32mp-2.2.r1-r0/tf-a-stm32mp-2.2.r1/../build/optee/bl2/io_mtd.o
LOAD /home/charles/linux/code/tfa/mp157_alientek/tf-a-stm32mp-2.2.r1-r0/tf-a-stm32mp-2.2.r1/../build/optee/bl2/io_storage.o
LOAD /home/charles/linux/code/tfa/mp157_alientek/tf-a-stm32mp-2.2.r1-r0/tf-a-stm32mp-2.2.r1/../build/optee/bl2/stm32_hash.o
LOAD /home/charles/linux/code/tfa/mp157_alientek/tf-a-stm32mp-2.2.r1-r0/tf-a-stm32mp-2.2.r1/../build/optee/bl2/io_stm32image.o
LOAD /home/charles/linux/code/tfa/mp157_alientek/tf-a-stm32mp-2.2.r1-r0/tf-a-stm32mp-2.2.r1/../build/optee/bl2/bl2_io_storage.o
LOAD /home/charles/linux/code/tfa/mp157_alientek/tf-a-stm32mp-2.2.r1-r0/tf-a-stm32mp-2.2.r1/../build/optee/bl2/bl2_plat_setup.o
LOAD /home/charles/linux/code/tfa/mp157_alientek/tf-a-stm32mp-2.2.r1-r0/tf-a-stm32mp-2.2.r1/../build/optee/bl2/auth_mod.o
LOAD /home/charles/linux/code/tfa/mp157_alientek/tf-a-stm32mp-2.2.r1-r0/tf-a-stm32mp-2.2.r1/../build/optee/bl2/crypto_mod.o
LOAD /home/charles/linux/code/tfa/mp157_alientek/tf-a-stm32mp-2.2.r1-r0/tf-a-stm32mp-2.2.r1/../build/optee/bl2/img_parser_mod.o
LOAD /home/charles/linux/code/tfa/mp157_alientek/tf-a-stm32mp-2.2.r1-r0/tf-a-stm32mp-2.2.r1/../build/optee/bl2/stm32mp_cot.o
LOAD /home/charles/linux/code/tfa/mp157_alientek/tf-a-stm32mp-2.2.r1-r0/tf-a-stm32mp-2.2.r1/../build/optee/bl2/stm32mp_crypto_lib.o
LOAD /home/charles/linux/code/tfa/mp157_alientek/tf-a-stm32mp-2.2.r1-r0/tf-a-stm32mp-2.2.r1/../build/optee/bl2/stm32mp_img_parser_lib.o
LOAD /home/charles/linux/code/tfa/mp157_alientek/tf-a-stm32mp-2.2.r1-r0/tf-a-stm32mp-2.2.r1/../build/optee/bl2/stm32mp_trusted_boot.o
LOAD /home/charles/linux/code/tfa/mp157_alientek/tf-a-stm32mp-2.2.r1-r0/tf-a-stm32mp-2.2.r1/../build/optee/bl2/mmc.o
LOAD /home/charles/linux/code/tfa/mp157_alientek/tf-a-stm32mp-2.2.r1-r0/tf-a-stm32mp-2.2.r1/../build/optee/bl2/gpt.o
LOAD /home/charles/linux/code/tfa/mp157_alientek/tf-a-stm32mp-2.2.r1-r0/tf-a-stm32mp-2.2.r1/../build/optee/bl2/partition.o
LOAD /home/charles/linux/code/tfa/mp157_alientek/tf-a-stm32mp-2.2.r1-r0/tf-a-stm32mp-2.2.r1/../build/optee/bl2/io_mmc.o
LOAD /home/charles/linux/code/tfa/mp157_alientek/tf-a-stm32mp-2.2.r1-r0/tf-a-stm32mp-2.2.r1/../build/optee/bl2/stm32_sdmmc2.o
LOAD /home/charles/linux/code/tfa/mp157_alientek/tf-a-stm32mp-2.2.r1-r0/tf-a-stm32mp-2.2.r1/../build/optee/bl2/raw_nand.o
LOAD /home/charles/linux/code/tfa/mp157_alientek/tf-a-stm32mp-2.2.r1-r0/tf-a-stm32mp-2.2.r1/../build/optee/bl2/stm32_fmc2_nand.o
LOAD /home/charles/linux/code/tfa/mp157_alientek/tf-a-stm32mp-2.2.r1-r0/tf-a-stm32mp-2.2.r1/../build/optee/bl2/spi_nand.o
LOAD /home/charles/linux/code/tfa/mp157_alientek/tf-a-stm32mp-2.2.r1-r0/tf-a-stm32mp-2.2.r1/../build/optee/bl2/spi_nor.o
LOAD /home/charles/linux/code/tfa/mp157_alientek/tf-a-stm32mp-2.2.r1-r0/tf-a-stm32mp-2.2.r1/../build/optee/bl2/spi_mem.o
LOAD /home/charles/linux/code/tfa/mp157_alientek/tf-a-stm32mp-2.2.r1-r0/tf-a-stm32mp-2.2.r1/../build/optee/bl2/stm32_qspi.o
LOAD /home/charles/linux/code/tfa/mp157_alientek/tf-a-stm32mp-2.2.r1-r0/tf-a-stm32mp-2.2.r1/../build/optee/bl2/core.o
LOAD /home/charles/linux/code/tfa/mp157_alientek/tf-a-stm32mp-2.2.r1-r0/tf-a-stm32mp-2.2.r1/../build/optee/bl2/stm32mp1_boot_device.o
LOAD /home/charles/linux/code/tfa/mp157_alientek/tf-a-stm32mp-2.2.r1-r0/tf-a-stm32mp-2.2.r1/../build/optee/bl2/stm32mp1_ddr.o
LOAD /home/charles/linux/code/tfa/mp157_alientek/tf-a-stm32mp-2.2.r1-r0/tf-a-stm32mp-2.2.r1/../build/optee/bl2/stm32mp1_ram.o
LOAD /home/charles/linux/code/tfa/mp157_alientek/tf-a-stm32mp-2.2.r1-r0/tf-a-stm32mp-2.2.r1/../build/optee/bl2/desc_image_load.o
LOAD /home/charles/linux/code/tfa/mp157_alientek/tf-a-stm32mp-2.2.r1-r0/tf-a-stm32mp-2.2.r1/../build/optee/bl2/plat_bl2_mem_params_desc.o
LOAD /home/charles/linux/code/tfa/mp157_alientek/tf-a-stm32mp-2.2.r1-r0/tf-a-stm32mp-2.2.r1/../build/optee/bl2/plat_image_load.o
LOAD /home/charles/linux/code/tfa/mp157_alientek/tf-a-stm32mp-2.2.r1-r0/tf-a-stm32mp-2.2.r1/../build/optee/bl2/optee_utils.o
LOAD /home/charles/linux/code/tfa/mp157_alientek/tf-a-stm32mp-2.2.r1-r0/tf-a-stm32mp-2.2.r1/../build/optee/bl2/bl2_image_load_v2.o
LOAD /home/charles/linux/code/tfa/mp157_alientek/tf-a-stm32mp-2.2.r1-r0/tf-a-stm32mp-2.2.r1/../build/optee/bl2/bl2_main.o
LOAD /home/charles/linux/code/tfa/mp157_alientek/tf-a-stm32mp-2.2.r1-r0/tf-a-stm32mp-2.2.r1/../build/optee/bl2/bl2_arch_setup.o
LOAD /home/charles/linux/code/tfa/mp157_alientek/tf-a-stm32mp-2.2.r1-r0/tf-a-stm32mp-2.2.r1/../build/optee/bl2/errata_report.o
LOAD /home/charles/linux/code/tfa/mp157_alientek/tf-a-stm32mp-2.2.r1-r0/tf-a-stm32mp-2.2.r1/../build/optee/bl2/bl_common.o
LOAD /home/charles/linux/code/tfa/mp157_alientek/tf-a-stm32mp-2.2.r1-r0/tf-a-stm32mp-2.2.r1/../build/optee/bl2/tf_log.o
LOAD /home/charles/linux/code/tfa/mp157_alientek/tf-a-stm32mp-2.2.r1-r0/tf-a-stm32mp-2.2.r1/../build/optee/bl2/multi_console.o
LOAD /home/charles/linux/code/tfa/mp157_alientek/tf-a-stm32mp-2.2.r1-r0/tf-a-stm32mp-2.2.r1/../build/optee/bl2/plat_bl_common.o
LOAD /home/charles/linux/code/tfa/mp157_alientek/tf-a-stm32mp-2.2.r1-r0/tf-a-stm32mp-2.2.r1/../build/optee/bl2/plat_log_common.o
LOAD /home/charles/linux/code/tfa/mp157_alientek/tf-a-stm32mp-2.2.r1-r0/tf-a-stm32mp-2.2.r1/../build/optee/bl2/plat_common.o
LOAD /home/charles/linux/code/tfa/mp157_alientek/tf-a-stm32mp-2.2.r1-r0/tf-a-stm32mp-2.2.r1/../build/optee/bl2/popcountdi2.o
LOAD /home/charles/linux/code/tfa/mp157_alientek/tf-a-stm32mp-2.2.r1-r0/tf-a-stm32mp-2.2.r1/../build/optee/bl2/popcountsi2.o
LOAD /home/charles/linux/code/tfa/mp157_alientek/tf-a-stm32mp-2.2.r1-r0/tf-a-stm32mp-2.2.r1/../build/optee/bl2/ctzdi2.o
LOAD /home/charles/linux/code/tfa/mp157_alientek/tf-a-stm32mp-2.2.r1-r0/tf-a-stm32mp-2.2.r1/../build/optee/bl2/divdi3.o
LOAD /home/charles/linux/code/tfa/mp157_alientek/tf-a-stm32mp-2.2.r1-r0/tf-a-stm32mp-2.2.r1/../build/optee/bl2/divmoddi4.o
LOAD /home/charles/linux/code/tfa/mp157_alientek/tf-a-stm32mp-2.2.r1-r0/tf-a-stm32mp-2.2.r1/../build/optee/bl2/lshrdi3.o
LOAD /home/charles/linux/code/tfa/mp157_alientek/tf-a-stm32mp-2.2.r1-r0/tf-a-stm32mp-2.2.r1/../build/optee/bl2/udivmoddi4.o
LOAD /home/charles/linux/code/tfa/mp157_alientek/tf-a-stm32mp-2.2.r1-r0/tf-a-stm32mp-2.2.r1/../build/optee/bl2/stm32mp_common.o
LOAD /home/charles/linux/code/tfa/mp157_alientek/tf-a-stm32mp-2.2.r1-r0/tf-a-stm32mp-2.2.r1/../build/optee/bl2/stm32mp1_private.o
LOAD /home/charles/linux/code/tfa/mp157_alientek/tf-a-stm32mp-2.2.r1-r0/tf-a-stm32mp-2.2.r1/../build/optee/bl2/xlat_tables_arch.o
LOAD /home/charles/linux/code/tfa/mp157_alientek/tf-a-stm32mp-2.2.r1-r0/tf-a-stm32mp-2.2.r1/../build/optee/bl2/xlat_tables_context.o
LOAD /home/charles/linux/code/tfa/mp157_alientek/tf-a-stm32mp-2.2.r1-r0/tf-a-stm32mp-2.2.r1/../build/optee/bl2/xlat_tables_core.o
LOAD /home/charles/linux/code/tfa/mp157_alientek/tf-a-stm32mp-2.2.r1-r0/tf-a-stm32mp-2.2.r1/../build/optee/bl2/xlat_tables_utils.o
LOAD /home/charles/linux/code/tfa/mp157_alientek/tf-a-stm32mp-2.2.r1-r0/tf-a-stm32mp-2.2.r1/../build/optee/bl2/tzc400.o
LOAD /home/charles/linux/code/tfa/mp157_alientek/tf-a-stm32mp-2.2.r1-r0/tf-a-stm32mp-2.2.r1/../build/optee/bl2/delay_timer.o
LOAD /home/charles/linux/code/tfa/mp157_alientek/tf-a-stm32mp-2.2.r1-r0/tf-a-stm32mp-2.2.r1/../build/optee/bl2/generic_delay_timer.o
LOAD /home/charles/linux/code/tfa/mp157_alientek/tf-a-stm32mp-2.2.r1-r0/tf-a-stm32mp-2.2.r1/../build/optee/bl2/bsec2.o
LOAD /home/charles/linux/code/tfa/mp157_alientek/tf-a-stm32mp-2.2.r1-r0/tf-a-stm32mp-2.2.r1/../build/optee/bl2/stm32mp_clkfunc.o
LOAD /home/charles/linux/code/tfa/mp157_alientek/tf-a-stm32mp-2.2.r1-r0/tf-a-stm32mp-2.2.r1/../build/optee/bl2/stm32mp1_clk.o
LOAD /home/charles/linux/code/tfa/mp157_alientek/tf-a-stm32mp-2.2.r1-r0/tf-a-stm32mp-2.2.r1/../build/optee/bl2/stm32mp1_ddr_helpers.o
LOAD /home/charles/linux/code/tfa/mp157_alientek/tf-a-stm32mp-2.2.r1-r0/tf-a-stm32mp-2.2.r1/../build/optee/bl2/stm32_gpio.o
LOAD /home/charles/linux/code/tfa/mp157_alientek/tf-a-stm32mp-2.2.r1-r0/tf-a-stm32mp-2.2.r1/../build/optee/bl2/stm32_i2c.o
LOAD /home/charles/linux/code/tfa/mp157_alientek/tf-a-stm32mp-2.2.r1-r0/tf-a-stm32mp-2.2.r1/../build/optee/bl2/stm32_iwdg.o
LOAD /home/charles/linux/code/tfa/mp157_alientek/tf-a-stm32mp-2.2.r1-r0/tf-a-stm32mp-2.2.r1/../build/optee/bl2/stm32mp_pmic.o
LOAD /home/charles/linux/code/tfa/mp157_alientek/tf-a-stm32mp-2.2.r1-r0/tf-a-stm32mp-2.2.r1/../build/optee/bl2/stpmic1.o
LOAD /home/charles/linux/code/tfa/mp157_alientek/tf-a-stm32mp-2.2.r1-r0/tf-a-stm32mp-2.2.r1/../build/optee/bl2/stm32mp_dummy_regulator.o
LOAD /home/charles/linux/code/tfa/mp157_alientek/tf-a-stm32mp-2.2.r1-r0/tf-a-stm32mp-2.2.r1/../build/optee/bl2/stm32mp_regulator.o
LOAD /home/charles/linux/code/tfa/mp157_alientek/tf-a-stm32mp-2.2.r1-r0/tf-a-stm32mp-2.2.r1/../build/optee/bl2/stm32mp1_reset.o
LOAD /home/charles/linux/code/tfa/mp157_alientek/tf-a-stm32mp-2.2.r1-r0/tf-a-stm32mp-2.2.r1/../build/optee/bl2/stm32mp_dt.o
LOAD /home/charles/linux/code/tfa/mp157_alientek/tf-a-stm32mp-2.2.r1-r0/tf-a-stm32mp-2.2.r1/../build/optee/bl2/stm32mp_shres_helpers.o
LOAD /home/charles/linux/code/tfa/mp157_alientek/tf-a-stm32mp-2.2.r1-r0/tf-a-stm32mp-2.2.r1/../build/optee/bl2/stm32mp1_context.o
LOAD /home/charles/linux/code/tfa/mp157_alientek/tf-a-stm32mp-2.2.r1-r0/tf-a-stm32mp-2.2.r1/../build/optee/bl2/stm32mp1_dbgmcu.o
LOAD /home/charles/linux/code/tfa/mp157_alientek/tf-a-stm32mp-2.2.r1-r0/tf-a-stm32mp-2.2.r1/../build/optee/bl2/stm32mp1_security.o
LOAD /home/charles/linux/code/tfa/mp157_alientek/tf-a-stm32mp-2.2.r1-r0/tf-a-stm32mp-2.2.r1/../build/optee/bl2/stm32mp1_syscfg.o
LOAD /home/charles/linux/code/tfa/mp157_alientek/tf-a-stm32mp-2.2.r1-r0/tf-a-stm32mp-2.2.r1/../build/optee/bl2/spinlock.o
LOAD /home/charles/linux/code/tfa/mp157_alientek/tf-a-stm32mp-2.2.r1-r0/tf-a-stm32mp-2.2.r1/../build/optee/bl2/platform_up_stack.o
LOAD /home/charles/linux/code/tfa/mp157_alientek/tf-a-stm32mp-2.2.r1-r0/tf-a-stm32mp-2.2.r1/../build/optee/bl2/bl2_el3_entrypoint.o
LOAD /home/charles/linux/code/tfa/mp157_alientek/tf-a-stm32mp-2.2.r1-r0/tf-a-stm32mp-2.2.r1/../build/optee/bl2/bl2_el3_exceptions.o
LOAD /home/charles/linux/code/tfa/mp157_alientek/tf-a-stm32mp-2.2.r1-r0/tf-a-stm32mp-2.2.r1/../build/optee/bl2/cpu_helpers.o
LOAD /home/charles/linux/code/tfa/mp157_alientek/tf-a-stm32mp-2.2.r1-r0/tf-a-stm32mp-2.2.r1/../build/optee/bl2/debug.o
LOAD /home/charles/linux/code/tfa/mp157_alientek/tf-a-stm32mp-2.2.r1-r0/tf-a-stm32mp-2.2.r1/../build/optee/bl2/cache_helpers.o
LOAD /home/charles/linux/code/tfa/mp157_alientek/tf-a-stm32mp-2.2.r1-r0/tf-a-stm32mp-2.2.r1/../build/optee/bl2/misc_helpers.o
LOAD /home/charles/linux/code/tfa/mp157_alientek/tf-a-stm32mp-2.2.r1-r0/tf-a-stm32mp-2.2.r1/../build/optee/bl2/platform_helpers.o
LOAD /home/charles/linux/code/tfa/mp157_alientek/tf-a-stm32mp-2.2.r1-r0/tf-a-stm32mp-2.2.r1/../build/optee/bl2/aeabi_ldivmod.o
LOAD /home/charles/linux/code/tfa/mp157_alientek/tf-a-stm32mp-2.2.r1-r0/tf-a-stm32mp-2.2.r1/../build/optee/bl2/aeabi_uldivmod.o
LOAD /home/charles/linux/code/tfa/mp157_alientek/tf-a-stm32mp-2.2.r1-r0/tf-a-stm32mp-2.2.r1/../build/optee/bl2/stm32_console.o
LOAD /home/charles/linux/code/tfa/mp157_alientek/tf-a-stm32mp-2.2.r1-r0/tf-a-stm32mp-2.2.r1/../build/optee/bl2/enable_mmu.o
LOAD /home/charles/linux/code/tfa/mp157_alientek/tf-a-stm32mp-2.2.r1-r0/tf-a-stm32mp-2.2.r1/../build/optee/bl2/cortex_a7.o
LOAD /home/charles/linux/code/tfa/mp157_alientek/tf-a-stm32mp-2.2.r1-r0/tf-a-stm32mp-2.2.r1/../build/optee/bl2/stm32mp1_helper.o
LOAD /home/charles/linux/code/tfa/mp157_alientek/tf-a-stm32mp-2.2.r1-r0/tf-a-stm32mp-2.2.r1/../build/optee/lib/libfdt.a
LOAD /home/charles/linux/code/tfa/mp157_alientek/tf-a-stm32mp-2.2.r1-r0/tf-a-stm32mp-2.2.r1/../build/optee/lib/libc.a
OUTPUT(/home/charles/linux/code/tfa/mp157_alientek/tf-a-stm32mp-2.2.r1-r0/tf-a-stm32mp-2.2.r1/../build/optee/bl2/bl2.elf elf32-littlearm)

.debug_info     0x0000000000000000    0x49f69
 .debug_info    0x0000000000000000       0x7b /home/charles/linux/code/tfa/mp157_alientek/tf-a-stm32mp-2.2.r1-r0/tf-a-stm32mp-2.2.r1/../build/optee/bl2/build_message.o
 .debug_info    0x000000000000007b      0xfce /home/charles/linux/code/tfa/mp157_alientek/tf-a-stm32mp-2.2.r1-r0/tf-a-stm32mp-2.2.r1/../build/optee/bl2/io_block.o
 .debug_info    0x0000000000001049      0x98d /home/charles/linux/code/tfa/mp157_alientek/tf-a-stm32mp-2.2.r1-r0/tf-a-stm32mp-2.2.r1/../build/optee/bl2/io_dummy.o
 .debug_info    0x00000000000019d6      0xc6c /home/charles/linux/code/tfa/mp157_alientek/tf-a-stm32mp-2.2.r1-r0/tf-a-stm32mp-2.2.r1/../build/optee/bl2/io_mtd.o
 .debug_info    0x0000000000002642     0x1092 /home/charles/linux/code/tfa/mp157_alientek/tf-a-stm32mp-2.2.r1-r0/tf-a-stm32mp-2.2.r1/../build/optee/bl2/io_storage.o
 .debug_info    0x00000000000036d4     0x10c7 /home/charles/linux/code/tfa/mp157_alientek/tf-a-stm32mp-2.2.r1-r0/tf-a-stm32mp-2.2.r1/../build/optee/bl2/stm32_hash.o
 .debug_info    0x000000000000479b      0xedc /home/charles/linux/code/tfa/mp157_alientek/tf-a-stm32mp-2.2.r1-r0/tf-a-stm32mp-2.2.r1/../build/optee/bl2/io_stm32image.o
 .debug_info    0x0000000000005677     0x17fb /home/charles/linux/code/tfa/mp157_alientek/tf-a-stm32mp-2.2.r1-r0/tf-a-stm32mp-2.2.r1/../build/optee/bl2/bl2_io_storage.o
 .debug_info    0x0000000000006e72     0x1c0f /home/charles/linux/code/tfa/mp157_alientek/tf-a-stm32mp-2.2.r1-r0/tf-a-stm32mp-2.2.r1/../build/optee/bl2/bl2_plat_setup.o
 .debug_info    0x0000000000008a81      0xf04 /home/charles/linux/code/tfa/mp157_alientek/tf-a-stm32mp-2.2.r1-r0/tf-a-stm32mp-2.2.r1/../build/optee/bl2/auth_mod.o
 .debug_info    0x0000000000009985      0x3ed /home/charles/linux/code/tfa/mp157_alientek/tf-a-stm32mp-2.2.r1-r0/tf-a-stm32mp-2.2.r1/../build/optee/bl2/crypto_mod.o
 .debug_info    0x0000000000009d72      0x579 /home/charles/linux/code/tfa/mp157_alientek/tf-a-stm32mp-2.2.r1-r0/tf-a-stm32mp-2.2.r1/../build/optee/bl2/img_parser_mod.o
 .debug_info    0x000000000000a2eb      0x57e /home/charles/linux/code/tfa/mp157_alientek/tf-a-stm32mp-2.2.r1-r0/tf-a-stm32mp-2.2.r1/../build/optee/bl2/stm32mp_cot.o
 .debug_info    0x000000000000a869      0xb88 /home/charles/linux/code/tfa/mp157_alientek/tf-a-stm32mp-2.2.r1-r0/tf-a-stm32mp-2.2.r1/../build/optee/bl2/stm32mp_crypto_lib.o
 .debug_info    0x000000000000b3f1      0x547 /home/charles/linux/code/tfa/mp157_alientek/tf-a-stm32mp-2.2.r1-r0/tf-a-stm32mp-2.2.r1/../build/optee/bl2/stm32mp_img_parser_lib.o
 .debug_info    0x000000000000b938      0x3ba /home/charles/linux/code/tfa/mp157_alientek/tf-a-stm32mp-2.2.r1-r0/tf-a-stm32mp-2.2.r1/../build/optee/bl2/stm32mp_trusted_boot.o
 .debug_info    0x000000000000bcf2     0x1c8b /home/charles/linux/code/tfa/mp157_alientek/tf-a-stm32mp-2.2.r1-r0/tf-a-stm32mp-2.2.r1/../build/optee/bl2/mmc.o
 .debug_info    0x000000000000d97d      0x3a9 /home/charles/linux/code/tfa/mp157_alientek/tf-a-stm32mp-2.2.r1-r0/tf-a-stm32mp-2.2.r1/../build/optee/bl2/gpt.o
 .debug_info    0x000000000000dd26      0xb8e /home/charles/linux/code/tfa/mp157_alientek/tf-a-stm32mp-2.2.r1-r0/tf-a-stm32mp-2.2.r1/../build/optee/bl2/partition.o
 .debug_info    0x000000000000e8b4      0x7fe /home/charles/linux/code/tfa/mp157_alientek/tf-a-stm32mp-2.2.r1-r0/tf-a-stm32mp-2.2.r1/../build/optee/bl2/io_mmc.o
 .debug_info    0x000000000000f0b2     0x2354 /home/charles/linux/code/tfa/mp157_alientek/tf-a-stm32mp-2.2.r1-r0/tf-a-stm32mp-2.2.r1/../build/optee/bl2/stm32_sdmmc2.o
 .debug_info    0x0000000000011406     0x14f5 /home/charles/linux/code/tfa/mp157_alientek/tf-a-stm32mp-2.2.r1-r0/tf-a-stm32mp-2.2.r1/../build/optee/bl2/raw_nand.o
 .debug_info    0x00000000000128fb     0x2357 /home/charles/linux/code/tfa/mp157_alientek/tf-a-stm32mp-2.2.r1-r0/tf-a-stm32mp-2.2.r1/../build/optee/bl2/stm32_fmc2_nand.o
 .debug_info    0x0000000000014c52     0x1065 /home/charles/linux/code/tfa/mp157_alientek/tf-a-stm32mp-2.2.r1-r0/tf-a-stm32mp-2.2.r1/../build/optee/bl2/spi_nand.o
 .debug_info    0x0000000000015cb7      0xdb5 /home/charles/linux/code/tfa/mp157_alientek/tf-a-stm32mp-2.2.r1-r0/tf-a-stm32mp-2.2.r1/../build/optee/bl2/spi_nor.o
 .debug_info    0x0000000000016a6c      0x8fc /home/charles/linux/code/tfa/mp157_alientek/tf-a-stm32mp-2.2.r1-r0/tf-a-stm32mp-2.2.r1/../build/optee/bl2/spi_mem.o
 .debug_info    0x0000000000017368     0x1a82 /home/charles/linux/code/tfa/mp157_alientek/tf-a-stm32mp-2.2.r1-r0/tf-a-stm32mp-2.2.r1/../build/optee/bl2/stm32_qspi.o
 .debug_info    0x0000000000018dea      0x4b8 /home/charles/linux/code/tfa/mp157_alientek/tf-a-stm32mp-2.2.r1-r0/tf-a-stm32mp-2.2.r1/../build/optee/bl2/core.o
 .debug_info    0x00000000000192a2      0x6cf /home/charles/linux/code/tfa/mp157_alientek/tf-a-stm32mp-2.2.r1-r0/tf-a-stm32mp-2.2.r1/../build/optee/bl2/stm32mp1_boot_device.o
 .debug_info    0x0000000000019971     0x48ee /home/charles/linux/code/tfa/mp157_alientek/tf-a-stm32mp-2.2.r1-r0/tf-a-stm32mp-2.2.r1/../build/optee/bl2/stm32mp1_ddr.o
 .debug_info    0x000000000001e25f     0x2066 /home/charles/linux/code/tfa/mp157_alientek/tf-a-stm32mp-2.2.r1-r0/tf-a-stm32mp-2.2.r1/../build/optee/bl2/stm32mp1_ram.o
 .debug_info    0x00000000000202c5      0x9e1 /home/charles/linux/code/tfa/mp157_alientek/tf-a-stm32mp-2.2.r1-r0/tf-a-stm32mp-2.2.r1/../build/optee/bl2/desc_image_load.o
 .debug_info    0x0000000000020ca6      0x42d /home/charles/linux/code/tfa/mp157_alientek/tf-a-stm32mp-2.2.r1-r0/tf-a-stm32mp-2.2.r1/../build/optee/bl2/plat_bl2_mem_params_desc.o
 .debug_info    0x00000000000210d3      0xa5d /home/charles/linux/code/tfa/mp157_alientek/tf-a-stm32mp-2.2.r1-r0/tf-a-stm32mp-2.2.r1/../build/optee/bl2/plat_image_load.o
 .debug_info    0x0000000000021b30      0x83c /home/charles/linux/code/tfa/mp157_alientek/tf-a-stm32mp-2.2.r1-r0/tf-a-stm32mp-2.2.r1/../build/optee/bl2/optee_utils.o
 .debug_info    0x000000000002236c      0x991 /home/charles/linux/code/tfa/mp157_alientek/tf-a-stm32mp-2.2.r1-r0/tf-a-stm32mp-2.2.r1/../build/optee/bl2/bl2_image_load_v2.o
 .debug_info    0x0000000000022cfd      0x797 /home/charles/linux/code/tfa/mp157_alientek/tf-a-stm32mp-2.2.r1-r0/tf-a-stm32mp-2.2.r1/../build/optee/bl2/bl2_main.o
 .debug_info    0x0000000000023494      0x116 /home/charles/linux/code/tfa/mp157_alientek/tf-a-stm32mp-2.2.r1-r0/tf-a-stm32mp-2.2.r1/../build/optee/bl2/bl2_arch_setup.o
 .debug_info    0x00000000000235aa      0xacd /home/charles/linux/code/tfa/mp157_alientek/tf-a-stm32mp-2.2.r1-r0/tf-a-stm32mp-2.2.r1/../build/optee/bl2/bl_common.o
 .debug_info    0x0000000000024077      0x2ac /home/charles/linux/code/tfa/mp157_alientek/tf-a-stm32mp-2.2.r1-r0/tf-a-stm32mp-2.2.r1/../build/optee/bl2/tf_log.o
 .debug_info    0x0000000000024323      0x647 /home/charles/linux/code/tfa/mp157_alientek/tf-a-stm32mp-2.2.r1-r0/tf-a-stm32mp-2.2.r1/../build/optee/bl2/multi_console.o
 .debug_info    0x000000000002496a      0x340 /home/charles/linux/code/tfa/mp157_alientek/tf-a-stm32mp-2.2.r1-r0/tf-a-stm32mp-2.2.r1/../build/optee/bl2/plat_bl_common.o
 .debug_info    0x0000000000024caa      0x1d3 /home/charles/linux/code/tfa/mp157_alientek/tf-a-stm32mp-2.2.r1-r0/tf-a-stm32mp-2.2.r1/../build/optee/bl2/plat_log_common.o
 .debug_info    0x0000000000024e7d       0xe9 /home/charles/linux/code/tfa/mp157_alientek/tf-a-stm32mp-2.2.r1-r0/tf-a-stm32mp-2.2.r1/../build/optee/bl2/popcountsi2.o
 .debug_info    0x0000000000024f66      0x154 /home/charles/linux/code/tfa/mp157_alientek/tf-a-stm32mp-2.2.r1-r0/tf-a-stm32mp-2.2.r1/../build/optee/bl2/ctzdi2.o
 .debug_info    0x00000000000250ba      0x1f6 /home/charles/linux/code/tfa/mp157_alientek/tf-a-stm32mp-2.2.r1-r0/tf-a-stm32mp-2.2.r1/../build/optee/bl2/udivmoddi4.o
 .debug_info    0x00000000000252b0      0x7b5 /home/charles/linux/code/tfa/mp157_alientek/tf-a-stm32mp-2.2.r1-r0/tf-a-stm32mp-2.2.r1/../build/optee/bl2/stm32mp_common.o
 .debug_info    0x0000000000025a65     0x1345 /home/charles/linux/code/tfa/mp157_alientek/tf-a-stm32mp-2.2.r1-r0/tf-a-stm32mp-2.2.r1/../build/optee/bl2/stm32mp1_private.o
 .debug_info    0x0000000000026daa      0x9b7 /home/charles/linux/code/tfa/mp157_alientek/tf-a-stm32mp-2.2.r1-r0/tf-a-stm32mp-2.2.r1/../build/optee/bl2/xlat_tables_arch.o
 .debug_info    0x0000000000027761      0x9c2 /home/charles/linux/code/tfa/mp157_alientek/tf-a-stm32mp-2.2.r1-r0/tf-a-stm32mp-2.2.r1/../build/optee/bl2/xlat_tables_context.o
 .debug_info    0x0000000000028123     0x18ab /home/charles/linux/code/tfa/mp157_alientek/tf-a-stm32mp-2.2.r1-r0/tf-a-stm32mp-2.2.r1/../build/optee/bl2/xlat_tables_core.o
 .debug_info    0x00000000000299ce      0xa8e /home/charles/linux/code/tfa/mp157_alientek/tf-a-stm32mp-2.2.r1-r0/tf-a-stm32mp-2.2.r1/../build/optee/bl2/xlat_tables_utils.o
 .debug_info    0x000000000002a45c     0x1345 /home/charles/linux/code/tfa/mp157_alientek/tf-a-stm32mp-2.2.r1-r0/tf-a-stm32mp-2.2.r1/../build/optee/bl2/tzc400.o
 .debug_info    0x000000000002b7a1      0x314 /home/charles/linux/code/tfa/mp157_alientek/tf-a-stm32mp-2.2.r1-r0/tf-a-stm32mp-2.2.r1/../build/optee/bl2/delay_timer.o
 .debug_info    0x000000000002bab5      0x395 /home/charles/linux/code/tfa/mp157_alientek/tf-a-stm32mp-2.2.r1-r0/tf-a-stm32mp-2.2.r1/../build/optee/bl2/generic_delay_timer.o
 .debug_info    0x000000000002be4a     0x19ff /home/charles/linux/code/tfa/mp157_alientek/tf-a-stm32mp-2.2.r1-r0/tf-a-stm32mp-2.2.r1/../build/optee/bl2/bsec2.o
 .debug_info    0x000000000002d849     0x1246 /home/charles/linux/code/tfa/mp157_alientek/tf-a-stm32mp-2.2.r1-r0/tf-a-stm32mp-2.2.r1/../build/optee/bl2/stm32mp_clkfunc.o
 .debug_info    0x000000000002ea8f     0x7961 /home/charles/linux/code/tfa/mp157_alientek/tf-a-stm32mp-2.2.r1-r0/tf-a-stm32mp-2.2.r1/../build/optee/bl2/stm32mp1_clk.o
 .debug_info    0x00000000000363f0     0x458a /home/charles/linux/code/tfa/mp157_alientek/tf-a-stm32mp-2.2.r1-r0/tf-a-stm32mp-2.2.r1/../build/optee/bl2/stm32mp1_ddr_helpers.o
 .debug_info    0x000000000003a97a     0x1330 /home/charles/linux/code/tfa/mp157_alientek/tf-a-stm32mp-2.2.r1-r0/tf-a-stm32mp-2.2.r1/../build/optee/bl2/stm32_gpio.o
 .debug_info    0x000000000003bcaa     0x3135 /home/charles/linux/code/tfa/mp157_alientek/tf-a-stm32mp-2.2.r1-r0/tf-a-stm32mp-2.2.r1/../build/optee/bl2/stm32_i2c.o
 .debug_info    0x000000000003eddf      0x670 /home/charles/linux/code/tfa/mp157_alientek/tf-a-stm32mp-2.2.r1-r0/tf-a-stm32mp-2.2.r1/../build/optee/bl2/stm32_iwdg.o
 .debug_info    0x000000000003f44f     0x1653 /home/charles/linux/code/tfa/mp157_alientek/tf-a-stm32mp-2.2.r1-r0/tf-a-stm32mp-2.2.r1/../build/optee/bl2/stm32mp_pmic.o
 .debug_info    0x0000000000040aa2      0xf85 /home/charles/linux/code/tfa/mp157_alientek/tf-a-stm32mp-2.2.r1-r0/tf-a-stm32mp-2.2.r1/../build/optee/bl2/stpmic1.o
 .debug_info    0x0000000000041a27      0x145 /home/charles/linux/code/tfa/mp157_alientek/tf-a-stm32mp-2.2.r1-r0/tf-a-stm32mp-2.2.r1/../build/optee/bl2/stm32mp_dummy_regulator.o
 .debug_info    0x0000000000041b6c      0x315 /home/charles/linux/code/tfa/mp157_alientek/tf-a-stm32mp-2.2.r1-r0/tf-a-stm32mp-2.2.r1/../build/optee/bl2/stm32mp_regulator.o
 .debug_info    0x0000000000041e81      0x739 /home/charles/linux/code/tfa/mp157_alientek/tf-a-stm32mp-2.2.r1-r0/tf-a-stm32mp-2.2.r1/../build/optee/bl2/stm32mp1_reset.o
 .debug_info    0x00000000000425ba     0x1835 /home/charles/linux/code/tfa/mp157_alientek/tf-a-stm32mp-2.2.r1-r0/tf-a-stm32mp-2.2.r1/../build/optee/bl2/stm32mp_dt.o
 .debug_info    0x0000000000043def      0x5b1 /home/charles/linux/code/tfa/mp157_alientek/tf-a-stm32mp-2.2.r1-r0/tf-a-stm32mp-2.2.r1/../build/optee/bl2/stm32mp_shres_helpers.o
 .debug_info    0x00000000000443a0      0x7e8 /home/charles/linux/code/tfa/mp157_alientek/tf-a-stm32mp-2.2.r1-r0/tf-a-stm32mp-2.2.r1/../build/optee/bl2/stm32mp1_context.o
 .debug_info    0x0000000000044b88      0x4ad /home/charles/linux/code/tfa/mp157_alientek/tf-a-stm32mp-2.2.r1-r0/tf-a-stm32mp-2.2.r1/../build/optee/bl2/stm32mp1_dbgmcu.o
 .debug_info    0x0000000000045035      0x3e5 /home/charles/linux/code/tfa/mp157_alientek/tf-a-stm32mp-2.2.r1-r0/tf-a-stm32mp-2.2.r1/../build/optee/bl2/stm32mp1_security.o
 .debug_info    0x000000000004541a      0x98e /home/charles/linux/code/tfa/mp157_alientek/tf-a-stm32mp-2.2.r1-r0/tf-a-stm32mp-2.2.r1/../build/optee/bl2/stm32mp1_syscfg.o
 .debug_info    0x0000000000045da8       0x22 /home/charles/linux/code/tfa/mp157_alientek/tf-a-stm32mp-2.2.r1-r0/tf-a-stm32mp-2.2.r1/../build/optee/bl2/spinlock.o
 .debug_info    0x0000000000045dca       0x22 /home/charles/linux/code/tfa/mp157_alientek/tf-a-stm32mp-2.2.r1-r0/tf-a-stm32mp-2.2.r1/../build/optee/bl2/platform_up_stack.o
 .debug_info    0x0000000000045dec       0x22 /home/charles/linux/code/tfa/mp157_alientek/tf-a-stm32mp-2.2.r1-r0/tf-a-stm32mp-2.2.r1/../build/optee/bl2/bl2_el3_entrypoint.o
 .debug_info    0x0000000000045e0e       0x26 /home/charles/linux/code/tfa/mp157_alientek/tf-a-stm32mp-2.2.r1-r0/tf-a-stm32mp-2.2.r1/../build/optee/bl2/bl2_el3_exceptions.o
 .debug_info    0x0000000000045e34       0x22 /home/charles/linux/code/tfa/mp157_alientek/tf-a-stm32mp-2.2.r1-r0/tf-a-stm32mp-2.2.r1/../build/optee/bl2/cpu_helpers.o
 .debug_info    0x0000000000045e56       0x22 /home/charles/linux/code/tfa/mp157_alientek/tf-a-stm32mp-2.2.r1-r0/tf-a-stm32mp-2.2.r1/../build/optee/bl2/debug.o
 .debug_info    0x0000000000045e78       0x22 /home/charles/linux/code/tfa/mp157_alientek/tf-a-stm32mp-2.2.r1-r0/tf-a-stm32mp-2.2.r1/../build/optee/bl2/cache_helpers.o
 .debug_info    0x0000000000045e9a       0x22 /home/charles/linux/code/tfa/mp157_alientek/tf-a-stm32mp-2.2.r1-r0/tf-a-stm32mp-2.2.r1/../build/optee/bl2/misc_helpers.o
 .debug_info    0x0000000000045ebc       0x26 /home/charles/linux/code/tfa/mp157_alientek/tf-a-stm32mp-2.2.r1-r0/tf-a-stm32mp-2.2.r1/../build/optee/bl2/aeabi_uldivmod.o
 .debug_info    0x0000000000045ee2       0x22 /home/charles/linux/code/tfa/mp157_alientek/tf-a-stm32mp-2.2.r1-r0/tf-a-stm32mp-2.2.r1/../build/optee/bl2/stm32_console.o
 .debug_info    0x0000000000045f04       0x22 /home/charles/linux/code/tfa/mp157_alientek/tf-a-stm32mp-2.2.r1-r0/tf-a-stm32mp-2.2.r1/../build/optee/bl2/enable_mmu.o
 .debug_info    0x0000000000045f26       0x22 /home/charles/linux/code/tfa/mp157_alientek/tf-a-stm32mp-2.2.r1-r0/tf-a-stm32mp-2.2.r1/../build/optee/bl2/cortex_a7.o
 .debug_info    0x0000000000045f48       0x22 /home/charles/linux/code/tfa/mp157_alientek/tf-a-stm32mp-2.2.r1-r0/tf-a-stm32mp-2.2.r1/../build/optee/bl2/stm32mp1_helper.o
 .debug_info    0x0000000000045f6a      0x7e8 /home/charles/linux/code/tfa/mp157_alientek/tf-a-stm32mp-2.2.r1-r0/tf-a-stm32mp-2.2.r1/../build/optee/lib/libfdt.a(fdt.o)
 .debug_info    0x0000000000046752      0x260 /home/charles/linux/code/tfa/mp157_alientek/tf-a-stm32mp-2.2.r1-r0/tf-a-stm32mp-2.2.r1/../build/optee/lib/libfdt.a(fdt_addresses.o)
 .debug_info    0x00000000000469b2     0x2261 /home/charles/linux/code/tfa/mp157_alientek/tf-a-stm32mp-2.2.r1-r0/tf-a-stm32mp-2.2.r1/../build/optee/lib/libfdt.a(fdt_ro.o)
 .debug_info    0x0000000000048c13      0x1f4 /home/charles/linux/code/tfa/mp157_alientek/tf-a-stm32mp-2.2.r1-r0/tf-a-stm32mp-2.2.r1/../build/optee/lib/libc.a(assert.o)
 .debug_info    0x0000000000048e07       0xc9 /home/charles/linux/code/tfa/mp157_alientek/tf-a-stm32mp-2.2.r1-r0/tf-a-stm32mp-2.2.r1/../build/optee/lib/libc.a(memchr.o)
 .debug_info    0x0000000000048ed0       0xff /home/charles/linux/code/tfa/mp157_alientek/tf-a-stm32mp-2.2.r1-r0/tf-a-stm32mp-2.2.r1/../build/optee/lib/libc.a(memcmp.o)
 .debug_info    0x0000000000048fcf       0xd6 /home/charles/linux/code/tfa/mp157_alientek/tf-a-stm32mp-2.2.r1-r0/tf-a-stm32mp-2.2.r1/../build/optee/lib/libc.a(memcpy.o)
 .debug_info    0x00000000000490a5      0x11e /home/charles/linux/code/tfa/mp157_alientek/tf-a-stm32mp-2.2.r1-r0/tf-a-stm32mp-2.2.r1/../build/optee/lib/libc.a(memmove.o)
 .debug_info    0x00000000000491c3       0xb5 /home/charles/linux/code/tfa/mp157_alientek/tf-a-stm32mp-2.2.r1-r0/tf-a-stm32mp-2.2.r1/../build/optee/lib/libc.a(memset.o)
 .debug_info    0x0000000000049278      0x4e5 /home/charles/linux/code/tfa/mp157_alientek/tf-a-stm32mp-2.2.r1-r0/tf-a-stm32mp-2.2.r1/../build/optee/lib/libc.a(printf.o)
 .debug_info    0x000000000004975d       0xcb /home/charles/linux/code/tfa/mp157_alientek/tf-a-stm32mp-2.2.r1-r0/tf-a-stm32mp-2.2.r1/../build/optee/lib/libc.a(putchar.o)
 .debug_info    0x0000000000049828      0x391 /home/charles/linux/code/tfa/mp157_alientek/tf-a-stm32mp-2.2.r1-r0/tf-a-stm32mp-2.2.r1/../build/optee/lib/libc.a(snprintf.o)
 .debug_info    0x0000000000049bb9       0xa5 /home/charles/linux/code/tfa/mp157_alientek/tf-a-stm32mp-2.2.r1-r0/tf-a-stm32mp-2.2.r1/../build/optee/lib/libc.a(strchr.o)
 .debug_info    0x0000000000049c5e       0x87 /home/charles/linux/code/tfa/mp157_alientek/tf-a-stm32mp-2.2.r1-r0/tf-a-stm32mp-2.2.r1/../build/optee/lib/libc.a(strcmp.o)
 .debug_info    0x0000000000049ce5       0x8c /home/charles/linux/code/tfa/mp157_alientek/tf-a-stm32mp-2.2.r1-r0/tf-a-stm32mp-2.2.r1/../build/optee/lib/libc.a(strlen.o)
 .debug_info    0x0000000000049d71       0xa5 /home/charles/linux/code/tfa/mp157_alientek/tf-a-stm32mp-2.2.r1-r0/tf-a-stm32mp-2.2.r1/../build/optee/lib/libc.a(strncmp.o)
 .debug_info    0x0000000000049e16       0x9a /home/charles/linux/code/tfa/mp157_alientek/tf-a-stm32mp-2.2.r1-r0/tf-a-stm32mp-2.2.r1/../build/optee/lib/libc.a(strnlen.o)
 .debug_info    0x0000000000049eb0       0xb9 /home/charles/linux/code/tfa/mp157_alientek/tf-a-stm32mp-2.2.r1-r0/tf-a-stm32mp-2.2.r1/../build/optee/lib/libc.a(strrchr.o)

.debug_abbrev   0x0000000000000000     0xd3b8
 .debug_abbrev  0x0000000000000000       0x45 /home/charles/linux/code/tfa/mp157_alientek/tf-a-stm32mp-2.2.r1-r0/tf-a-stm32mp-2.2.r1/../build/optee/bl2/build_message.o
 .debug_abbrev  0x0000000000000045      0x3c4 /home/charles/linux/code/tfa/mp157_alientek/tf-a-stm32mp-2.2.r1-r0/tf-a-stm32mp-2.2.r1/../build/optee/bl2/io_block.o
 .debug_abbrev  0x0000000000000409      0x24c /home/charles/linux/code/tfa/mp157_alientek/tf-a-stm32mp-2.2.r1-r0/tf-a-stm32mp-2.2.r1/../build/optee/bl2/io_dummy.o
 .debug_abbrev  0x0000000000000655      0x29a /home/charles/linux/code/tfa/mp157_alientek/tf-a-stm32mp-2.2.r1-r0/tf-a-stm32mp-2.2.r1/../build/optee/bl2/io_mtd.o
 .debug_abbrev  0x00000000000008ef      0x35b /home/charles/linux/code/tfa/mp157_alientek/tf-a-stm32mp-2.2.r1-r0/tf-a-stm32mp-2.2.r1/../build/optee/bl2/io_storage.o
 .debug_abbrev  0x0000000000000c4a      0x3fe /home/charles/linux/code/tfa/mp157_alientek/tf-a-stm32mp-2.2.r1-r0/tf-a-stm32mp-2.2.r1/../build/optee/bl2/stm32_hash.o
 .debug_abbrev  0x0000000000001048      0x331 /home/charles/linux/code/tfa/mp157_alientek/tf-a-stm32mp-2.2.r1-r0/tf-a-stm32mp-2.2.r1/../build/optee/bl2/io_stm32image.o
 .debug_abbrev  0x0000000000001379      0x345 /home/charles/linux/code/tfa/mp157_alientek/tf-a-stm32mp-2.2.r1-r0/tf-a-stm32mp-2.2.r1/../build/optee/bl2/bl2_io_storage.o
 .debug_abbrev  0x00000000000016be      0x404 /home/charles/linux/code/tfa/mp157_alientek/tf-a-stm32mp-2.2.r1-r0/tf-a-stm32mp-2.2.r1/../build/optee/bl2/bl2_plat_setup.o
 .debug_abbrev  0x0000000000001ac2      0x310 /home/charles/linux/code/tfa/mp157_alientek/tf-a-stm32mp-2.2.r1-r0/tf-a-stm32mp-2.2.r1/../build/optee/bl2/auth_mod.o
 .debug_abbrev  0x0000000000001dd2      0x169 /home/charles/linux/code/tfa/mp157_alientek/tf-a-stm32mp-2.2.r1-r0/tf-a-stm32mp-2.2.r1/../build/optee/bl2/crypto_mod.o
 .debug_abbrev  0x0000000000001f3b      0x1ff /home/charles/linux/code/tfa/mp157_alientek/tf-a-stm32mp-2.2.r1-r0/tf-a-stm32mp-2.2.r1/../build/optee/bl2/img_parser_mod.o
 .debug_abbrev  0x000000000000213a      0x134 /home/charles/linux/code/tfa/mp157_alientek/tf-a-stm32mp-2.2.r1-r0/tf-a-stm32mp-2.2.r1/../build/optee/bl2/stm32mp_cot.o
 .debug_abbrev  0x000000000000226e      0x260 /home/charles/linux/code/tfa/mp157_alientek/tf-a-stm32mp-2.2.r1-r0/tf-a-stm32mp-2.2.r1/../build/optee/bl2/stm32mp_crypto_lib.o
 .debug_abbrev  0x00000000000024ce      0x1ec /home/charles/linux/code/tfa/mp157_alientek/tf-a-stm32mp-2.2.r1-r0/tf-a-stm32mp-2.2.r1/../build/optee/bl2/stm32mp_img_parser_lib.o
 .debug_abbrev  0x00000000000026ba      0x1b3 /home/charles/linux/code/tfa/mp157_alientek/tf-a-stm32mp-2.2.r1-r0/tf-a-stm32mp-2.2.r1/../build/optee/bl2/stm32mp_trusted_boot.o
 .debug_abbrev  0x000000000000286d      0x4c8 /home/charles/linux/code/tfa/mp157_alientek/tf-a-stm32mp-2.2.r1-r0/tf-a-stm32mp-2.2.r1/../build/optee/bl2/mmc.o
 .debug_abbrev  0x0000000000002d35      0x18d /home/charles/linux/code/tfa/mp157_alientek/tf-a-stm32mp-2.2.r1-r0/tf-a-stm32mp-2.2.r1/../build/optee/bl2/gpt.o
 .debug_abbrev  0x0000000000002ec2      0x28c /home/charles/linux/code/tfa/mp157_alientek/tf-a-stm32mp-2.2.r1-r0/tf-a-stm32mp-2.2.r1/../build/optee/bl2/partition.o
 .debug_abbrev  0x000000000000314e      0x22c /home/charles/linux/code/tfa/mp157_alientek/tf-a-stm32mp-2.2.r1-r0/tf-a-stm32mp-2.2.r1/../build/optee/bl2/io_mmc.o
 .debug_abbrev  0x000000000000337a      0x4ea /home/charles/linux/code/tfa/mp157_alientek/tf-a-stm32mp-2.2.r1-r0/tf-a-stm32mp-2.2.r1/../build/optee/bl2/stm32_sdmmc2.o
 .debug_abbrev  0x0000000000003864      0x462 /home/charles/linux/code/tfa/mp157_alientek/tf-a-stm32mp-2.2.r1-r0/tf-a-stm32mp-2.2.r1/../build/optee/bl2/raw_nand.o
 .debug_abbrev  0x0000000000003cc6      0x501 /home/charles/linux/code/tfa/mp157_alientek/tf-a-stm32mp-2.2.r1-r0/tf-a-stm32mp-2.2.r1/../build/optee/bl2/stm32_fmc2_nand.o
 .debug_abbrev  0x00000000000041c7      0x3ce /home/charles/linux/code/tfa/mp157_alientek/tf-a-stm32mp-2.2.r1-r0/tf-a-stm32mp-2.2.r1/../build/optee/bl2/spi_nand.o
 .debug_abbrev  0x0000000000004595      0x3e1 /home/charles/linux/code/tfa/mp157_alientek/tf-a-stm32mp-2.2.r1-r0/tf-a-stm32mp-2.2.r1/../build/optee/bl2/spi_nor.o
 .debug_abbrev  0x0000000000004976      0x2c8 /home/charles/linux/code/tfa/mp157_alientek/tf-a-stm32mp-2.2.r1-r0/tf-a-stm32mp-2.2.r1/../build/optee/bl2/spi_mem.o
 .debug_abbrev  0x0000000000004c3e      0x493 /home/charles/linux/code/tfa/mp157_alientek/tf-a-stm32mp-2.2.r1-r0/tf-a-stm32mp-2.2.r1/../build/optee/bl2/stm32_qspi.o
 .debug_abbrev  0x00000000000050d1      0x1cd /home/charles/linux/code/tfa/mp157_alientek/tf-a-stm32mp-2.2.r1-r0/tf-a-stm32mp-2.2.r1/../build/optee/bl2/core.o
 .debug_abbrev  0x000000000000529e      0x1e4 /home/charles/linux/code/tfa/mp157_alientek/tf-a-stm32mp-2.2.r1-r0/tf-a-stm32mp-2.2.r1/../build/optee/bl2/stm32mp1_boot_device.o
 .debug_abbrev  0x0000000000005482      0x426 /home/charles/linux/code/tfa/mp157_alientek/tf-a-stm32mp-2.2.r1-r0/tf-a-stm32mp-2.2.r1/../build/optee/bl2/stm32mp1_ddr.o
 .debug_abbrev  0x00000000000058a8      0x37b /home/charles/linux/code/tfa/mp157_alientek/tf-a-stm32mp-2.2.r1-r0/tf-a-stm32mp-2.2.r1/../build/optee/bl2/stm32mp1_ram.o
 .debug_abbrev  0x0000000000005c23      0x2b5 /home/charles/linux/code/tfa/mp157_alientek/tf-a-stm32mp-2.2.r1-r0/tf-a-stm32mp-2.2.r1/../build/optee/bl2/desc_image_load.o
 .debug_abbrev  0x0000000000005ed8       0xe2 /home/charles/linux/code/tfa/mp157_alientek/tf-a-stm32mp-2.2.r1-r0/tf-a-stm32mp-2.2.r1/../build/optee/bl2/plat_bl2_mem_params_desc.o
 .debug_abbrev  0x0000000000005fba      0x217 /home/charles/linux/code/tfa/mp157_alientek/tf-a-stm32mp-2.2.r1-r0/tf-a-stm32mp-2.2.r1/../build/optee/bl2/plat_image_load.o
 .debug_abbrev  0x00000000000061d1      0x1a2 /home/charles/linux/code/tfa/mp157_alientek/tf-a-stm32mp-2.2.r1-r0/tf-a-stm32mp-2.2.r1/../build/optee/bl2/optee_utils.o
 .debug_abbrev  0x0000000000006373      0x1a8 /home/charles/linux/code/tfa/mp157_alientek/tf-a-stm32mp-2.2.r1-r0/tf-a-stm32mp-2.2.r1/../build/optee/bl2/bl2_image_load_v2.o
 .debug_abbrev  0x000000000000651b      0x1a1 /home/charles/linux/code/tfa/mp157_alientek/tf-a-stm32mp-2.2.r1-r0/tf-a-stm32mp-2.2.r1/../build/optee/bl2/bl2_main.o
 .debug_abbrev  0x00000000000066bc       0x8a /home/charles/linux/code/tfa/mp157_alientek/tf-a-stm32mp-2.2.r1-r0/tf-a-stm32mp-2.2.r1/../build/optee/bl2/bl2_arch_setup.o
 .debug_abbrev  0x0000000000006746      0x29c /home/charles/linux/code/tfa/mp157_alientek/tf-a-stm32mp-2.2.r1-r0/tf-a-stm32mp-2.2.r1/../build/optee/bl2/bl_common.o
 .debug_abbrev  0x00000000000069e2      0x163 /home/charles/linux/code/tfa/mp157_alientek/tf-a-stm32mp-2.2.r1-r0/tf-a-stm32mp-2.2.r1/../build/optee/bl2/tf_log.o
 .debug_abbrev  0x0000000000006b45      0x284 /home/charles/linux/code/tfa/mp157_alientek/tf-a-stm32mp-2.2.r1-r0/tf-a-stm32mp-2.2.r1/../build/optee/bl2/multi_console.o
 .debug_abbrev  0x0000000000006dc9      0x1e6 /home/charles/linux/code/tfa/mp157_alientek/tf-a-stm32mp-2.2.r1-r0/tf-a-stm32mp-2.2.r1/../build/optee/bl2/plat_bl_common.o
 .debug_abbrev  0x0000000000006faf       0xe8 /home/charles/linux/code/tfa/mp157_alientek/tf-a-stm32mp-2.2.r1-r0/tf-a-stm32mp-2.2.r1/../build/optee/bl2/plat_log_common.o
 .debug_abbrev  0x0000000000007097       0x7d /home/charles/linux/code/tfa/mp157_alientek/tf-a-stm32mp-2.2.r1-r0/tf-a-stm32mp-2.2.r1/../build/optee/bl2/popcountsi2.o
 .debug_abbrev  0x0000000000007114       0xe2 /home/charles/linux/code/tfa/mp157_alientek/tf-a-stm32mp-2.2.r1-r0/tf-a-stm32mp-2.2.r1/../build/optee/bl2/ctzdi2.o
 .debug_abbrev  0x00000000000071f6      0x119 /home/charles/linux/code/tfa/mp157_alientek/tf-a-stm32mp-2.2.r1-r0/tf-a-stm32mp-2.2.r1/../build/optee/bl2/udivmoddi4.o
 .debug_abbrev  0x000000000000730f      0x28d /home/charles/linux/code/tfa/mp157_alientek/tf-a-stm32mp-2.2.r1-r0/tf-a-stm32mp-2.2.r1/../build/optee/bl2/stm32mp_common.o
 .debug_abbrev  0x000000000000759c      0x45f /home/charles/linux/code/tfa/mp157_alientek/tf-a-stm32mp-2.2.r1-r0/tf-a-stm32mp-2.2.r1/../build/optee/bl2/stm32mp1_private.o
 .debug_abbrev  0x00000000000079fb      0x322 /home/charles/linux/code/tfa/mp157_alientek/tf-a-stm32mp-2.2.r1-r0/tf-a-stm32mp-2.2.r1/../build/optee/bl2/xlat_tables_arch.o
 .debug_abbrev  0x0000000000007d1d      0x1f0 /home/charles/linux/code/tfa/mp157_alientek/tf-a-stm32mp-2.2.r1-r0/tf-a-stm32mp-2.2.r1/../build/optee/bl2/xlat_tables_context.o
 .debug_abbrev  0x0000000000007f0d      0x45d /home/charles/linux/code/tfa/mp157_alientek/tf-a-stm32mp-2.2.r1-r0/tf-a-stm32mp-2.2.r1/../build/optee/bl2/xlat_tables_core.o
 .debug_abbrev  0x000000000000836a      0x2b6 /home/charles/linux/code/tfa/mp157_alientek/tf-a-stm32mp-2.2.r1-r0/tf-a-stm32mp-2.2.r1/../build/optee/bl2/xlat_tables_utils.o
 .debug_abbrev  0x0000000000008620      0x2b1 /home/charles/linux/code/tfa/mp157_alientek/tf-a-stm32mp-2.2.r1-r0/tf-a-stm32mp-2.2.r1/../build/optee/bl2/tzc400.o
 .debug_abbrev  0x00000000000088d1      0x170 /home/charles/linux/code/tfa/mp157_alientek/tf-a-stm32mp-2.2.r1-r0/tf-a-stm32mp-2.2.r1/../build/optee/bl2/delay_timer.o
 .debug_abbrev  0x0000000000008a41      0x23b /home/charles/linux/code/tfa/mp157_alientek/tf-a-stm32mp-2.2.r1-r0/tf-a-stm32mp-2.2.r1/../build/optee/bl2/generic_delay_timer.o
 .debug_abbrev  0x0000000000008c7c      0x409 /home/charles/linux/code/tfa/mp157_alientek/tf-a-stm32mp-2.2.r1-r0/tf-a-stm32mp-2.2.r1/../build/optee/bl2/bsec2.o
 .debug_abbrev  0x0000000000009085      0x2f9 /home/charles/linux/code/tfa/mp157_alientek/tf-a-stm32mp-2.2.r1-r0/tf-a-stm32mp-2.2.r1/../build/optee/bl2/stm32mp_clkfunc.o
 .debug_abbrev  0x000000000000937e      0x5ad /home/charles/linux/code/tfa/mp157_alientek/tf-a-stm32mp-2.2.r1-r0/tf-a-stm32mp-2.2.r1/../build/optee/bl2/stm32mp1_clk.o
 .debug_abbrev  0x000000000000992b      0x3e8 /home/charles/linux/code/tfa/mp157_alientek/tf-a-stm32mp-2.2.r1-r0/tf-a-stm32mp-2.2.r1/../build/optee/bl2/stm32mp1_ddr_helpers.o
 .debug_abbrev  0x0000000000009d13      0x328 /home/charles/linux/code/tfa/mp157_alientek/tf-a-stm32mp-2.2.r1-r0/tf-a-stm32mp-2.2.r1/../build/optee/bl2/stm32_gpio.o
 .debug_abbrev  0x000000000000a03b      0x43e /home/charles/linux/code/tfa/mp157_alientek/tf-a-stm32mp-2.2.r1-r0/tf-a-stm32mp-2.2.r1/../build/optee/bl2/stm32_i2c.o
 .debug_abbrev  0x000000000000a479      0x24a /home/charles/linux/code/tfa/mp157_alientek/tf-a-stm32mp-2.2.r1-r0/tf-a-stm32mp-2.2.r1/../build/optee/bl2/stm32_iwdg.o
 .debug_abbrev  0x000000000000a6c3      0x446 /home/charles/linux/code/tfa/mp157_alientek/tf-a-stm32mp-2.2.r1-r0/tf-a-stm32mp-2.2.r1/../build/optee/bl2/stm32mp_pmic.o
 .debug_abbrev  0x000000000000ab09      0x210 /home/charles/linux/code/tfa/mp157_alientek/tf-a-stm32mp-2.2.r1-r0/tf-a-stm32mp-2.2.r1/../build/optee/bl2/stpmic1.o
 .debug_abbrev  0x000000000000ad19      0x110 /home/charles/linux/code/tfa/mp157_alientek/tf-a-stm32mp-2.2.r1-r0/tf-a-stm32mp-2.2.r1/../build/optee/bl2/stm32mp_dummy_regulator.o
 .debug_abbrev  0x000000000000ae29      0x176 /home/charles/linux/code/tfa/mp157_alientek/tf-a-stm32mp-2.2.r1-r0/tf-a-stm32mp-2.2.r1/../build/optee/bl2/stm32mp_regulator.o
 .debug_abbrev  0x000000000000af9f      0x1cc /home/charles/linux/code/tfa/mp157_alientek/tf-a-stm32mp-2.2.r1-r0/tf-a-stm32mp-2.2.r1/../build/optee/bl2/stm32mp1_reset.o
 .debug_abbrev  0x000000000000b16b      0x3a6 /home/charles/linux/code/tfa/mp157_alientek/tf-a-stm32mp-2.2.r1-r0/tf-a-stm32mp-2.2.r1/../build/optee/bl2/stm32mp_dt.o
 .debug_abbrev  0x000000000000b511      0x1d7 /home/charles/linux/code/tfa/mp157_alientek/tf-a-stm32mp-2.2.r1-r0/tf-a-stm32mp-2.2.r1/../build/optee/bl2/stm32mp_shres_helpers.o
 .debug_abbrev  0x000000000000b6e8      0x2d6 /home/charles/linux/code/tfa/mp157_alientek/tf-a-stm32mp-2.2.r1-r0/tf-a-stm32mp-2.2.r1/../build/optee/bl2/stm32mp1_context.o
 .debug_abbrev  0x000000000000b9be      0x1f1 /home/charles/linux/code/tfa/mp157_alientek/tf-a-stm32mp-2.2.r1-r0/tf-a-stm32mp-2.2.r1/../build/optee/bl2/stm32mp1_dbgmcu.o
 .debug_abbrev  0x000000000000bbaf      0x14f /home/charles/linux/code/tfa/mp157_alientek/tf-a-stm32mp-2.2.r1-r0/tf-a-stm32mp-2.2.r1/../build/optee/bl2/stm32mp1_security.o
 .debug_abbrev  0x000000000000bcfe      0x20c /home/charles/linux/code/tfa/mp157_alientek/tf-a-stm32mp-2.2.r1-r0/tf-a-stm32mp-2.2.r1/../build/optee/bl2/stm32mp1_syscfg.o
 .debug_abbrev  0x000000000000bf0a       0x12 /home/charles/linux/code/tfa/mp157_alientek/tf-a-stm32mp-2.2.r1-r0/tf-a-stm32mp-2.2.r1/../build/optee/bl2/spinlock.o
 .debug_abbrev  0x000000000000bf1c       0x12 /home/charles/linux/code/tfa/mp157_alientek/tf-a-stm32mp-2.2.r1-r0/tf-a-stm32mp-2.2.r1/../build/optee/bl2/platform_up_stack.o
 .debug_abbrev  0x000000000000bf2e       0x12 /home/charles/linux/code/tfa/mp157_alientek/tf-a-stm32mp-2.2.r1-r0/tf-a-stm32mp-2.2.r1/../build/optee/bl2/bl2_el3_entrypoint.o
 .debug_abbrev  0x000000000000bf40       0x14 /home/charles/linux/code/tfa/mp157_alientek/tf-a-stm32mp-2.2.r1-r0/tf-a-stm32mp-2.2.r1/../build/optee/bl2/bl2_el3_exceptions.o
 .debug_abbrev  0x000000000000bf54       0x12 /home/charles/linux/code/tfa/mp157_alientek/tf-a-stm32mp-2.2.r1-r0/tf-a-stm32mp-2.2.r1/../build/optee/bl2/cpu_helpers.o
 .debug_abbrev  0x000000000000bf66       0x12 /home/charles/linux/code/tfa/mp157_alientek/tf-a-stm32mp-2.2.r1-r0/tf-a-stm32mp-2.2.r1/../build/optee/bl2/debug.o
 .debug_abbrev  0x000000000000bf78       0x12 /home/charles/linux/code/tfa/mp157_alientek/tf-a-stm32mp-2.2.r1-r0/tf-a-stm32mp-2.2.r1/../build/optee/bl2/cache_helpers.o
 .debug_abbrev  0x000000000000bf8a       0x12 /home/charles/linux/code/tfa/mp157_alientek/tf-a-stm32mp-2.2.r1-r0/tf-a-stm32mp-2.2.r1/../build/optee/bl2/misc_helpers.o
 .debug_abbrev  0x000000000000bf9c       0x14 /home/charles/linux/code/tfa/mp157_alientek/tf-a-stm32mp-2.2.r1-r0/tf-a-stm32mp-2.2.r1/../build/optee/bl2/aeabi_uldivmod.o
 .debug_abbrev  0x000000000000bfb0       0x12 /home/charles/linux/code/tfa/mp157_alientek/tf-a-stm32mp-2.2.r1-r0/tf-a-stm32mp-2.2.r1/../build/optee/bl2/stm32_console.o
 .debug_abbrev  0x000000000000bfc2       0x12 /home/charles/linux/code/tfa/mp157_alientek/tf-a-stm32mp-2.2.r1-r0/tf-a-stm32mp-2.2.r1/../build/optee/bl2/enable_mmu.o
 .debug_abbrev  0x000000000000bfd4       0x12 /home/charles/linux/code/tfa/mp157_alientek/tf-a-stm32mp-2.2.r1-r0/tf-a-stm32mp-2.2.r1/../build/optee/bl2/cortex_a7.o
 .debug_abbrev  0x000000000000bfe6       0x12 /home/charles/linux/code/tfa/mp157_alientek/tf-a-stm32mp-2.2.r1-r0/tf-a-stm32mp-2.2.r1/../build/optee/bl2/stm32mp1_helper.o
 .debug_abbrev  0x000000000000bff8      0x213 /home/charles/linux/code/tfa/mp157_alientek/tf-a-stm32mp-2.2.r1-r0/tf-a-stm32mp-2.2.r1/../build/optee/lib/libfdt.a(fdt.o)
 .debug_abbrev  0x000000000000c20b      0x12b /home/charles/linux/code/tfa/mp157_alientek/tf-a-stm32mp-2.2.r1-r0/tf-a-stm32mp-2.2.r1/../build/optee/lib/libfdt.a(fdt_addresses.o)
 .debug_abbrev  0x000000000000c336      0x403 /home/charles/linux/code/tfa/mp157_alientek/tf-a-stm32mp-2.2.r1-r0/tf-a-stm32mp-2.2.r1/../build/optee/lib/libfdt.a(fdt_ro.o)
 .debug_abbrev  0x000000000000c739       0xfd /home/charles/linux/code/tfa/mp157_alientek/tf-a-stm32mp-2.2.r1-r0/tf-a-stm32mp-2.2.r1/../build/optee/lib/libc.a(assert.o)
 .debug_abbrev  0x000000000000c836       0x9b /home/charles/linux/code/tfa/mp157_alientek/tf-a-stm32mp-2.2.r1-r0/tf-a-stm32mp-2.2.r1/../build/optee/lib/libc.a(memchr.o)
 .debug_abbrev  0x000000000000c8d1       0x94 /home/charles/linux/code/tfa/mp157_alientek/tf-a-stm32mp-2.2.r1-r0/tf-a-stm32mp-2.2.r1/../build/optee/lib/libc.a(memcmp.o)
 .debug_abbrev  0x000000000000c965       0xa1 /home/charles/linux/code/tfa/mp157_alientek/tf-a-stm32mp-2.2.r1-r0/tf-a-stm32mp-2.2.r1/../build/optee/lib/libc.a(memcpy.o)
 .debug_abbrev  0x000000000000ca06       0xc6 /home/charles/linux/code/tfa/mp157_alientek/tf-a-stm32mp-2.2.r1-r0/tf-a-stm32mp-2.2.r1/../build/optee/lib/libc.a(memmove.o)
 .debug_abbrev  0x000000000000cacc       0xa0 /home/charles/linux/code/tfa/mp157_alientek/tf-a-stm32mp-2.2.r1-r0/tf-a-stm32mp-2.2.r1/../build/optee/lib/libc.a(memset.o)
 .debug_abbrev  0x000000000000cb6c      0x271 /home/charles/linux/code/tfa/mp157_alientek/tf-a-stm32mp-2.2.r1-r0/tf-a-stm32mp-2.2.r1/../build/optee/lib/libc.a(printf.o)
 .debug_abbrev  0x000000000000cddd       0x95 /home/charles/linux/code/tfa/mp157_alientek/tf-a-stm32mp-2.2.r1-r0/tf-a-stm32mp-2.2.r1/../build/optee/lib/libc.a(putchar.o)
 .debug_abbrev  0x000000000000ce72      0x232 /home/charles/linux/code/tfa/mp157_alientek/tf-a-stm32mp-2.2.r1-r0/tf-a-stm32mp-2.2.r1/../build/optee/lib/libc.a(snprintf.o)
 .debug_abbrev  0x000000000000d0a4       0x80 /home/charles/linux/code/tfa/mp157_alientek/tf-a-stm32mp-2.2.r1-r0/tf-a-stm32mp-2.2.r1/../build/optee/lib/libc.a(strchr.o)
 .debug_abbrev  0x000000000000d124       0x6c /home/charles/linux/code/tfa/mp157_alientek/tf-a-stm32mp-2.2.r1-r0/tf-a-stm32mp-2.2.r1/../build/optee/lib/libc.a(strcmp.o)
 .debug_abbrev  0x000000000000d190       0x84 /home/charles/linux/code/tfa/mp157_alientek/tf-a-stm32mp-2.2.r1-r0/tf-a-stm32mp-2.2.r1/../build/optee/lib/libc.a(strlen.o)
 .debug_abbrev  0x000000000000d214       0x7b /home/charles/linux/code/tfa/mp157_alientek/tf-a-stm32mp-2.2.r1-r0/tf-a-stm32mp-2.2.r1/../build/optee/lib/libc.a(strncmp.o)
 .debug_abbrev  0x000000000000d28f       0x95 /home/charles/linux/code/tfa/mp157_alientek/tf-a-stm32mp-2.2.r1-r0/tf-a-stm32mp-2.2.r1/../build/optee/lib/libc.a(strnlen.o)
 .debug_abbrev  0x000000000000d324       0x94 /home/charles/linux/code/tfa/mp157_alientek/tf-a-stm32mp-2.2.r1-r0/tf-a-stm32mp-2.2.r1/../build/optee/lib/libc.a(strrchr.o)

.debug_aranges  0x0000000000000000     0x1f20
 .debug_aranges
                0x0000000000000000       0x18 /home/charles/linux/code/tfa/mp157_alientek/tf-a-stm32mp-2.2.r1-r0/tf-a-stm32mp-2.2.r1/../build/optee/bl2/build_message.o
 .debug_aranges
                0x0000000000000018       0x60 /home/charles/linux/code/tfa/mp157_alientek/tf-a-stm32mp-2.2.r1-r0/tf-a-stm32mp-2.2.r1/../build/optee/bl2/io_block.o
 .debug_aranges
                0x0000000000000078       0x58 /home/charles/linux/code/tfa/mp157_alientek/tf-a-stm32mp-2.2.r1-r0/tf-a-stm32mp-2.2.r1/../build/optee/bl2/io_dummy.o
 .debug_aranges
                0x00000000000000d0       0x58 /home/charles/linux/code/tfa/mp157_alientek/tf-a-stm32mp-2.2.r1-r0/tf-a-stm32mp-2.2.r1/../build/optee/bl2/io_mtd.o
 .debug_aranges
                0x0000000000000128       0x80 /home/charles/linux/code/tfa/mp157_alientek/tf-a-stm32mp-2.2.r1-r0/tf-a-stm32mp-2.2.r1/../build/optee/bl2/io_storage.o
 .debug_aranges
                0x00000000000001a8       0x48 /home/charles/linux/code/tfa/mp157_alientek/tf-a-stm32mp-2.2.r1-r0/tf-a-stm32mp-2.2.r1/../build/optee/bl2/stm32_hash.o
 .debug_aranges
                0x00000000000001f0       0x60 /home/charles/linux/code/tfa/mp157_alientek/tf-a-stm32mp-2.2.r1-r0/tf-a-stm32mp-2.2.r1/../build/optee/bl2/io_stm32image.o
 .debug_aranges
                0x0000000000000250       0x50 /home/charles/linux/code/tfa/mp157_alientek/tf-a-stm32mp-2.2.r1-r0/tf-a-stm32mp-2.2.r1/../build/optee/bl2/bl2_io_storage.o
 .debug_aranges
                0x00000000000002a0       0x40 /home/charles/linux/code/tfa/mp157_alientek/tf-a-stm32mp-2.2.r1-r0/tf-a-stm32mp-2.2.r1/../build/optee/bl2/bl2_plat_setup.o
 .debug_aranges
                0x00000000000002e0       0x40 /home/charles/linux/code/tfa/mp157_alientek/tf-a-stm32mp-2.2.r1-r0/tf-a-stm32mp-2.2.r1/../build/optee/bl2/auth_mod.o
 .debug_aranges
                0x0000000000000320       0x30 /home/charles/linux/code/tfa/mp157_alientek/tf-a-stm32mp-2.2.r1-r0/tf-a-stm32mp-2.2.r1/../build/optee/bl2/crypto_mod.o
 .debug_aranges
                0x0000000000000350       0x30 /home/charles/linux/code/tfa/mp157_alientek/tf-a-stm32mp-2.2.r1-r0/tf-a-stm32mp-2.2.r1/../build/optee/bl2/img_parser_mod.o
 .debug_aranges
                0x0000000000000380       0x18 /home/charles/linux/code/tfa/mp157_alientek/tf-a-stm32mp-2.2.r1-r0/tf-a-stm32mp-2.2.r1/../build/optee/bl2/stm32mp_cot.o
 .debug_aranges
                0x0000000000000398       0x30 /home/charles/linux/code/tfa/mp157_alientek/tf-a-stm32mp-2.2.r1-r0/tf-a-stm32mp-2.2.r1/../build/optee/bl2/stm32mp_crypto_lib.o
 .debug_aranges
                0x00000000000003c8       0x30 /home/charles/linux/code/tfa/mp157_alientek/tf-a-stm32mp-2.2.r1-r0/tf-a-stm32mp-2.2.r1/../build/optee/bl2/stm32mp_img_parser_lib.o
 .debug_aranges
                0x00000000000003f8       0x30 /home/charles/linux/code/tfa/mp157_alientek/tf-a-stm32mp-2.2.r1-r0/tf-a-stm32mp-2.2.r1/../build/optee/bl2/stm32mp_trusted_boot.o
 .debug_aranges
                0x0000000000000428       0x78 /home/charles/linux/code/tfa/mp157_alientek/tf-a-stm32mp-2.2.r1-r0/tf-a-stm32mp-2.2.r1/../build/optee/bl2/mmc.o
 .debug_aranges
                0x00000000000004a0       0x20 /home/charles/linux/code/tfa/mp157_alientek/tf-a-stm32mp-2.2.r1-r0/tf-a-stm32mp-2.2.r1/../build/optee/bl2/gpt.o
 .debug_aranges
                0x00000000000004c0       0x38 /home/charles/linux/code/tfa/mp157_alientek/tf-a-stm32mp-2.2.r1-r0/tf-a-stm32mp-2.2.r1/../build/optee/bl2/partition.o
 .debug_aranges
                0x00000000000004f8       0x58 /home/charles/linux/code/tfa/mp157_alientek/tf-a-stm32mp-2.2.r1-r0/tf-a-stm32mp-2.2.r1/../build/optee/bl2/io_mmc.o
 .debug_aranges
                0x0000000000000550       0x70 /home/charles/linux/code/tfa/mp157_alientek/tf-a-stm32mp-2.2.r1-r0/tf-a-stm32mp-2.2.r1/../build/optee/bl2/stm32_sdmmc2.o
 .debug_aranges
                0x00000000000005c0       0x80 /home/charles/linux/code/tfa/mp157_alientek/tf-a-stm32mp-2.2.r1-r0/tf-a-stm32mp-2.2.r1/../build/optee/bl2/raw_nand.o
 .debug_aranges
                0x0000000000000640       0x50 /home/charles/linux/code/tfa/mp157_alientek/tf-a-stm32mp-2.2.r1-r0/tf-a-stm32mp-2.2.r1/../build/optee/bl2/stm32_fmc2_nand.o
 .debug_aranges
                0x0000000000000690       0x60 /home/charles/linux/code/tfa/mp157_alientek/tf-a-stm32mp-2.2.r1-r0/tf-a-stm32mp-2.2.r1/../build/optee/bl2/spi_nand.o
 .debug_aranges
                0x00000000000006f0       0x58 /home/charles/linux/code/tfa/mp157_alientek/tf-a-stm32mp-2.2.r1-r0/tf-a-stm32mp-2.2.r1/../build/optee/bl2/spi_nor.o
 .debug_aranges
                0x0000000000000748       0x38 /home/charles/linux/code/tfa/mp157_alientek/tf-a-stm32mp-2.2.r1-r0/tf-a-stm32mp-2.2.r1/../build/optee/bl2/spi_mem.o
 .debug_aranges
                0x0000000000000780       0x60 /home/charles/linux/code/tfa/mp157_alientek/tf-a-stm32mp-2.2.r1-r0/tf-a-stm32mp-2.2.r1/../build/optee/bl2/stm32_qspi.o
 .debug_aranges
                0x00000000000007e0       0x28 /home/charles/linux/code/tfa/mp157_alientek/tf-a-stm32mp-2.2.r1-r0/tf-a-stm32mp-2.2.r1/../build/optee/bl2/core.o
 .debug_aranges
                0x0000000000000808       0x38 /home/charles/linux/code/tfa/mp157_alientek/tf-a-stm32mp-2.2.r1-r0/tf-a-stm32mp-2.2.r1/../build/optee/bl2/stm32mp1_boot_device.o
 .debug_aranges
                0x0000000000000840       0x50 /home/charles/linux/code/tfa/mp157_alientek/tf-a-stm32mp-2.2.r1-r0/tf-a-stm32mp-2.2.r1/../build/optee/bl2/stm32mp1_ddr.o
 .debug_aranges
                0x0000000000000890       0x30 /home/charles/linux/code/tfa/mp157_alientek/tf-a-stm32mp-2.2.r1-r0/tf-a-stm32mp-2.2.r1/../build/optee/bl2/stm32mp1_ram.o
 .debug_aranges
                0x00000000000008c0       0x58 /home/charles/linux/code/tfa/mp157_alientek/tf-a-stm32mp-2.2.r1-r0/tf-a-stm32mp-2.2.r1/../build/optee/bl2/desc_image_load.o
 .debug_aranges
                0x0000000000000918       0x18 /home/charles/linux/code/tfa/mp157_alientek/tf-a-stm32mp-2.2.r1-r0/tf-a-stm32mp-2.2.r1/../build/optee/bl2/plat_bl2_mem_params_desc.o
 .debug_aranges
                0x0000000000000930       0x30 /home/charles/linux/code/tfa/mp157_alientek/tf-a-stm32mp-2.2.r1-r0/tf-a-stm32mp-2.2.r1/../build/optee/bl2/plat_image_load.o
 .debug_aranges
                0x0000000000000960       0x38 /home/charles/linux/code/tfa/mp157_alientek/tf-a-stm32mp-2.2.r1-r0/tf-a-stm32mp-2.2.r1/../build/optee/bl2/optee_utils.o
 .debug_aranges
                0x0000000000000998       0x20 /home/charles/linux/code/tfa/mp157_alientek/tf-a-stm32mp-2.2.r1-r0/tf-a-stm32mp-2.2.r1/../build/optee/bl2/bl2_image_load_v2.o
 .debug_aranges
                0x00000000000009b8       0x28 /home/charles/linux/code/tfa/mp157_alientek/tf-a-stm32mp-2.2.r1-r0/tf-a-stm32mp-2.2.r1/../build/optee/bl2/bl2_main.o
 .debug_aranges
                0x00000000000009e0       0x20 /home/charles/linux/code/tfa/mp157_alientek/tf-a-stm32mp-2.2.r1-r0/tf-a-stm32mp-2.2.r1/../build/optee/bl2/bl2_arch_setup.o
 .debug_aranges
                0x0000000000000a00       0x38 /home/charles/linux/code/tfa/mp157_alientek/tf-a-stm32mp-2.2.r1-r0/tf-a-stm32mp-2.2.r1/../build/optee/bl2/bl_common.o
 .debug_aranges
                0x0000000000000a38       0x28 /home/charles/linux/code/tfa/mp157_alientek/tf-a-stm32mp-2.2.r1-r0/tf-a-stm32mp-2.2.r1/../build/optee/bl2/tf_log.o
 .debug_aranges
                0x0000000000000a60       0x58 /home/charles/linux/code/tfa/mp157_alientek/tf-a-stm32mp-2.2.r1-r0/tf-a-stm32mp-2.2.r1/../build/optee/bl2/multi_console.o
 .debug_aranges
                0x0000000000000ab8       0x38 /home/charles/linux/code/tfa/mp157_alientek/tf-a-stm32mp-2.2.r1-r0/tf-a-stm32mp-2.2.r1/../build/optee/bl2/plat_bl_common.o
 .debug_aranges
                0x0000000000000af0       0x20 /home/charles/linux/code/tfa/mp157_alientek/tf-a-stm32mp-2.2.r1-r0/tf-a-stm32mp-2.2.r1/../build/optee/bl2/plat_log_common.o
 .debug_aranges
                0x0000000000000b10       0x20 /home/charles/linux/code/tfa/mp157_alientek/tf-a-stm32mp-2.2.r1-r0/tf-a-stm32mp-2.2.r1/../build/optee/bl2/popcountsi2.o
 .debug_aranges
                0x0000000000000b30       0x20 /home/charles/linux/code/tfa/mp157_alientek/tf-a-stm32mp-2.2.r1-r0/tf-a-stm32mp-2.2.r1/../build/optee/bl2/ctzdi2.o
 .debug_aranges
                0x0000000000000b50       0x20 /home/charles/linux/code/tfa/mp157_alientek/tf-a-stm32mp-2.2.r1-r0/tf-a-stm32mp-2.2.r1/../build/optee/bl2/udivmoddi4.o
 .debug_aranges
                0x0000000000000b70       0xb0 /home/charles/linux/code/tfa/mp157_alientek/tf-a-stm32mp-2.2.r1-r0/tf-a-stm32mp-2.2.r1/../build/optee/bl2/stm32mp_common.o
 .debug_aranges
                0x0000000000000c20       0xb8 /home/charles/linux/code/tfa/mp157_alientek/tf-a-stm32mp-2.2.r1-r0/tf-a-stm32mp-2.2.r1/../build/optee/bl2/stm32mp1_private.o
 .debug_aranges
                0x0000000000000cd8       0x70 /home/charles/linux/code/tfa/mp157_alientek/tf-a-stm32mp-2.2.r1-r0/tf-a-stm32mp-2.2.r1/../build/optee/bl2/xlat_tables_arch.o
 .debug_aranges
                0x0000000000000d48       0x78 /home/charles/linux/code/tfa/mp157_alientek/tf-a-stm32mp-2.2.r1-r0/tf-a-stm32mp-2.2.r1/../build/optee/bl2/xlat_tables_context.o
 .debug_aranges
                0x0000000000000dc0       0x90 /home/charles/linux/code/tfa/mp157_alientek/tf-a-stm32mp-2.2.r1-r0/tf-a-stm32mp-2.2.r1/../build/optee/bl2/xlat_tables_core.o
 .debug_aranges
                0x0000000000000e50       0x40 /home/charles/linux/code/tfa/mp157_alientek/tf-a-stm32mp-2.2.r1-r0/tf-a-stm32mp-2.2.r1/../build/optee/bl2/xlat_tables_utils.o
 .debug_aranges
                0x0000000000000e90       0x60 /home/charles/linux/code/tfa/mp157_alientek/tf-a-stm32mp-2.2.r1-r0/tf-a-stm32mp-2.2.r1/../build/optee/bl2/tzc400.o
 .debug_aranges
                0x0000000000000ef0       0x30 /home/charles/linux/code/tfa/mp157_alientek/tf-a-stm32mp-2.2.r1-r0/tf-a-stm32mp-2.2.r1/../build/optee/bl2/delay_timer.o
 .debug_aranges
                0x0000000000000f20       0x30 /home/charles/linux/code/tfa/mp157_alientek/tf-a-stm32mp-2.2.r1-r0/tf-a-stm32mp-2.2.r1/../build/optee/bl2/generic_delay_timer.o
 .debug_aranges
                0x0000000000000f50      0x118 /home/charles/linux/code/tfa/mp157_alientek/tf-a-stm32mp-2.2.r1-r0/tf-a-stm32mp-2.2.r1/../build/optee/bl2/bsec2.o
 .debug_aranges
                0x0000000000001068       0xa0 /home/charles/linux/code/tfa/mp157_alientek/tf-a-stm32mp-2.2.r1-r0/tf-a-stm32mp-2.2.r1/../build/optee/bl2/stm32mp_clkfunc.o
 .debug_aranges
                0x0000000000001108      0x1c8 /home/charles/linux/code/tfa/mp157_alientek/tf-a-stm32mp-2.2.r1-r0/tf-a-stm32mp-2.2.r1/../build/optee/bl2/stm32mp1_clk.o
 .debug_aranges
                0x00000000000012d0       0x68 /home/charles/linux/code/tfa/mp157_alientek/tf-a-stm32mp-2.2.r1-r0/tf-a-stm32mp-2.2.r1/../build/optee/bl2/stm32mp1_ddr_helpers.o
 .debug_aranges
                0x0000000000001338       0x38 /home/charles/linux/code/tfa/mp157_alientek/tf-a-stm32mp-2.2.r1-r0/tf-a-stm32mp-2.2.r1/../build/optee/bl2/stm32_gpio.o
 .debug_aranges
                0x0000000000001370       0x88 /home/charles/linux/code/tfa/mp157_alientek/tf-a-stm32mp-2.2.r1-r0/tf-a-stm32mp-2.2.r1/../build/optee/bl2/stm32_i2c.o
 .debug_aranges
                0x00000000000013f8       0x28 /home/charles/linux/code/tfa/mp157_alientek/tf-a-stm32mp-2.2.r1-r0/tf-a-stm32mp-2.2.r1/../build/optee/bl2/stm32_iwdg.o
 .debug_aranges
                0x0000000000001420       0xa0 /home/charles/linux/code/tfa/mp157_alientek/tf-a-stm32mp-2.2.r1-r0/tf-a-stm32mp-2.2.r1/../build/optee/bl2/stm32mp_pmic.o
 .debug_aranges
                0x00000000000014c0       0xc0 /home/charles/linux/code/tfa/mp157_alientek/tf-a-stm32mp-2.2.r1-r0/tf-a-stm32mp-2.2.r1/../build/optee/bl2/stpmic1.o
 .debug_aranges
                0x0000000000001580       0x28 /home/charles/linux/code/tfa/mp157_alientek/tf-a-stm32mp-2.2.r1-r0/tf-a-stm32mp-2.2.r1/../build/optee/bl2/stm32mp_dummy_regulator.o
 .debug_aranges
                0x00000000000015a8       0x38 /home/charles/linux/code/tfa/mp157_alientek/tf-a-stm32mp-2.2.r1-r0/tf-a-stm32mp-2.2.r1/../build/optee/bl2/stm32mp_regulator.o
 .debug_aranges
                0x00000000000015e0       0x28 /home/charles/linux/code/tfa/mp157_alientek/tf-a-stm32mp-2.2.r1-r0/tf-a-stm32mp-2.2.r1/../build/optee/bl2/stm32mp1_reset.o
 .debug_aranges
                0x0000000000001608       0xe8 /home/charles/linux/code/tfa/mp157_alientek/tf-a-stm32mp-2.2.r1-r0/tf-a-stm32mp-2.2.r1/../build/optee/bl2/stm32mp_dt.o
 .debug_aranges
                0x00000000000016f0       0x40 /home/charles/linux/code/tfa/mp157_alientek/tf-a-stm32mp-2.2.r1-r0/tf-a-stm32mp-2.2.r1/../build/optee/bl2/stm32mp_shres_helpers.o
 .debug_aranges
                0x0000000000001730       0x50 /home/charles/linux/code/tfa/mp157_alientek/tf-a-stm32mp-2.2.r1-r0/tf-a-stm32mp-2.2.r1/../build/optee/bl2/stm32mp1_context.o
 .debug_aranges
                0x0000000000001780       0x38 /home/charles/linux/code/tfa/mp157_alientek/tf-a-stm32mp-2.2.r1-r0/tf-a-stm32mp-2.2.r1/../build/optee/bl2/stm32mp1_dbgmcu.o
 .debug_aranges
                0x00000000000017b8       0x28 /home/charles/linux/code/tfa/mp157_alientek/tf-a-stm32mp-2.2.r1-r0/tf-a-stm32mp-2.2.r1/../build/optee/bl2/stm32mp1_security.o
 .debug_aranges
                0x00000000000017e0       0x30 /home/charles/linux/code/tfa/mp157_alientek/tf-a-stm32mp-2.2.r1-r0/tf-a-stm32mp-2.2.r1/../build/optee/bl2/stm32mp1_syscfg.o
 .debug_aranges
                0x0000000000001810       0x28 /home/charles/linux/code/tfa/mp157_alientek/tf-a-stm32mp-2.2.r1-r0/tf-a-stm32mp-2.2.r1/../build/optee/bl2/spinlock.o
 .debug_aranges
                0x0000000000001838       0x28 /home/charles/linux/code/tfa/mp157_alientek/tf-a-stm32mp-2.2.r1-r0/tf-a-stm32mp-2.2.r1/../build/optee/bl2/platform_up_stack.o
 .debug_aranges
                0x0000000000001860       0x28 /home/charles/linux/code/tfa/mp157_alientek/tf-a-stm32mp-2.2.r1-r0/tf-a-stm32mp-2.2.r1/../build/optee/bl2/bl2_el3_entrypoint.o
 .debug_aranges
                0x0000000000001888       0x20 /home/charles/linux/code/tfa/mp157_alientek/tf-a-stm32mp-2.2.r1-r0/tf-a-stm32mp-2.2.r1/../build/optee/bl2/bl2_el3_exceptions.o
 .debug_aranges
                0x00000000000018a8       0x40 /home/charles/linux/code/tfa/mp157_alientek/tf-a-stm32mp-2.2.r1-r0/tf-a-stm32mp-2.2.r1/../build/optee/bl2/cpu_helpers.o
 .debug_aranges
                0x00000000000018e8       0x58 /home/charles/linux/code/tfa/mp157_alientek/tf-a-stm32mp-2.2.r1-r0/tf-a-stm32mp-2.2.r1/../build/optee/bl2/debug.o
 .debug_aranges
                0x0000000000001940       0x60 /home/charles/linux/code/tfa/mp157_alientek/tf-a-stm32mp-2.2.r1-r0/tf-a-stm32mp-2.2.r1/../build/optee/bl2/cache_helpers.o
 .debug_aranges
                0x00000000000019a0       0x40 /home/charles/linux/code/tfa/mp157_alientek/tf-a-stm32mp-2.2.r1-r0/tf-a-stm32mp-2.2.r1/../build/optee/bl2/misc_helpers.o
 .debug_aranges
                0x00000000000019e0       0x20 /home/charles/linux/code/tfa/mp157_alientek/tf-a-stm32mp-2.2.r1-r0/tf-a-stm32mp-2.2.r1/../build/optee/bl2/aeabi_uldivmod.o
 .debug_aranges
                0x0000000000001a00       0x50 /home/charles/linux/code/tfa/mp157_alientek/tf-a-stm32mp-2.2.r1-r0/tf-a-stm32mp-2.2.r1/../build/optee/bl2/stm32_console.o
 .debug_aranges
                0x0000000000001a50       0x28 /home/charles/linux/code/tfa/mp157_alientek/tf-a-stm32mp-2.2.r1-r0/tf-a-stm32mp-2.2.r1/../build/optee/bl2/enable_mmu.o
 .debug_aranges
                0x0000000000001a78       0x40 /home/charles/linux/code/tfa/mp157_alientek/tf-a-stm32mp-2.2.r1-r0/tf-a-stm32mp-2.2.r1/../build/optee/bl2/cortex_a7.o
 .debug_aranges
                0x0000000000001ab8       0x98 /home/charles/linux/code/tfa/mp157_alientek/tf-a-stm32mp-2.2.r1-r0/tf-a-stm32mp-2.2.r1/../build/optee/bl2/stm32mp1_helper.o
 .debug_aranges
                0x0000000000001b50       0x70 /home/charles/linux/code/tfa/mp157_alientek/tf-a-stm32mp-2.2.r1-r0/tf-a-stm32mp-2.2.r1/../build/optee/lib/libfdt.a(fdt.o)
 .debug_aranges
                0x0000000000001bc0       0x28 /home/charles/linux/code/tfa/mp157_alientek/tf-a-stm32mp-2.2.r1-r0/tf-a-stm32mp-2.2.r1/../build/optee/lib/libfdt.a(fdt_addresses.o)
 .debug_aranges
                0x0000000000001be8      0x140 /home/charles/linux/code/tfa/mp157_alientek/tf-a-stm32mp-2.2.r1-r0/tf-a-stm32mp-2.2.r1/../build/optee/lib/libfdt.a(fdt_ro.o)
 .debug_aranges
                0x0000000000001d28       0x20 /home/charles/linux/code/tfa/mp157_alientek/tf-a-stm32mp-2.2.r1-r0/tf-a-stm32mp-2.2.r1/../build/optee/lib/libc.a(assert.o)
 .debug_aranges
                0x0000000000001d48       0x20 /home/charles/linux/code/tfa/mp157_alientek/tf-a-stm32mp-2.2.r1-r0/tf-a-stm32mp-2.2.r1/../build/optee/lib/libc.a(memchr.o)
 .debug_aranges
                0x0000000000001d68       0x20 /home/charles/linux/code/tfa/mp157_alientek/tf-a-stm32mp-2.2.r1-r0/tf-a-stm32mp-2.2.r1/../build/optee/lib/libc.a(memcmp.o)
 .debug_aranges
                0x0000000000001d88       0x20 /home/charles/linux/code/tfa/mp157_alientek/tf-a-stm32mp-2.2.r1-r0/tf-a-stm32mp-2.2.r1/../build/optee/lib/libc.a(memcpy.o)
 .debug_aranges
                0x0000000000001da8       0x20 /home/charles/linux/code/tfa/mp157_alientek/tf-a-stm32mp-2.2.r1-r0/tf-a-stm32mp-2.2.r1/../build/optee/lib/libc.a(memmove.o)
 .debug_aranges
                0x0000000000001dc8       0x20 /home/charles/linux/code/tfa/mp157_alientek/tf-a-stm32mp-2.2.r1-r0/tf-a-stm32mp-2.2.r1/../build/optee/lib/libc.a(memset.o)
 .debug_aranges
                0x0000000000001de8       0x30 /home/charles/linux/code/tfa/mp157_alientek/tf-a-stm32mp-2.2.r1-r0/tf-a-stm32mp-2.2.r1/../build/optee/lib/libc.a(printf.o)
 .debug_aranges
                0x0000000000001e18       0x20 /home/charles/linux/code/tfa/mp157_alientek/tf-a-stm32mp-2.2.r1-r0/tf-a-stm32mp-2.2.r1/../build/optee/lib/libc.a(putchar.o)
 .debug_aranges
                0x0000000000001e38       0x28 /home/charles/linux/code/tfa/mp157_alientek/tf-a-stm32mp-2.2.r1-r0/tf-a-stm32mp-2.2.r1/../build/optee/lib/libc.a(snprintf.o)
 .debug_aranges
                0x0000000000001e60       0x20 /home/charles/linux/code/tfa/mp157_alientek/tf-a-stm32mp-2.2.r1-r0/tf-a-stm32mp-2.2.r1/../build/optee/lib/libc.a(strchr.o)
 .debug_aranges
                0x0000000000001e80       0x20 /home/charles/linux/code/tfa/mp157_alientek/tf-a-stm32mp-2.2.r1-r0/tf-a-stm32mp-2.2.r1/../build/optee/lib/libc.a(strcmp.o)
 .debug_aranges
                0x0000000000001ea0       0x20 /home/charles/linux/code/tfa/mp157_alientek/tf-a-stm32mp-2.2.r1-r0/tf-a-stm32mp-2.2.r1/../build/optee/lib/libc.a(strlen.o)
 .debug_aranges
                0x0000000000001ec0       0x20 /home/charles/linux/code/tfa/mp157_alientek/tf-a-stm32mp-2.2.r1-r0/tf-a-stm32mp-2.2.r1/../build/optee/lib/libc.a(strncmp.o)
 .debug_aranges
                0x0000000000001ee0       0x20 /home/charles/linux/code/tfa/mp157_alientek/tf-a-stm32mp-2.2.r1-r0/tf-a-stm32mp-2.2.r1/../build/optee/lib/libc.a(strnlen.o)
 .debug_aranges
                0x0000000000001f00       0x20 /home/charles/linux/code/tfa/mp157_alientek/tf-a-stm32mp-2.2.r1-r0/tf-a-stm32mp-2.2.r1/../build/optee/lib/libc.a(strrchr.o)

.debug_line     0x0000000000000000    0x22c2f
 .debug_line    0x0000000000000000       0x28 /home/charles/linux/code/tfa/mp157_alientek/tf-a-stm32mp-2.2.r1-r0/tf-a-stm32mp-2.2.r1/../build/optee/bl2/build_message.o
 .debug_line    0x0000000000000028      0x71f /home/charles/linux/code/tfa/mp157_alientek/tf-a-stm32mp-2.2.r1-r0/tf-a-stm32mp-2.2.r1/../build/optee/bl2/io_block.o
 .debug_line    0x0000000000000747      0x2fd /home/charles/linux/code/tfa/mp157_alientek/tf-a-stm32mp-2.2.r1-r0/tf-a-stm32mp-2.2.r1/../build/optee/bl2/io_dummy.o
 .debug_line    0x0000000000000a44      0x444 /home/charles/linux/code/tfa/mp157_alientek/tf-a-stm32mp-2.2.r1-r0/tf-a-stm32mp-2.2.r1/../build/optee/bl2/io_mtd.o
 .debug_line    0x0000000000000e88      0x5ea /home/charles/linux/code/tfa/mp157_alientek/tf-a-stm32mp-2.2.r1-r0/tf-a-stm32mp-2.2.r1/../build/optee/bl2/io_storage.o
 .debug_line    0x0000000000001472      0x7fd /home/charles/linux/code/tfa/mp157_alientek/tf-a-stm32mp-2.2.r1-r0/tf-a-stm32mp-2.2.r1/../build/optee/bl2/stm32_hash.o
 .debug_line    0x0000000000001c6f      0x616 /home/charles/linux/code/tfa/mp157_alientek/tf-a-stm32mp-2.2.r1-r0/tf-a-stm32mp-2.2.r1/../build/optee/bl2/io_stm32image.o
 .debug_line    0x0000000000002285      0x8af /home/charles/linux/code/tfa/mp157_alientek/tf-a-stm32mp-2.2.r1-r0/tf-a-stm32mp-2.2.r1/../build/optee/bl2/bl2_io_storage.o
 .debug_line    0x0000000000002b34      0xc4d /home/charles/linux/code/tfa/mp157_alientek/tf-a-stm32mp-2.2.r1-r0/tf-a-stm32mp-2.2.r1/../build/optee/bl2/bl2_plat_setup.o
 .debug_line    0x0000000000003781      0x534 /home/charles/linux/code/tfa/mp157_alientek/tf-a-stm32mp-2.2.r1-r0/tf-a-stm32mp-2.2.r1/../build/optee/bl2/auth_mod.o
 .debug_line    0x0000000000003cb5      0x249 /home/charles/linux/code/tfa/mp157_alientek/tf-a-stm32mp-2.2.r1-r0/tf-a-stm32mp-2.2.r1/../build/optee/bl2/crypto_mod.o
 .debug_line    0x0000000000003efe      0x310 /home/charles/linux/code/tfa/mp157_alientek/tf-a-stm32mp-2.2.r1-r0/tf-a-stm32mp-2.2.r1/../build/optee/bl2/img_parser_mod.o
 .debug_line    0x000000000000420e      0x107 /home/charles/linux/code/tfa/mp157_alientek/tf-a-stm32mp-2.2.r1-r0/tf-a-stm32mp-2.2.r1/../build/optee/bl2/stm32mp_cot.o
 .debug_line    0x0000000000004315      0x37d /home/charles/linux/code/tfa/mp157_alientek/tf-a-stm32mp-2.2.r1-r0/tf-a-stm32mp-2.2.r1/../build/optee/bl2/stm32mp_crypto_lib.o
 .debug_line    0x0000000000004692      0x226 /home/charles/linux/code/tfa/mp157_alientek/tf-a-stm32mp-2.2.r1-r0/tf-a-stm32mp-2.2.r1/../build/optee/bl2/stm32mp_img_parser_lib.o
 .debug_line    0x00000000000048b8      0x1fa /home/charles/linux/code/tfa/mp157_alientek/tf-a-stm32mp-2.2.r1-r0/tf-a-stm32mp-2.2.r1/../build/optee/bl2/stm32mp_trusted_boot.o
 .debug_line    0x0000000000004ab2      0xc8a /home/charles/linux/code/tfa/mp157_alientek/tf-a-stm32mp-2.2.r1-r0/tf-a-stm32mp-2.2.r1/../build/optee/bl2/mmc.o
 .debug_line    0x000000000000573c      0x1e2 /home/charles/linux/code/tfa/mp157_alientek/tf-a-stm32mp-2.2.r1-r0/tf-a-stm32mp-2.2.r1/../build/optee/bl2/gpt.o
 .debug_line    0x000000000000591e      0x475 /home/charles/linux/code/tfa/mp157_alientek/tf-a-stm32mp-2.2.r1-r0/tf-a-stm32mp-2.2.r1/../build/optee/bl2/partition.o
 .debug_line    0x0000000000005d93      0x2b3 /home/charles/linux/code/tfa/mp157_alientek/tf-a-stm32mp-2.2.r1-r0/tf-a-stm32mp-2.2.r1/../build/optee/bl2/io_mmc.o
 .debug_line    0x0000000000006046     0x11f3 /home/charles/linux/code/tfa/mp157_alientek/tf-a-stm32mp-2.2.r1-r0/tf-a-stm32mp-2.2.r1/../build/optee/bl2/stm32_sdmmc2.o
 .debug_line    0x0000000000007239      0x8c5 /home/charles/linux/code/tfa/mp157_alientek/tf-a-stm32mp-2.2.r1-r0/tf-a-stm32mp-2.2.r1/../build/optee/bl2/raw_nand.o
 .debug_line    0x0000000000007afe     0x139e /home/charles/linux/code/tfa/mp157_alientek/tf-a-stm32mp-2.2.r1-r0/tf-a-stm32mp-2.2.r1/../build/optee/bl2/stm32_fmc2_nand.o
 .debug_line    0x0000000000008e9c      0x6eb /home/charles/linux/code/tfa/mp157_alientek/tf-a-stm32mp-2.2.r1-r0/tf-a-stm32mp-2.2.r1/../build/optee/bl2/spi_nand.o
 .debug_line    0x0000000000009587      0x6e9 /home/charles/linux/code/tfa/mp157_alientek/tf-a-stm32mp-2.2.r1-r0/tf-a-stm32mp-2.2.r1/../build/optee/bl2/spi_nor.o
 .debug_line    0x0000000000009c70      0x4dd /home/charles/linux/code/tfa/mp157_alientek/tf-a-stm32mp-2.2.r1-r0/tf-a-stm32mp-2.2.r1/../build/optee/bl2/spi_mem.o
 .debug_line    0x000000000000a14d      0xcaf /home/charles/linux/code/tfa/mp157_alientek/tf-a-stm32mp-2.2.r1-r0/tf-a-stm32mp-2.2.r1/../build/optee/bl2/stm32_qspi.o
 .debug_line    0x000000000000adfc      0x2a6 /home/charles/linux/code/tfa/mp157_alientek/tf-a-stm32mp-2.2.r1-r0/tf-a-stm32mp-2.2.r1/../build/optee/bl2/core.o
 .debug_line    0x000000000000b0a2      0x362 /home/charles/linux/code/tfa/mp157_alientek/tf-a-stm32mp-2.2.r1-r0/tf-a-stm32mp-2.2.r1/../build/optee/bl2/stm32mp1_boot_device.o
 .debug_line    0x000000000000b404     0x17f3 /home/charles/linux/code/tfa/mp157_alientek/tf-a-stm32mp-2.2.r1-r0/tf-a-stm32mp-2.2.r1/../build/optee/bl2/stm32mp1_ddr.o
 .debug_line    0x000000000000cbf7      0x903 /home/charles/linux/code/tfa/mp157_alientek/tf-a-stm32mp-2.2.r1-r0/tf-a-stm32mp-2.2.r1/../build/optee/bl2/stm32mp1_ram.o
 .debug_line    0x000000000000d4fa      0x63d /home/charles/linux/code/tfa/mp157_alientek/tf-a-stm32mp-2.2.r1-r0/tf-a-stm32mp-2.2.r1/../build/optee/bl2/desc_image_load.o
 .debug_line    0x000000000000db37      0x133 /home/charles/linux/code/tfa/mp157_alientek/tf-a-stm32mp-2.2.r1-r0/tf-a-stm32mp-2.2.r1/../build/optee/bl2/plat_bl2_mem_params_desc.o
 .debug_line    0x000000000000dc6a      0x303 /home/charles/linux/code/tfa/mp157_alientek/tf-a-stm32mp-2.2.r1-r0/tf-a-stm32mp-2.2.r1/../build/optee/bl2/plat_image_load.o
 .debug_line    0x000000000000df6d      0x3cf /home/charles/linux/code/tfa/mp157_alientek/tf-a-stm32mp-2.2.r1-r0/tf-a-stm32mp-2.2.r1/../build/optee/bl2/optee_utils.o
 .debug_line    0x000000000000e33c      0x2fa /home/charles/linux/code/tfa/mp157_alientek/tf-a-stm32mp-2.2.r1-r0/tf-a-stm32mp-2.2.r1/../build/optee/bl2/bl2_image_load_v2.o
 .debug_line    0x000000000000e636      0x1f6 /home/charles/linux/code/tfa/mp157_alientek/tf-a-stm32mp-2.2.r1-r0/tf-a-stm32mp-2.2.r1/../build/optee/bl2/bl2_main.o
 .debug_line    0x000000000000e82c       0x93 /home/charles/linux/code/tfa/mp157_alientek/tf-a-stm32mp-2.2.r1-r0/tf-a-stm32mp-2.2.r1/../build/optee/bl2/bl2_arch_setup.o
 .debug_line    0x000000000000e8bf      0x42e /home/charles/linux/code/tfa/mp157_alientek/tf-a-stm32mp-2.2.r1-r0/tf-a-stm32mp-2.2.r1/../build/optee/bl2/bl_common.o
 .debug_line    0x000000000000eced      0x1d6 /home/charles/linux/code/tfa/mp157_alientek/tf-a-stm32mp-2.2.r1-r0/tf-a-stm32mp-2.2.r1/../build/optee/bl2/tf_log.o
 .debug_line    0x000000000000eec3      0x423 /home/charles/linux/code/tfa/mp157_alientek/tf-a-stm32mp-2.2.r1-r0/tf-a-stm32mp-2.2.r1/../build/optee/bl2/multi_console.o
 .debug_line    0x000000000000f2e6      0x1a7 /home/charles/linux/code/tfa/mp157_alientek/tf-a-stm32mp-2.2.r1-r0/tf-a-stm32mp-2.2.r1/../build/optee/bl2/plat_bl_common.o
 .debug_line    0x000000000000f48d       0xe4 /home/charles/linux/code/tfa/mp157_alientek/tf-a-stm32mp-2.2.r1-r0/tf-a-stm32mp-2.2.r1/../build/optee/bl2/plat_log_common.o
 .debug_line    0x000000000000f571       0xa4 /home/charles/linux/code/tfa/mp157_alientek/tf-a-stm32mp-2.2.r1-r0/tf-a-stm32mp-2.2.r1/../build/optee/bl2/popcountsi2.o
 .debug_line    0x000000000000f615       0x88 /home/charles/linux/code/tfa/mp157_alientek/tf-a-stm32mp-2.2.r1-r0/tf-a-stm32mp-2.2.r1/../build/optee/bl2/ctzdi2.o
 .debug_line    0x000000000000f69d      0x3a6 /home/charles/linux/code/tfa/mp157_alientek/tf-a-stm32mp-2.2.r1-r0/tf-a-stm32mp-2.2.r1/../build/optee/bl2/udivmoddi4.o
 .debug_line    0x000000000000fa43      0x52f /home/charles/linux/code/tfa/mp157_alientek/tf-a-stm32mp-2.2.r1-r0/tf-a-stm32mp-2.2.r1/../build/optee/bl2/stm32mp_common.o
 .debug_line    0x000000000000ff72      0xa6b /home/charles/linux/code/tfa/mp157_alientek/tf-a-stm32mp-2.2.r1-r0/tf-a-stm32mp-2.2.r1/../build/optee/bl2/stm32mp1_private.o
 .debug_line    0x00000000000109dd      0x578 /home/charles/linux/code/tfa/mp157_alientek/tf-a-stm32mp-2.2.r1-r0/tf-a-stm32mp-2.2.r1/../build/optee/bl2/xlat_tables_arch.o
 .debug_line    0x0000000000010f55      0x3af /home/charles/linux/code/tfa/mp157_alientek/tf-a-stm32mp-2.2.r1-r0/tf-a-stm32mp-2.2.r1/../build/optee/bl2/xlat_tables_context.o
 .debug_line    0x0000000000011304     0x101c /home/charles/linux/code/tfa/mp157_alientek/tf-a-stm32mp-2.2.r1-r0/tf-a-stm32mp-2.2.r1/../build/optee/bl2/xlat_tables_core.o
 .debug_line    0x0000000000012320      0x68c /home/charles/linux/code/tfa/mp157_alientek/tf-a-stm32mp-2.2.r1-r0/tf-a-stm32mp-2.2.r1/../build/optee/bl2/xlat_tables_utils.o
 .debug_line    0x00000000000129ac      0x985 /home/charles/linux/code/tfa/mp157_alientek/tf-a-stm32mp-2.2.r1-r0/tf-a-stm32mp-2.2.r1/../build/optee/bl2/tzc400.o
 .debug_line    0x0000000000013331      0x1ec /home/charles/linux/code/tfa/mp157_alientek/tf-a-stm32mp-2.2.r1-r0/tf-a-stm32mp-2.2.r1/../build/optee/bl2/delay_timer.o
 .debug_line    0x000000000001351d      0x241 /home/charles/linux/code/tfa/mp157_alientek/tf-a-stm32mp-2.2.r1-r0/tf-a-stm32mp-2.2.r1/../build/optee/bl2/generic_delay_timer.o
 .debug_line    0x000000000001375e     0x10d0 /home/charles/linux/code/tfa/mp157_alientek/tf-a-stm32mp-2.2.r1-r0/tf-a-stm32mp-2.2.r1/../build/optee/bl2/bsec2.o
 .debug_line    0x000000000001482e      0x94e /home/charles/linux/code/tfa/mp157_alientek/tf-a-stm32mp-2.2.r1-r0/tf-a-stm32mp-2.2.r1/../build/optee/bl2/stm32mp_clkfunc.o
 .debug_line    0x000000000001517c     0x3899 /home/charles/linux/code/tfa/mp157_alientek/tf-a-stm32mp-2.2.r1-r0/tf-a-stm32mp-2.2.r1/../build/optee/bl2/stm32mp1_clk.o
 .debug_line    0x0000000000018a15     0x1ad1 /home/charles/linux/code/tfa/mp157_alientek/tf-a-stm32mp-2.2.r1-r0/tf-a-stm32mp-2.2.r1/../build/optee/bl2/stm32mp1_ddr_helpers.o
 .debug_line    0x000000000001a4e6      0x899 /home/charles/linux/code/tfa/mp157_alientek/tf-a-stm32mp-2.2.r1-r0/tf-a-stm32mp-2.2.r1/../build/optee/bl2/stm32_gpio.o
 .debug_line    0x000000000001ad7f     0x1937 /home/charles/linux/code/tfa/mp157_alientek/tf-a-stm32mp-2.2.r1-r0/tf-a-stm32mp-2.2.r1/../build/optee/bl2/stm32_i2c.o
 .debug_line    0x000000000001c6b6      0x3a4 /home/charles/linux/code/tfa/mp157_alientek/tf-a-stm32mp-2.2.r1-r0/tf-a-stm32mp-2.2.r1/../build/optee/bl2/stm32_iwdg.o
 .debug_line    0x000000000001ca5a      0xa9b /home/charles/linux/code/tfa/mp157_alientek/tf-a-stm32mp-2.2.r1-r0/tf-a-stm32mp-2.2.r1/../build/optee/bl2/stm32mp_pmic.o
 .debug_line    0x000000000001d4f5      0x617 /home/charles/linux/code/tfa/mp157_alientek/tf-a-stm32mp-2.2.r1-r0/tf-a-stm32mp-2.2.r1/../build/optee/bl2/stpmic1.o
 .debug_line    0x000000000001db0c       0xad /home/charles/linux/code/tfa/mp157_alientek/tf-a-stm32mp-2.2.r1-r0/tf-a-stm32mp-2.2.r1/../build/optee/bl2/stm32mp_dummy_regulator.o
 .debug_line    0x000000000001dbb9      0x1a2 /home/charles/linux/code/tfa/mp157_alientek/tf-a-stm32mp-2.2.r1-r0/tf-a-stm32mp-2.2.r1/../build/optee/bl2/stm32mp_regulator.o
 .debug_line    0x000000000001dd5b      0x386 /home/charles/linux/code/tfa/mp157_alientek/tf-a-stm32mp-2.2.r1-r0/tf-a-stm32mp-2.2.r1/../build/optee/bl2/stm32mp1_reset.o
 .debug_line    0x000000000001e0e1      0xc9a /home/charles/linux/code/tfa/mp157_alientek/tf-a-stm32mp-2.2.r1-r0/tf-a-stm32mp-2.2.r1/../build/optee/bl2/stm32mp_dt.o
 .debug_line    0x000000000001ed7b      0x27b /home/charles/linux/code/tfa/mp157_alientek/tf-a-stm32mp-2.2.r1-r0/tf-a-stm32mp-2.2.r1/../build/optee/bl2/stm32mp_shres_helpers.o
 .debug_line    0x000000000001eff6      0x41c /home/charles/linux/code/tfa/mp157_alientek/tf-a-stm32mp-2.2.r1-r0/tf-a-stm32mp-2.2.r1/../build/optee/bl2/stm32mp1_context.o
 .debug_line    0x000000000001f412      0x293 /home/charles/linux/code/tfa/mp157_alientek/tf-a-stm32mp-2.2.r1-r0/tf-a-stm32mp-2.2.r1/../build/optee/bl2/stm32mp1_dbgmcu.o
 .debug_line    0x000000000001f6a5      0x1ec /home/charles/linux/code/tfa/mp157_alientek/tf-a-stm32mp-2.2.r1-r0/tf-a-stm32mp-2.2.r1/../build/optee/bl2/stm32mp1_security.o
 .debug_line    0x000000000001f891      0x4ca /home/charles/linux/code/tfa/mp157_alientek/tf-a-stm32mp-2.2.r1-r0/tf-a-stm32mp-2.2.r1/../build/optee/bl2/stm32mp1_syscfg.o
 .debug_line    0x000000000001fd5b       0x70 /home/charles/linux/code/tfa/mp157_alientek/tf-a-stm32mp-2.2.r1-r0/tf-a-stm32mp-2.2.r1/../build/optee/bl2/spinlock.o
 .debug_line    0x000000000001fdcb       0x6b /home/charles/linux/code/tfa/mp157_alientek/tf-a-stm32mp-2.2.r1-r0/tf-a-stm32mp-2.2.r1/../build/optee/bl2/platform_up_stack.o
 .debug_line    0x000000000001fe36       0x81 /home/charles/linux/code/tfa/mp157_alientek/tf-a-stm32mp-2.2.r1-r0/tf-a-stm32mp-2.2.r1/../build/optee/bl2/bl2_el3_entrypoint.o
 .debug_line    0x000000000001feb7       0x57 /home/charles/linux/code/tfa/mp157_alientek/tf-a-stm32mp-2.2.r1-r0/tf-a-stm32mp-2.2.r1/../build/optee/bl2/bl2_el3_exceptions.o
 .debug_line    0x000000000001ff0e       0xb7 /home/charles/linux/code/tfa/mp157_alientek/tf-a-stm32mp-2.2.r1-r0/tf-a-stm32mp-2.2.r1/../build/optee/bl2/cpu_helpers.o
 .debug_line    0x000000000001ffc5      0x104 /home/charles/linux/code/tfa/mp157_alientek/tf-a-stm32mp-2.2.r1-r0/tf-a-stm32mp-2.2.r1/../build/optee/bl2/debug.o
 .debug_line    0x00000000000200c9       0xef /home/charles/linux/code/tfa/mp157_alientek/tf-a-stm32mp-2.2.r1-r0/tf-a-stm32mp-2.2.r1/../build/optee/bl2/cache_helpers.o
 .debug_line    0x00000000000201b8       0xbe /home/charles/linux/code/tfa/mp157_alientek/tf-a-stm32mp-2.2.r1-r0/tf-a-stm32mp-2.2.r1/../build/optee/bl2/misc_helpers.o
 .debug_line    0x0000000000020276       0x67 /home/charles/linux/code/tfa/mp157_alientek/tf-a-stm32mp-2.2.r1-r0/tf-a-stm32mp-2.2.r1/../build/optee/bl2/aeabi_uldivmod.o
 .debug_line    0x00000000000202dd      0x107 /home/charles/linux/code/tfa/mp157_alientek/tf-a-stm32mp-2.2.r1-r0/tf-a-stm32mp-2.2.r1/../build/optee/bl2/stm32_console.o
 .debug_line    0x00000000000203e4       0xa4 /home/charles/linux/code/tfa/mp157_alientek/tf-a-stm32mp-2.2.r1-r0/tf-a-stm32mp-2.2.r1/../build/optee/bl2/enable_mmu.o
 .debug_line    0x0000000000020488       0xa2 /home/charles/linux/code/tfa/mp157_alientek/tf-a-stm32mp-2.2.r1-r0/tf-a-stm32mp-2.2.r1/../build/optee/bl2/cortex_a7.o
 .debug_line    0x000000000002052a      0x1ec /home/charles/linux/code/tfa/mp157_alientek/tf-a-stm32mp-2.2.r1-r0/tf-a-stm32mp-2.2.r1/../build/optee/bl2/stm32mp1_helper.o
 .debug_line    0x0000000000020716      0x513 /home/charles/linux/code/tfa/mp157_alientek/tf-a-stm32mp-2.2.r1-r0/tf-a-stm32mp-2.2.r1/../build/optee/lib/libfdt.a(fdt.o)
 .debug_line    0x0000000000020c29      0x15e /home/charles/linux/code/tfa/mp157_alientek/tf-a-stm32mp-2.2.r1-r0/tf-a-stm32mp-2.2.r1/../build/optee/lib/libfdt.a(fdt_addresses.o)
 .debug_line    0x0000000000020d87      0xfb0 /home/charles/linux/code/tfa/mp157_alientek/tf-a-stm32mp-2.2.r1-r0/tf-a-stm32mp-2.2.r1/../build/optee/lib/libfdt.a(fdt_ro.o)
 .debug_line    0x0000000000021d37      0x140 /home/charles/linux/code/tfa/mp157_alientek/tf-a-stm32mp-2.2.r1-r0/tf-a-stm32mp-2.2.r1/../build/optee/lib/libc.a(assert.o)
 .debug_line    0x0000000000021e77       0x8b /home/charles/linux/code/tfa/mp157_alientek/tf-a-stm32mp-2.2.r1-r0/tf-a-stm32mp-2.2.r1/../build/optee/lib/libc.a(memchr.o)
 .debug_line    0x0000000000021f02       0xa5 /home/charles/linux/code/tfa/mp157_alientek/tf-a-stm32mp-2.2.r1-r0/tf-a-stm32mp-2.2.r1/../build/optee/lib/libc.a(memcmp.o)
 .debug_line    0x0000000000021fa7       0x87 /home/charles/linux/code/tfa/mp157_alientek/tf-a-stm32mp-2.2.r1-r0/tf-a-stm32mp-2.2.r1/../build/optee/lib/libc.a(memcpy.o)
 .debug_line    0x000000000002202e       0xe2 /home/charles/linux/code/tfa/mp157_alientek/tf-a-stm32mp-2.2.r1-r0/tf-a-stm32mp-2.2.r1/../build/optee/lib/libc.a(memmove.o)
 .debug_line    0x0000000000022110       0x80 /home/charles/linux/code/tfa/mp157_alientek/tf-a-stm32mp-2.2.r1-r0/tf-a-stm32mp-2.2.r1/../build/optee/lib/libc.a(memset.o)
 .debug_line    0x0000000000022190      0x3e8 /home/charles/linux/code/tfa/mp157_alientek/tf-a-stm32mp-2.2.r1-r0/tf-a-stm32mp-2.2.r1/../build/optee/lib/libc.a(printf.o)
 .debug_line    0x0000000000022578       0x78 /home/charles/linux/code/tfa/mp157_alientek/tf-a-stm32mp-2.2.r1-r0/tf-a-stm32mp-2.2.r1/../build/optee/lib/libc.a(putchar.o)
 .debug_line    0x00000000000225f0      0x328 /home/charles/linux/code/tfa/mp157_alientek/tf-a-stm32mp-2.2.r1-r0/tf-a-stm32mp-2.2.r1/../build/optee/lib/libc.a(snprintf.o)
 .debug_line    0x0000000000022918       0x78 /home/charles/linux/code/tfa/mp157_alientek/tf-a-stm32mp-2.2.r1-r0/tf-a-stm32mp-2.2.r1/../build/optee/lib/libc.a(strchr.o)
 .debug_line    0x0000000000022990       0x66 /home/charles/linux/code/tfa/mp157_alientek/tf-a-stm32mp-2.2.r1-r0/tf-a-stm32mp-2.2.r1/../build/optee/lib/libc.a(strcmp.o)
 .debug_line    0x00000000000229f6       0x7b /home/charles/linux/code/tfa/mp157_alientek/tf-a-stm32mp-2.2.r1-r0/tf-a-stm32mp-2.2.r1/../build/optee/lib/libc.a(strlen.o)
 .debug_line    0x0000000000022a71       0xab /home/charles/linux/code/tfa/mp157_alientek/tf-a-stm32mp-2.2.r1-r0/tf-a-stm32mp-2.2.r1/../build/optee/lib/libc.a(strncmp.o)
 .debug_line    0x0000000000022b1c       0xa5 /home/charles/linux/code/tfa/mp157_alientek/tf-a-stm32mp-2.2.r1-r0/tf-a-stm32mp-2.2.r1/../build/optee/lib/libc.a(strnlen.o)
 .debug_line    0x0000000000022bc1       0x6e /home/charles/linux/code/tfa/mp157_alientek/tf-a-stm32mp-2.2.r1-r0/tf-a-stm32mp-2.2.r1/../build/optee/lib/libc.a(strrchr.o)

.debug_str      0x0000000000000000     0x9cab
 .debug_str     0x0000000000000000      0x148 /home/charles/linux/code/tfa/mp157_alientek/tf-a-stm32mp-2.2.r1-r0/tf-a-stm32mp-2.2.r1/../build/optee/bl2/build_message.o
                                        0x15a (size before relaxing)
 .debug_str     0x0000000000000148      0x42e /home/charles/linux/code/tfa/mp157_alientek/tf-a-stm32mp-2.2.r1-r0/tf-a-stm32mp-2.2.r1/../build/optee/bl2/io_block.o
                                        0x698 (size before relaxing)
 .debug_str     0x0000000000000576       0xfa /home/charles/linux/code/tfa/mp157_alientek/tf-a-stm32mp-2.2.r1-r0/tf-a-stm32mp-2.2.r1/../build/optee/bl2/io_dummy.o
                                        0x56f (size before relaxing)
 .debug_str     0x0000000000000670      0x10d /home/charles/linux/code/tfa/mp157_alientek/tf-a-stm32mp-2.2.r1-r0/tf-a-stm32mp-2.2.r1/../build/optee/bl2/io_mtd.o
                                        0x5ff (size before relaxing)
 .debug_str     0x000000000000077d      0x136 /home/charles/linux/code/tfa/mp157_alientek/tf-a-stm32mp-2.2.r1-r0/tf-a-stm32mp-2.2.r1/../build/optee/bl2/io_storage.o
                                        0x5e8 (size before relaxing)
 .debug_str     0x00000000000008b3      0x35e /home/charles/linux/code/tfa/mp157_alientek/tf-a-stm32mp-2.2.r1-r0/tf-a-stm32mp-2.2.r1/../build/optee/bl2/stm32_hash.o
                                        0x62c (size before relaxing)
 .debug_str     0x0000000000000c11      0x31c /home/charles/linux/code/tfa/mp157_alientek/tf-a-stm32mp-2.2.r1-r0/tf-a-stm32mp-2.2.r1/../build/optee/bl2/io_stm32image.o
                                        0x85a (size before relaxing)
 .debug_str     0x0000000000000f2d      0x727 /home/charles/linux/code/tfa/mp157_alientek/tf-a-stm32mp-2.2.r1-r0/tf-a-stm32mp-2.2.r1/../build/optee/bl2/bl2_io_storage.o
                                        0xdde (size before relaxing)
 .debug_str     0x0000000000001654      0x835 /home/charles/linux/code/tfa/mp157_alientek/tf-a-stm32mp-2.2.r1-r0/tf-a-stm32mp-2.2.r1/../build/optee/bl2/bl2_plat_setup.o
                                        0xf5d (size before relaxing)
 .debug_str     0x0000000000001e89      0x576 /home/charles/linux/code/tfa/mp157_alientek/tf-a-stm32mp-2.2.r1-r0/tf-a-stm32mp-2.2.r1/../build/optee/bl2/auth_mod.o
                                        0x856 (size before relaxing)
 .debug_str     0x00000000000023ff       0x3a /home/charles/linux/code/tfa/mp157_alientek/tf-a-stm32mp-2.2.r1-r0/tf-a-stm32mp-2.2.r1/../build/optee/bl2/crypto_mod.o
                                        0x37c (size before relaxing)
 .debug_str     0x0000000000002439      0x145 /home/charles/linux/code/tfa/mp157_alientek/tf-a-stm32mp-2.2.r1-r0/tf-a-stm32mp-2.2.r1/../build/optee/bl2/img_parser_mod.o
                                        0x567 (size before relaxing)
 .debug_str     0x000000000000257e       0xa1 /home/charles/linux/code/tfa/mp157_alientek/tf-a-stm32mp-2.2.r1-r0/tf-a-stm32mp-2.2.r1/../build/optee/bl2/stm32mp_cot.o
                                        0x648 (size before relaxing)
 .debug_str     0x000000000000261f       0xcb /home/charles/linux/code/tfa/mp157_alientek/tf-a-stm32mp-2.2.r1-r0/tf-a-stm32mp-2.2.r1/../build/optee/bl2/stm32mp_crypto_lib.o
                                        0x8e0 (size before relaxing)
 .debug_str     0x00000000000026ea       0x9d /home/charles/linux/code/tfa/mp157_alientek/tf-a-stm32mp-2.2.r1-r0/tf-a-stm32mp-2.2.r1/../build/optee/bl2/stm32mp_img_parser_lib.o
                                        0x57d (size before relaxing)
 .debug_str     0x0000000000002787       0x7e /home/charles/linux/code/tfa/mp157_alientek/tf-a-stm32mp-2.2.r1-r0/tf-a-stm32mp-2.2.r1/../build/optee/bl2/stm32mp_trusted_boot.o
                                        0x363 (size before relaxing)
 .debug_str     0x0000000000002805      0x554 /home/charles/linux/code/tfa/mp157_alientek/tf-a-stm32mp-2.2.r1-r0/tf-a-stm32mp-2.2.r1/../build/optee/bl2/mmc.o
                                        0x8f2 (size before relaxing)
 .debug_str     0x0000000000002d59       0x7d /home/charles/linux/code/tfa/mp157_alientek/tf-a-stm32mp-2.2.r1-r0/tf-a-stm32mp-2.2.r1/../build/optee/bl2/gpt.o
                                        0x33b (size before relaxing)
 .debug_str     0x0000000000002dd6      0x181 /home/charles/linux/code/tfa/mp157_alientek/tf-a-stm32mp-2.2.r1-r0/tf-a-stm32mp-2.2.r1/../build/optee/bl2/partition.o
                                        0x5d2 (size before relaxing)
 .debug_str     0x0000000000002f57       0xb8 /home/charles/linux/code/tfa/mp157_alientek/tf-a-stm32mp-2.2.r1-r0/tf-a-stm32mp-2.2.r1/../build/optee/bl2/io_mmc.o
                                        0x553 (size before relaxing)
 .debug_str     0x000000000000300f      0x2a4 /home/charles/linux/code/tfa/mp157_alientek/tf-a-stm32mp-2.2.r1-r0/tf-a-stm32mp-2.2.r1/../build/optee/bl2/stm32_sdmmc2.o
                                        0x8e6 (size before relaxing)
 .debug_str     0x00000000000032b3      0x466 /home/charles/linux/code/tfa/mp157_alientek/tf-a-stm32mp-2.2.r1-r0/tf-a-stm32mp-2.2.r1/../build/optee/bl2/raw_nand.o
                                        0x883 (size before relaxing)
 .debug_str     0x0000000000003719      0x36f /home/charles/linux/code/tfa/mp157_alientek/tf-a-stm32mp-2.2.r1-r0/tf-a-stm32mp-2.2.r1/../build/optee/bl2/stm32_fmc2_nand.o
                                        0x915 (size before relaxing)
 .debug_str     0x0000000000003a88      0x20d /home/charles/linux/code/tfa/mp157_alientek/tf-a-stm32mp-2.2.r1-r0/tf-a-stm32mp-2.2.r1/../build/optee/bl2/spi_nand.o
                                        0x617 (size before relaxing)
 .debug_str     0x0000000000003c95      0x190 /home/charles/linux/code/tfa/mp157_alientek/tf-a-stm32mp-2.2.r1-r0/tf-a-stm32mp-2.2.r1/../build/optee/bl2/spi_nor.o
                                        0x549 (size before relaxing)
 .debug_str     0x0000000000003e25       0xb3 /home/charles/linux/code/tfa/mp157_alientek/tf-a-stm32mp-2.2.r1-r0/tf-a-stm32mp-2.2.r1/../build/optee/bl2/spi_mem.o
                                        0x43c (size before relaxing)
 .debug_str     0x0000000000003ed8      0x1b3 /home/charles/linux/code/tfa/mp157_alientek/tf-a-stm32mp-2.2.r1-r0/tf-a-stm32mp-2.2.r1/../build/optee/bl2/stm32_qspi.o
                                        0x6e5 (size before relaxing)
 .debug_str     0x000000000000408b       0x64 /home/charles/linux/code/tfa/mp157_alientek/tf-a-stm32mp-2.2.r1-r0/tf-a-stm32mp-2.2.r1/../build/optee/bl2/core.o
                                        0x396 (size before relaxing)
 .debug_str     0x00000000000040ef       0x4c /home/charles/linux/code/tfa/mp157_alientek/tf-a-stm32mp-2.2.r1-r0/tf-a-stm32mp-2.2.r1/../build/optee/bl2/stm32mp1_boot_device.o
                                        0x4bb (size before relaxing)
 .debug_str     0x000000000000413b      0xad4 /home/charles/linux/code/tfa/mp157_alientek/tf-a-stm32mp-2.2.r1-r0/tf-a-stm32mp-2.2.r1/../build/optee/bl2/stm32mp1_ddr.o
                                        0xf0f (size before relaxing)
 .debug_str     0x0000000000004c0f      0x1c6 /home/charles/linux/code/tfa/mp157_alientek/tf-a-stm32mp-2.2.r1-r0/tf-a-stm32mp-2.2.r1/../build/optee/bl2/stm32mp1_ram.o
                                        0xdb5 (size before relaxing)
 .debug_str     0x0000000000004dd5      0x213 /home/charles/linux/code/tfa/mp157_alientek/tf-a-stm32mp-2.2.r1-r0/tf-a-stm32mp-2.2.r1/../build/optee/bl2/desc_image_load.o
                                        0x709 (size before relaxing)
 .debug_str     0x0000000000004fe8       0x41 /home/charles/linux/code/tfa/mp157_alientek/tf-a-stm32mp-2.2.r1-r0/tf-a-stm32mp-2.2.r1/../build/optee/bl2/plat_bl2_mem_params_desc.o
                                        0x478 (size before relaxing)
 .debug_str     0x0000000000005029       0xa8 /home/charles/linux/code/tfa/mp157_alientek/tf-a-stm32mp-2.2.r1-r0/tf-a-stm32mp-2.2.r1/../build/optee/bl2/plat_image_load.o
                                        0x912 (size before relaxing)
 .debug_str     0x00000000000050d1       0xe2 /home/charles/linux/code/tfa/mp157_alientek/tf-a-stm32mp-2.2.r1-r0/tf-a-stm32mp-2.2.r1/../build/optee/bl2/optee_utils.o
                                        0x5a7 (size before relaxing)
 .debug_str     0x00000000000051b3       0x96 /home/charles/linux/code/tfa/mp157_alientek/tf-a-stm32mp-2.2.r1-r0/tf-a-stm32mp-2.2.r1/../build/optee/bl2/bl2_image_load_v2.o
                                        0x90e (size before relaxing)
 .debug_str     0x0000000000005249       0x86 /home/charles/linux/code/tfa/mp157_alientek/tf-a-stm32mp-2.2.r1-r0/tf-a-stm32mp-2.2.r1/../build/optee/bl2/bl2_main.o
                                        0x74a (size before relaxing)
 .debug_str     0x00000000000052cf       0x1d /home/charles/linux/code/tfa/mp157_alientek/tf-a-stm32mp-2.2.r1-r0/tf-a-stm32mp-2.2.r1/../build/optee/bl2/bl2_arch_setup.o
                                        0x24c (size before relaxing)
 .debug_str     0x00000000000052ec       0x81 /home/charles/linux/code/tfa/mp157_alientek/tf-a-stm32mp-2.2.r1-r0/tf-a-stm32mp-2.2.r1/../build/optee/bl2/bl_common.o
                                        0x845 (size before relaxing)
 .debug_str     0x000000000000536d       0x66 /home/charles/linux/code/tfa/mp157_alientek/tf-a-stm32mp-2.2.r1-r0/tf-a-stm32mp-2.2.r1/../build/optee/bl2/tf_log.o
                                        0x2dc (size before relaxing)
 .debug_str     0x00000000000053d3      0x104 /home/charles/linux/code/tfa/mp157_alientek/tf-a-stm32mp-2.2.r1-r0/tf-a-stm32mp-2.2.r1/../build/optee/bl2/multi_console.o
                                        0x3c1 (size before relaxing)
 .debug_str     0x00000000000054d7       0xa9 /home/charles/linux/code/tfa/mp157_alientek/tf-a-stm32mp-2.2.r1-r0/tf-a-stm32mp-2.2.r1/../build/optee/bl2/plat_bl_common.o
                                        0x3a0 (size before relaxing)
 .debug_str     0x0000000000005580       0x2e /home/charles/linux/code/tfa/mp157_alientek/tf-a-stm32mp-2.2.r1-r0/tf-a-stm32mp-2.2.r1/../build/optee/bl2/plat_log_common.o
                                        0x29e (size before relaxing)
 .debug_str     0x00000000000055ae       0x74 /home/charles/linux/code/tfa/mp157_alientek/tf-a-stm32mp-2.2.r1-r0/tf-a-stm32mp-2.2.r1/../build/optee/bl2/popcountsi2.o
                                        0x23c (size before relaxing)
 .debug_str     0x0000000000005622       0x32 /home/charles/linux/code/tfa/mp157_alientek/tf-a-stm32mp-2.2.r1-r0/tf-a-stm32mp-2.2.r1/../build/optee/bl2/ctzdi2.o
                                        0x245 (size before relaxing)
 .debug_str     0x0000000000005654       0x63 /home/charles/linux/code/tfa/mp157_alientek/tf-a-stm32mp-2.2.r1-r0/tf-a-stm32mp-2.2.r1/../build/optee/bl2/udivmoddi4.o
                                        0x26f (size before relaxing)
 .debug_str     0x00000000000056b7      0x158 /home/charles/linux/code/tfa/mp157_alientek/tf-a-stm32mp-2.2.r1-r0/tf-a-stm32mp-2.2.r1/../build/optee/bl2/stm32mp_common.o
                                        0x633 (size before relaxing)
 .debug_str     0x000000000000580f      0x414 /home/charles/linux/code/tfa/mp157_alientek/tf-a-stm32mp-2.2.r1-r0/tf-a-stm32mp-2.2.r1/../build/optee/bl2/stm32mp1_private.o
                                        0x93b (size before relaxing)
 .debug_str     0x0000000000005c23      0x2a0 /home/charles/linux/code/tfa/mp157_alientek/tf-a-stm32mp-2.2.r1-r0/tf-a-stm32mp-2.2.r1/../build/optee/bl2/xlat_tables_arch.o
                                        0x580 (size before relaxing)
 .debug_str     0x0000000000005ec3      0x20e /home/charles/linux/code/tfa/mp157_alientek/tf-a-stm32mp-2.2.r1-r0/tf-a-stm32mp-2.2.r1/../build/optee/bl2/xlat_tables_context.o
                                        0x637 (size before relaxing)
 .debug_str     0x00000000000060d1      0x3c1 /home/charles/linux/code/tfa/mp157_alientek/tf-a-stm32mp-2.2.r1-r0/tf-a-stm32mp-2.2.r1/../build/optee/bl2/xlat_tables_core.o
                                        0x94a (size before relaxing)
 .debug_str     0x0000000000006492      0x115 /home/charles/linux/code/tfa/mp157_alientek/tf-a-stm32mp-2.2.r1-r0/tf-a-stm32mp-2.2.r1/../build/optee/bl2/xlat_tables_utils.o
                                        0x5c8 (size before relaxing)
 .debug_str     0x00000000000065a7      0x320 /home/charles/linux/code/tfa/mp157_alientek/tf-a-stm32mp-2.2.r1-r0/tf-a-stm32mp-2.2.r1/../build/optee/bl2/tzc400.o
                                        0x653 (size before relaxing)
 .debug_str     0x00000000000068c7       0x6f /home/charles/linux/code/tfa/mp157_alientek/tf-a-stm32mp-2.2.r1-r0/tf-a-stm32mp-2.2.r1/../build/optee/bl2/delay_timer.o
                                        0x2ff (size before relaxing)
 .debug_str     0x0000000000006936       0x6f /home/charles/linux/code/tfa/mp157_alientek/tf-a-stm32mp-2.2.r1-r0/tf-a-stm32mp-2.2.r1/../build/optee/bl2/generic_delay_timer.o
                                        0x36d (size before relaxing)
 .debug_str     0x00000000000069a5      0x2c2 /home/charles/linux/code/tfa/mp157_alientek/tf-a-stm32mp-2.2.r1-r0/tf-a-stm32mp-2.2.r1/../build/optee/bl2/bsec2.o
                                        0x72f (size before relaxing)
 .debug_str     0x0000000000006c67      0x281 /home/charles/linux/code/tfa/mp157_alientek/tf-a-stm32mp-2.2.r1-r0/tf-a-stm32mp-2.2.r1/../build/optee/bl2/stm32mp_clkfunc.o
                                        0x6af (size before relaxing)
 .debug_str     0x0000000000006ee8     0x1215 /home/charles/linux/code/tfa/mp157_alientek/tf-a-stm32mp-2.2.r1-r0/tf-a-stm32mp-2.2.r1/../build/optee/bl2/stm32mp1_clk.o
                                       0x196b (size before relaxing)
 .debug_str     0x00000000000080fd      0x1b5 /home/charles/linux/code/tfa/mp157_alientek/tf-a-stm32mp-2.2.r1-r0/tf-a-stm32mp-2.2.r1/../build/optee/bl2/stm32mp1_ddr_helpers.o
                                        0x65d (size before relaxing)
 .debug_str     0x00000000000082b2      0x117 /home/charles/linux/code/tfa/mp157_alientek/tf-a-stm32mp-2.2.r1-r0/tf-a-stm32mp-2.2.r1/../build/optee/bl2/stm32_gpio.o
                                        0x559 (size before relaxing)
 .debug_str     0x00000000000083c9      0x551 /home/charles/linux/code/tfa/mp157_alientek/tf-a-stm32mp-2.2.r1-r0/tf-a-stm32mp-2.2.r1/../build/optee/bl2/stm32_i2c.o
                                        0x98d (size before relaxing)
 .debug_str     0x000000000000891a       0x5b /home/charles/linux/code/tfa/mp157_alientek/tf-a-stm32mp-2.2.r1-r0/tf-a-stm32mp-2.2.r1/../build/optee/bl2/stm32_iwdg.o
                                        0x46a (size before relaxing)
 .debug_str     0x0000000000008975      0x326 /home/charles/linux/code/tfa/mp157_alientek/tf-a-stm32mp-2.2.r1-r0/tf-a-stm32mp-2.2.r1/../build/optee/bl2/stm32mp_pmic.o
                                        0xadd (size before relaxing)
 .debug_str     0x0000000000008c9b      0x29c /home/charles/linux/code/tfa/mp157_alientek/tf-a-stm32mp-2.2.r1-r0/tf-a-stm32mp-2.2.r1/../build/optee/bl2/stpmic1.o
                                        0x758 (size before relaxing)
 .debug_str     0x0000000000008f37       0x6d /home/charles/linux/code/tfa/mp157_alientek/tf-a-stm32mp-2.2.r1-r0/tf-a-stm32mp-2.2.r1/../build/optee/bl2/stm32mp_dummy_regulator.o
                                        0x1f9 (size before relaxing)
 .debug_str     0x0000000000008fa4       0x29 /home/charles/linux/code/tfa/mp157_alientek/tf-a-stm32mp-2.2.r1-r0/tf-a-stm32mp-2.2.r1/../build/optee/bl2/stm32mp_regulator.o
                                        0x32c (size before relaxing)
 .debug_str     0x0000000000008fcd       0x4c /home/charles/linux/code/tfa/mp157_alientek/tf-a-stm32mp-2.2.r1-r0/tf-a-stm32mp-2.2.r1/../build/optee/bl2/stm32mp1_reset.o
                                        0x3ab (size before relaxing)
 .debug_str     0x0000000000009019      0x207 /home/charles/linux/code/tfa/mp157_alientek/tf-a-stm32mp-2.2.r1-r0/tf-a-stm32mp-2.2.r1/../build/optee/bl2/stm32mp_dt.o
                                        0x81c (size before relaxing)
 .debug_str     0x0000000000009220       0x7f /home/charles/linux/code/tfa/mp157_alientek/tf-a-stm32mp-2.2.r1-r0/tf-a-stm32mp-2.2.r1/../build/optee/bl2/stm32mp_shres_helpers.o
                                        0x3ac (size before relaxing)
 .debug_str     0x000000000000929f       0xe4 /home/charles/linux/code/tfa/mp157_alientek/tf-a-stm32mp-2.2.r1-r0/tf-a-stm32mp-2.2.r1/../build/optee/bl2/stm32mp1_context.o
                                        0x4ef (size before relaxing)
 .debug_str     0x0000000000009383       0x4e /home/charles/linux/code/tfa/mp157_alientek/tf-a-stm32mp-2.2.r1-r0/tf-a-stm32mp-2.2.r1/../build/optee/bl2/stm32mp1_dbgmcu.o
                                        0x37e (size before relaxing)
 .debug_str     0x00000000000093d1       0x3f /home/charles/linux/code/tfa/mp157_alientek/tf-a-stm32mp-2.2.r1-r0/tf-a-stm32mp-2.2.r1/../build/optee/bl2/stm32mp1_security.o
                                        0x37b (size before relaxing)
 .debug_str     0x0000000000009410       0x8a /home/charles/linux/code/tfa/mp157_alientek/tf-a-stm32mp-2.2.r1-r0/tf-a-stm32mp-2.2.r1/../build/optee/bl2/stm32mp1_syscfg.o
                                        0x461 (size before relaxing)
 .debug_str     0x000000000000949a       0x35 /home/charles/linux/code/tfa/mp157_alientek/tf-a-stm32mp-2.2.r1-r0/tf-a-stm32mp-2.2.r1/../build/optee/bl2/spinlock.o
                                         0x8c (size before relaxing)
 .debug_str     0x00000000000094cf       0x28 /home/charles/linux/code/tfa/mp157_alientek/tf-a-stm32mp-2.2.r1-r0/tf-a-stm32mp-2.2.r1/../build/optee/bl2/platform_up_stack.o
                                         0x8d (size before relaxing)
 .debug_str     0x00000000000094f7       0x21 /home/charles/linux/code/tfa/mp157_alientek/tf-a-stm32mp-2.2.r1-r0/tf-a-stm32mp-2.2.r1/../build/optee/bl2/bl2_el3_entrypoint.o
                                         0x86 (size before relaxing)
 .debug_str     0x0000000000009518       0x21 /home/charles/linux/code/tfa/mp157_alientek/tf-a-stm32mp-2.2.r1-r0/tf-a-stm32mp-2.2.r1/../build/optee/bl2/bl2_el3_exceptions.o
                                         0x86 (size before relaxing)
 .debug_str     0x0000000000009539       0x1f /home/charles/linux/code/tfa/mp157_alientek/tf-a-stm32mp-2.2.r1-r0/tf-a-stm32mp-2.2.r1/../build/optee/bl2/cpu_helpers.o
                                         0x84 (size before relaxing)
 .debug_str     0x0000000000009558       0x17 /home/charles/linux/code/tfa/mp157_alientek/tf-a-stm32mp-2.2.r1-r0/tf-a-stm32mp-2.2.r1/../build/optee/bl2/debug.o
                                         0x7c (size before relaxing)
 .debug_str     0x000000000000956f       0x1c /home/charles/linux/code/tfa/mp157_alientek/tf-a-stm32mp-2.2.r1-r0/tf-a-stm32mp-2.2.r1/../build/optee/bl2/cache_helpers.o
                                         0x81 (size before relaxing)
 .debug_str     0x000000000000958b       0x1b /home/charles/linux/code/tfa/mp157_alientek/tf-a-stm32mp-2.2.r1-r0/tf-a-stm32mp-2.2.r1/../build/optee/bl2/misc_helpers.o
                                         0x80 (size before relaxing)
 .debug_str     0x00000000000095a6       0x2e /home/charles/linux/code/tfa/mp157_alientek/tf-a-stm32mp-2.2.r1-r0/tf-a-stm32mp-2.2.r1/../build/optee/bl2/aeabi_uldivmod.o
                                         0x93 (size before relaxing)
 .debug_str     0x00000000000095d4       0x28 /home/charles/linux/code/tfa/mp157_alientek/tf-a-stm32mp-2.2.r1-r0/tf-a-stm32mp-2.2.r1/../build/optee/bl2/stm32_console.o
                                         0x8d (size before relaxing)
 .debug_str     0x00000000000095fc       0x28 /home/charles/linux/code/tfa/mp157_alientek/tf-a-stm32mp-2.2.r1-r0/tf-a-stm32mp-2.2.r1/../build/optee/bl2/enable_mmu.o
                                         0x8d (size before relaxing)
 .debug_str     0x0000000000009624       0x1d /home/charles/linux/code/tfa/mp157_alientek/tf-a-stm32mp-2.2.r1-r0/tf-a-stm32mp-2.2.r1/../build/optee/bl2/cortex_a7.o
                                         0x82 (size before relaxing)
 .debug_str     0x0000000000009641       0x23 /home/charles/linux/code/tfa/mp157_alientek/tf-a-stm32mp-2.2.r1-r0/tf-a-stm32mp-2.2.r1/../build/optee/bl2/stm32mp1_helper.o
                                         0x88 (size before relaxing)
 .debug_str     0x0000000000009664      0x157 /home/charles/linux/code/tfa/mp157_alientek/tf-a-stm32mp-2.2.r1-r0/tf-a-stm32mp-2.2.r1/../build/optee/lib/libfdt.a(fdt.o)
                                        0x3a0 (size before relaxing)
 .debug_str     0x00000000000097bb       0x1b /home/charles/linux/code/tfa/mp157_alientek/tf-a-stm32mp-2.2.r1-r0/tf-a-stm32mp-2.2.r1/../build/optee/lib/libfdt.a(fdt_addresses.o)
                                        0x22d (size before relaxing)
 .debug_str     0x00000000000097d6      0x33b /home/charles/linux/code/tfa/mp157_alientek/tf-a-stm32mp-2.2.r1-r0/tf-a-stm32mp-2.2.r1/../build/optee/lib/libfdt.a(fdt_ro.o)
                                        0x7c1 (size before relaxing)
 .debug_str     0x0000000000009b11       0x2a /home/charles/linux/code/tfa/mp157_alientek/tf-a-stm32mp-2.2.r1-r0/tf-a-stm32mp-2.2.r1/../build/optee/lib/libc.a(assert.o)
                                        0x285 (size before relaxing)
 .debug_str     0x0000000000009b3b       0x12 /home/charles/linux/code/tfa/mp157_alientek/tf-a-stm32mp-2.2.r1-r0/tf-a-stm32mp-2.2.r1/../build/optee/lib/libc.a(memchr.o)
                                        0x16f (size before relaxing)
 .debug_str     0x0000000000009b4d       0x12 /home/charles/linux/code/tfa/mp157_alientek/tf-a-stm32mp-2.2.r1-r0/tf-a-stm32mp-2.2.r1/../build/optee/lib/libc.a(memcmp.o)
                                        0x16f (size before relaxing)
 .debug_str     0x0000000000009b5f       0x12 /home/charles/linux/code/tfa/mp157_alientek/tf-a-stm32mp-2.2.r1-r0/tf-a-stm32mp-2.2.r1/../build/optee/lib/libc.a(memcpy.o)
                                        0x166 (size before relaxing)
 .debug_str     0x0000000000009b71       0x13 /home/charles/linux/code/tfa/mp157_alientek/tf-a-stm32mp-2.2.r1-r0/tf-a-stm32mp-2.2.r1/../build/optee/lib/libc.a(memmove.o)
                                        0x166 (size before relaxing)
 .debug_str     0x0000000000009b84       0x12 /home/charles/linux/code/tfa/mp157_alientek/tf-a-stm32mp-2.2.r1-r0/tf-a-stm32mp-2.2.r1/../build/optee/lib/libc.a(memset.o)
                                        0x16c (size before relaxing)
 .debug_str     0x0000000000009b96       0x57 /home/charles/linux/code/tfa/mp157_alientek/tf-a-stm32mp-2.2.r1-r0/tf-a-stm32mp-2.2.r1/../build/optee/lib/libc.a(printf.o)
                                        0x2ce (size before relaxing)
 .debug_str     0x0000000000009bed       0x13 /home/charles/linux/code/tfa/mp157_alientek/tf-a-stm32mp-2.2.r1-r0/tf-a-stm32mp-2.2.r1/../build/optee/lib/libc.a(putchar.o)
                                        0x1dc (size before relaxing)
 .debug_str     0x0000000000009c00       0x35 /home/charles/linux/code/tfa/mp157_alientek/tf-a-stm32mp-2.2.r1-r0/tf-a-stm32mp-2.2.r1/../build/optee/lib/libc.a(snprintf.o)
                                        0x2c5 (size before relaxing)
 .debug_str     0x0000000000009c35       0x12 /home/charles/linux/code/tfa/mp157_alientek/tf-a-stm32mp-2.2.r1-r0/tf-a-stm32mp-2.2.r1/../build/optee/lib/libc.a(strchr.o)
                                        0x15f (size before relaxing)
 .debug_str     0x0000000000009c47       0x12 /home/charles/linux/code/tfa/mp157_alientek/tf-a-stm32mp-2.2.r1-r0/tf-a-stm32mp-2.2.r1/../build/optee/lib/libc.a(strcmp.o)
                                        0x156 (size before relaxing)
 .debug_str     0x0000000000009c59       0x12 /home/charles/linux/code/tfa/mp157_alientek/tf-a-stm32mp-2.2.r1-r0/tf-a-stm32mp-2.2.r1/../build/optee/lib/libc.a(strlen.o)
                                        0x164 (size before relaxing)
 .debug_str     0x0000000000009c6b       0x13 /home/charles/linux/code/tfa/mp157_alientek/tf-a-stm32mp-2.2.r1-r0/tf-a-stm32mp-2.2.r1/../build/optee/lib/libc.a(strncmp.o)
                                        0x15f (size before relaxing)
 .debug_str     0x0000000000009c7e       0x1a /home/charles/linux/code/tfa/mp157_alientek/tf-a-stm32mp-2.2.r1-r0/tf-a-stm32mp-2.2.r1/../build/optee/lib/libc.a(strnlen.o)
                                        0x166 (size before relaxing)
 .debug_str     0x0000000000009c98       0x13 /home/charles/linux/code/tfa/mp157_alientek/tf-a-stm32mp-2.2.r1-r0/tf-a-stm32mp-2.2.r1/../build/optee/lib/libc.a(strrchr.o)
                                        0x166 (size before relaxing)

.comment        0x0000000000000000       0x5a
 .comment       0x0000000000000000       0x5a /home/charles/linux/code/tfa/mp157_alientek/tf-a-stm32mp-2.2.r1-r0/tf-a-stm32mp-2.2.r1/../build/optee/bl2/build_message.o
                                         0x5b (size before relaxing)
 .comment       0x000000000000005a       0x5b /home/charles/linux/code/tfa/mp157_alientek/tf-a-stm32mp-2.2.r1-r0/tf-a-stm32mp-2.2.r1/../build/optee/bl2/io_block.o
 .comment       0x000000000000005a       0x5b /home/charles/linux/code/tfa/mp157_alientek/tf-a-stm32mp-2.2.r1-r0/tf-a-stm32mp-2.2.r1/../build/optee/bl2/io_dummy.o
 .comment       0x000000000000005a       0x5b /home/charles/linux/code/tfa/mp157_alientek/tf-a-stm32mp-2.2.r1-r0/tf-a-stm32mp-2.2.r1/../build/optee/bl2/io_mtd.o
 .comment       0x000000000000005a       0x5b /home/charles/linux/code/tfa/mp157_alientek/tf-a-stm32mp-2.2.r1-r0/tf-a-stm32mp-2.2.r1/../build/optee/bl2/io_storage.o
 .comment       0x000000000000005a       0x5b /home/charles/linux/code/tfa/mp157_alientek/tf-a-stm32mp-2.2.r1-r0/tf-a-stm32mp-2.2.r1/../build/optee/bl2/stm32_hash.o
 .comment       0x000000000000005a       0x5b /home/charles/linux/code/tfa/mp157_alientek/tf-a-stm32mp-2.2.r1-r0/tf-a-stm32mp-2.2.r1/../build/optee/bl2/io_stm32image.o
 .comment       0x000000000000005a       0x5b /home/charles/linux/code/tfa/mp157_alientek/tf-a-stm32mp-2.2.r1-r0/tf-a-stm32mp-2.2.r1/../build/optee/bl2/bl2_io_storage.o
 .comment       0x000000000000005a       0x5b /home/charles/linux/code/tfa/mp157_alientek/tf-a-stm32mp-2.2.r1-r0/tf-a-stm32mp-2.2.r1/../build/optee/bl2/bl2_plat_setup.o
 .comment       0x000000000000005a       0x5b /home/charles/linux/code/tfa/mp157_alientek/tf-a-stm32mp-2.2.r1-r0/tf-a-stm32mp-2.2.r1/../build/optee/bl2/auth_mod.o
 .comment       0x000000000000005a       0x5b /home/charles/linux/code/tfa/mp157_alientek/tf-a-stm32mp-2.2.r1-r0/tf-a-stm32mp-2.2.r1/../build/optee/bl2/crypto_mod.o
 .comment       0x000000000000005a       0x5b /home/charles/linux/code/tfa/mp157_alientek/tf-a-stm32mp-2.2.r1-r0/tf-a-stm32mp-2.2.r1/../build/optee/bl2/img_parser_mod.o
 .comment       0x000000000000005a       0x5b /home/charles/linux/code/tfa/mp157_alientek/tf-a-stm32mp-2.2.r1-r0/tf-a-stm32mp-2.2.r1/../build/optee/bl2/stm32mp_cot.o
 .comment       0x000000000000005a       0x5b /home/charles/linux/code/tfa/mp157_alientek/tf-a-stm32mp-2.2.r1-r0/tf-a-stm32mp-2.2.r1/../build/optee/bl2/stm32mp_crypto_lib.o
 .comment       0x000000000000005a       0x5b /home/charles/linux/code/tfa/mp157_alientek/tf-a-stm32mp-2.2.r1-r0/tf-a-stm32mp-2.2.r1/../build/optee/bl2/stm32mp_img_parser_lib.o
 .comment       0x000000000000005a       0x5b /home/charles/linux/code/tfa/mp157_alientek/tf-a-stm32mp-2.2.r1-r0/tf-a-stm32mp-2.2.r1/../build/optee/bl2/stm32mp_trusted_boot.o
 .comment       0x000000000000005a       0x5b /home/charles/linux/code/tfa/mp157_alientek/tf-a-stm32mp-2.2.r1-r0/tf-a-stm32mp-2.2.r1/../build/optee/bl2/mmc.o
 .comment       0x000000000000005a       0x5b /home/charles/linux/code/tfa/mp157_alientek/tf-a-stm32mp-2.2.r1-r0/tf-a-stm32mp-2.2.r1/../build/optee/bl2/gpt.o
 .comment       0x000000000000005a       0x5b /home/charles/linux/code/tfa/mp157_alientek/tf-a-stm32mp-2.2.r1-r0/tf-a-stm32mp-2.2.r1/../build/optee/bl2/partition.o
 .comment       0x000000000000005a       0x5b /home/charles/linux/code/tfa/mp157_alientek/tf-a-stm32mp-2.2.r1-r0/tf-a-stm32mp-2.2.r1/../build/optee/bl2/io_mmc.o
 .comment       0x000000000000005a       0x5b /home/charles/linux/code/tfa/mp157_alientek/tf-a-stm32mp-2.2.r1-r0/tf-a-stm32mp-2.2.r1/../build/optee/bl2/stm32_sdmmc2.o
 .comment       0x000000000000005a       0x5b /home/charles/linux/code/tfa/mp157_alientek/tf-a-stm32mp-2.2.r1-r0/tf-a-stm32mp-2.2.r1/../build/optee/bl2/raw_nand.o
 .comment       0x000000000000005a       0x5b /home/charles/linux/code/tfa/mp157_alientek/tf-a-stm32mp-2.2.r1-r0/tf-a-stm32mp-2.2.r1/../build/optee/bl2/stm32_fmc2_nand.o
 .comment       0x000000000000005a       0x5b /home/charles/linux/code/tfa/mp157_alientek/tf-a-stm32mp-2.2.r1-r0/tf-a-stm32mp-2.2.r1/../build/optee/bl2/spi_nand.o
 .comment       0x000000000000005a       0x5b /home/charles/linux/code/tfa/mp157_alientek/tf-a-stm32mp-2.2.r1-r0/tf-a-stm32mp-2.2.r1/../build/optee/bl2/spi_nor.o
 .comment       0x000000000000005a       0x5b /home/charles/linux/code/tfa/mp157_alientek/tf-a-stm32mp-2.2.r1-r0/tf-a-stm32mp-2.2.r1/../build/optee/bl2/spi_mem.o
 .comment       0x000000000000005a       0x5b /home/charles/linux/code/tfa/mp157_alientek/tf-a-stm32mp-2.2.r1-r0/tf-a-stm32mp-2.2.r1/../build/optee/bl2/stm32_qspi.o
 .comment       0x000000000000005a       0x5b /home/charles/linux/code/tfa/mp157_alientek/tf-a-stm32mp-2.2.r1-r0/tf-a-stm32mp-2.2.r1/../build/optee/bl2/core.o
 .comment       0x000000000000005a       0x5b /home/charles/linux/code/tfa/mp157_alientek/tf-a-stm32mp-2.2.r1-r0/tf-a-stm32mp-2.2.r1/../build/optee/bl2/stm32mp1_boot_device.o
 .comment       0x000000000000005a       0x5b /home/charles/linux/code/tfa/mp157_alientek/tf-a-stm32mp-2.2.r1-r0/tf-a-stm32mp-2.2.r1/../build/optee/bl2/stm32mp1_ddr.o
 .comment       0x000000000000005a       0x5b /home/charles/linux/code/tfa/mp157_alientek/tf-a-stm32mp-2.2.r1-r0/tf-a-stm32mp-2.2.r1/../build/optee/bl2/stm32mp1_ram.o
 .comment       0x000000000000005a       0x5b /home/charles/linux/code/tfa/mp157_alientek/tf-a-stm32mp-2.2.r1-r0/tf-a-stm32mp-2.2.r1/../build/optee/bl2/desc_image_load.o
 .comment       0x000000000000005a       0x5b /home/charles/linux/code/tfa/mp157_alientek/tf-a-stm32mp-2.2.r1-r0/tf-a-stm32mp-2.2.r1/../build/optee/bl2/plat_bl2_mem_params_desc.o
 .comment       0x000000000000005a       0x5b /home/charles/linux/code/tfa/mp157_alientek/tf-a-stm32mp-2.2.r1-r0/tf-a-stm32mp-2.2.r1/../build/optee/bl2/plat_image_load.o
 .comment       0x000000000000005a       0x5b /home/charles/linux/code/tfa/mp157_alientek/tf-a-stm32mp-2.2.r1-r0/tf-a-stm32mp-2.2.r1/../build/optee/bl2/optee_utils.o
 .comment       0x000000000000005a       0x5b /home/charles/linux/code/tfa/mp157_alientek/tf-a-stm32mp-2.2.r1-r0/tf-a-stm32mp-2.2.r1/../build/optee/bl2/bl2_image_load_v2.o
 .comment       0x000000000000005a       0x5b /home/charles/linux/code/tfa/mp157_alientek/tf-a-stm32mp-2.2.r1-r0/tf-a-stm32mp-2.2.r1/../build/optee/bl2/bl2_main.o
 .comment       0x000000000000005a       0x5b /home/charles/linux/code/tfa/mp157_alientek/tf-a-stm32mp-2.2.r1-r0/tf-a-stm32mp-2.2.r1/../build/optee/bl2/bl2_arch_setup.o
 .comment       0x000000000000005a       0x5b /home/charles/linux/code/tfa/mp157_alientek/tf-a-stm32mp-2.2.r1-r0/tf-a-stm32mp-2.2.r1/../build/optee/bl2/bl_common.o
 .comment       0x000000000000005a       0x5b /home/charles/linux/code/tfa/mp157_alientek/tf-a-stm32mp-2.2.r1-r0/tf-a-stm32mp-2.2.r1/../build/optee/bl2/tf_log.o
 .comment       0x000000000000005a       0x5b /home/charles/linux/code/tfa/mp157_alientek/tf-a-stm32mp-2.2.r1-r0/tf-a-stm32mp-2.2.r1/../build/optee/bl2/multi_console.o
 .comment       0x000000000000005a       0x5b /home/charles/linux/code/tfa/mp157_alientek/tf-a-stm32mp-2.2.r1-r0/tf-a-stm32mp-2.2.r1/../build/optee/bl2/plat_bl_common.o
 .comment       0x000000000000005a       0x5b /home/charles/linux/code/tfa/mp157_alientek/tf-a-stm32mp-2.2.r1-r0/tf-a-stm32mp-2.2.r1/../build/optee/bl2/plat_log_common.o
 .comment       0x000000000000005a       0x5b /home/charles/linux/code/tfa/mp157_alientek/tf-a-stm32mp-2.2.r1-r0/tf-a-stm32mp-2.2.r1/../build/optee/bl2/popcountsi2.o
 .comment       0x000000000000005a       0x5b /home/charles/linux/code/tfa/mp157_alientek/tf-a-stm32mp-2.2.r1-r0/tf-a-stm32mp-2.2.r1/../build/optee/bl2/ctzdi2.o
 .comment       0x000000000000005a       0x5b /home/charles/linux/code/tfa/mp157_alientek/tf-a-stm32mp-2.2.r1-r0/tf-a-stm32mp-2.2.r1/../build/optee/bl2/udivmoddi4.o
 .comment       0x000000000000005a       0x5b /home/charles/linux/code/tfa/mp157_alientek/tf-a-stm32mp-2.2.r1-r0/tf-a-stm32mp-2.2.r1/../build/optee/bl2/stm32mp_common.o
 .comment       0x000000000000005a       0x5b /home/charles/linux/code/tfa/mp157_alientek/tf-a-stm32mp-2.2.r1-r0/tf-a-stm32mp-2.2.r1/../build/optee/bl2/stm32mp1_private.o
 .comment       0x000000000000005a       0x5b /home/charles/linux/code/tfa/mp157_alientek/tf-a-stm32mp-2.2.r1-r0/tf-a-stm32mp-2.2.r1/../build/optee/bl2/xlat_tables_arch.o
 .comment       0x000000000000005a       0x5b /home/charles/linux/code/tfa/mp157_alientek/tf-a-stm32mp-2.2.r1-r0/tf-a-stm32mp-2.2.r1/../build/optee/bl2/xlat_tables_context.o
 .comment       0x000000000000005a       0x5b /home/charles/linux/code/tfa/mp157_alientek/tf-a-stm32mp-2.2.r1-r0/tf-a-stm32mp-2.2.r1/../build/optee/bl2/xlat_tables_core.o
 .comment       0x000000000000005a       0x5b /home/charles/linux/code/tfa/mp157_alientek/tf-a-stm32mp-2.2.r1-r0/tf-a-stm32mp-2.2.r1/../build/optee/bl2/xlat_tables_utils.o
 .comment       0x000000000000005a       0x5b /home/charles/linux/code/tfa/mp157_alientek/tf-a-stm32mp-2.2.r1-r0/tf-a-stm32mp-2.2.r1/../build/optee/bl2/tzc400.o
 .comment       0x000000000000005a       0x5b /home/charles/linux/code/tfa/mp157_alientek/tf-a-stm32mp-2.2.r1-r0/tf-a-stm32mp-2.2.r1/../build/optee/bl2/delay_timer.o
 .comment       0x000000000000005a       0x5b /home/charles/linux/code/tfa/mp157_alientek/tf-a-stm32mp-2.2.r1-r0/tf-a-stm32mp-2.2.r1/../build/optee/bl2/generic_delay_timer.o
 .comment       0x000000000000005a       0x5b /home/charles/linux/code/tfa/mp157_alientek/tf-a-stm32mp-2.2.r1-r0/tf-a-stm32mp-2.2.r1/../build/optee/bl2/bsec2.o
 .comment       0x000000000000005a       0x5b /home/charles/linux/code/tfa/mp157_alientek/tf-a-stm32mp-2.2.r1-r0/tf-a-stm32mp-2.2.r1/../build/optee/bl2/stm32mp_clkfunc.o
 .comment       0x000000000000005a       0x5b /home/charles/linux/code/tfa/mp157_alientek/tf-a-stm32mp-2.2.r1-r0/tf-a-stm32mp-2.2.r1/../build/optee/bl2/stm32mp1_clk.o
 .comment       0x000000000000005a       0x5b /home/charles/linux/code/tfa/mp157_alientek/tf-a-stm32mp-2.2.r1-r0/tf-a-stm32mp-2.2.r1/../build/optee/bl2/stm32mp1_ddr_helpers.o
 .comment       0x000000000000005a       0x5b /home/charles/linux/code/tfa/mp157_alientek/tf-a-stm32mp-2.2.r1-r0/tf-a-stm32mp-2.2.r1/../build/optee/bl2/stm32_gpio.o
 .comment       0x000000000000005a       0x5b /home/charles/linux/code/tfa/mp157_alientek/tf-a-stm32mp-2.2.r1-r0/tf-a-stm32mp-2.2.r1/../build/optee/bl2/stm32_i2c.o
 .comment       0x000000000000005a       0x5b /home/charles/linux/code/tfa/mp157_alientek/tf-a-stm32mp-2.2.r1-r0/tf-a-stm32mp-2.2.r1/../build/optee/bl2/stm32_iwdg.o
 .comment       0x000000000000005a       0x5b /home/charles/linux/code/tfa/mp157_alientek/tf-a-stm32mp-2.2.r1-r0/tf-a-stm32mp-2.2.r1/../build/optee/bl2/stm32mp_pmic.o
 .comment       0x000000000000005a       0x5b /home/charles/linux/code/tfa/mp157_alientek/tf-a-stm32mp-2.2.r1-r0/tf-a-stm32mp-2.2.r1/../build/optee/bl2/stpmic1.o
 .comment       0x000000000000005a       0x5b /home/charles/linux/code/tfa/mp157_alientek/tf-a-stm32mp-2.2.r1-r0/tf-a-stm32mp-2.2.r1/../build/optee/bl2/stm32mp_dummy_regulator.o
 .comment       0x000000000000005a       0x5b /home/charles/linux/code/tfa/mp157_alientek/tf-a-stm32mp-2.2.r1-r0/tf-a-stm32mp-2.2.r1/../build/optee/bl2/stm32mp_regulator.o
 .comment       0x000000000000005a       0x5b /home/charles/linux/code/tfa/mp157_alientek/tf-a-stm32mp-2.2.r1-r0/tf-a-stm32mp-2.2.r1/../build/optee/bl2/stm32mp1_reset.o
 .comment       0x000000000000005a       0x5b /home/charles/linux/code/tfa/mp157_alientek/tf-a-stm32mp-2.2.r1-r0/tf-a-stm32mp-2.2.r1/../build/optee/bl2/stm32mp_dt.o
 .comment       0x000000000000005a       0x5b /home/charles/linux/code/tfa/mp157_alientek/tf-a-stm32mp-2.2.r1-r0/tf-a-stm32mp-2.2.r1/../build/optee/bl2/stm32mp_shres_helpers.o
 .comment       0x000000000000005a       0x5b /home/charles/linux/code/tfa/mp157_alientek/tf-a-stm32mp-2.2.r1-r0/tf-a-stm32mp-2.2.r1/../build/optee/bl2/stm32mp1_context.o
 .comment       0x000000000000005a       0x5b /home/charles/linux/code/tfa/mp157_alientek/tf-a-stm32mp-2.2.r1-r0/tf-a-stm32mp-2.2.r1/../build/optee/bl2/stm32mp1_dbgmcu.o
 .comment       0x000000000000005a       0x5b /home/charles/linux/code/tfa/mp157_alientek/tf-a-stm32mp-2.2.r1-r0/tf-a-stm32mp-2.2.r1/../build/optee/bl2/stm32mp1_security.o
 .comment       0x000000000000005a       0x5b /home/charles/linux/code/tfa/mp157_alientek/tf-a-stm32mp-2.2.r1-r0/tf-a-stm32mp-2.2.r1/../build/optee/bl2/stm32mp1_syscfg.o
 .comment       0x000000000000005a       0x5b /home/charles/linux/code/tfa/mp157_alientek/tf-a-stm32mp-2.2.r1-r0/tf-a-stm32mp-2.2.r1/../build/optee/lib/libfdt.a(fdt.o)
 .comment       0x000000000000005a       0x5b /home/charles/linux/code/tfa/mp157_alientek/tf-a-stm32mp-2.2.r1-r0/tf-a-stm32mp-2.2.r1/../build/optee/lib/libfdt.a(fdt_addresses.o)
 .comment       0x000000000000005a       0x5b /home/charles/linux/code/tfa/mp157_alientek/tf-a-stm32mp-2.2.r1-r0/tf-a-stm32mp-2.2.r1/../build/optee/lib/libfdt.a(fdt_ro.o)
 .comment       0x000000000000005a       0x5b /home/charles/linux/code/tfa/mp157_alientek/tf-a-stm32mp-2.2.r1-r0/tf-a-stm32mp-2.2.r1/../build/optee/lib/libc.a(assert.o)
 .comment       0x000000000000005a       0x5b /home/charles/linux/code/tfa/mp157_alientek/tf-a-stm32mp-2.2.r1-r0/tf-a-stm32mp-2.2.r1/../build/optee/lib/libc.a(memchr.o)
 .comment       0x000000000000005a       0x5b /home/charles/linux/code/tfa/mp157_alientek/tf-a-stm32mp-2.2.r1-r0/tf-a-stm32mp-2.2.r1/../build/optee/lib/libc.a(memcmp.o)
 .comment       0x000000000000005a       0x5b /home/charles/linux/code/tfa/mp157_alientek/tf-a-stm32mp-2.2.r1-r0/tf-a-stm32mp-2.2.r1/../build/optee/lib/libc.a(memcpy.o)
 .comment       0x000000000000005a       0x5b /home/charles/linux/code/tfa/mp157_alientek/tf-a-stm32mp-2.2.r1-r0/tf-a-stm32mp-2.2.r1/../build/optee/lib/libc.a(memmove.o)
 .comment       0x000000000000005a       0x5b /home/charles/linux/code/tfa/mp157_alientek/tf-a-stm32mp-2.2.r1-r0/tf-a-stm32mp-2.2.r1/../build/optee/lib/libc.a(memset.o)
 .comment       0x000000000000005a       0x5b /home/charles/linux/code/tfa/mp157_alientek/tf-a-stm32mp-2.2.r1-r0/tf-a-stm32mp-2.2.r1/../build/optee/lib/libc.a(printf.o)
 .comment       0x000000000000005a       0x5b /home/charles/linux/code/tfa/mp157_alientek/tf-a-stm32mp-2.2.r1-r0/tf-a-stm32mp-2.2.r1/../build/optee/lib/libc.a(putchar.o)
 .comment       0x000000000000005a       0x5b /home/charles/linux/code/tfa/mp157_alientek/tf-a-stm32mp-2.2.r1-r0/tf-a-stm32mp-2.2.r1/../build/optee/lib/libc.a(snprintf.o)
 .comment       0x000000000000005a       0x5b /home/charles/linux/code/tfa/mp157_alientek/tf-a-stm32mp-2.2.r1-r0/tf-a-stm32mp-2.2.r1/../build/optee/lib/libc.a(strchr.o)
 .comment       0x000000000000005a       0x5b /home/charles/linux/code/tfa/mp157_alientek/tf-a-stm32mp-2.2.r1-r0/tf-a-stm32mp-2.2.r1/../build/optee/lib/libc.a(strcmp.o)
 .comment       0x000000000000005a       0x5b /home/charles/linux/code/tfa/mp157_alientek/tf-a-stm32mp-2.2.r1-r0/tf-a-stm32mp-2.2.r1/../build/optee/lib/libc.a(strlen.o)
 .comment       0x000000000000005a       0x5b /home/charles/linux/code/tfa/mp157_alientek/tf-a-stm32mp-2.2.r1-r0/tf-a-stm32mp-2.2.r1/../build/optee/lib/libc.a(strncmp.o)
 .comment       0x000000000000005a       0x5b /home/charles/linux/code/tfa/mp157_alientek/tf-a-stm32mp-2.2.r1-r0/tf-a-stm32mp-2.2.r1/../build/optee/lib/libc.a(strnlen.o)
 .comment       0x000000000000005a       0x5b /home/charles/linux/code/tfa/mp157_alientek/tf-a-stm32mp-2.2.r1-r0/tf-a-stm32mp-2.2.r1/../build/optee/lib/libc.a(strrchr.o)

.note.GNU-stack
                0x0000000000000000        0x0
 .note.GNU-stack
                0x0000000000000000        0x0 /home/charles/linux/code/tfa/mp157_alientek/tf-a-stm32mp-2.2.r1-r0/tf-a-stm32mp-2.2.r1/../build/optee/bl2/build_message.o
 .note.GNU-stack
                0x0000000000000000        0x0 /home/charles/linux/code/tfa/mp157_alientek/tf-a-stm32mp-2.2.r1-r0/tf-a-stm32mp-2.2.r1/../build/optee/bl2/io_block.o
 .note.GNU-stack
                0x0000000000000000        0x0 /home/charles/linux/code/tfa/mp157_alientek/tf-a-stm32mp-2.2.r1-r0/tf-a-stm32mp-2.2.r1/../build/optee/bl2/io_dummy.o
 .note.GNU-stack
                0x0000000000000000        0x0 /home/charles/linux/code/tfa/mp157_alientek/tf-a-stm32mp-2.2.r1-r0/tf-a-stm32mp-2.2.r1/../build/optee/bl2/io_mtd.o
 .note.GNU-stack
                0x0000000000000000        0x0 /home/charles/linux/code/tfa/mp157_alientek/tf-a-stm32mp-2.2.r1-r0/tf-a-stm32mp-2.2.r1/../build/optee/bl2/io_storage.o
 .note.GNU-stack
                0x0000000000000000        0x0 /home/charles/linux/code/tfa/mp157_alientek/tf-a-stm32mp-2.2.r1-r0/tf-a-stm32mp-2.2.r1/../build/optee/bl2/stm32_hash.o
 .note.GNU-stack
                0x0000000000000000        0x0 /home/charles/linux/code/tfa/mp157_alientek/tf-a-stm32mp-2.2.r1-r0/tf-a-stm32mp-2.2.r1/../build/optee/bl2/io_stm32image.o
 .note.GNU-stack
                0x0000000000000000        0x0 /home/charles/linux/code/tfa/mp157_alientek/tf-a-stm32mp-2.2.r1-r0/tf-a-stm32mp-2.2.r1/../build/optee/bl2/bl2_io_storage.o
 .note.GNU-stack
                0x0000000000000000        0x0 /home/charles/linux/code/tfa/mp157_alientek/tf-a-stm32mp-2.2.r1-r0/tf-a-stm32mp-2.2.r1/../build/optee/bl2/bl2_plat_setup.o
 .note.GNU-stack
                0x0000000000000000        0x0 /home/charles/linux/code/tfa/mp157_alientek/tf-a-stm32mp-2.2.r1-r0/tf-a-stm32mp-2.2.r1/../build/optee/bl2/auth_mod.o
 .note.GNU-stack
                0x0000000000000000        0x0 /home/charles/linux/code/tfa/mp157_alientek/tf-a-stm32mp-2.2.r1-r0/tf-a-stm32mp-2.2.r1/../build/optee/bl2/crypto_mod.o
 .note.GNU-stack
                0x0000000000000000        0x0 /home/charles/linux/code/tfa/mp157_alientek/tf-a-stm32mp-2.2.r1-r0/tf-a-stm32mp-2.2.r1/../build/optee/bl2/img_parser_mod.o
 .note.GNU-stack
                0x0000000000000000        0x0 /home/charles/linux/code/tfa/mp157_alientek/tf-a-stm32mp-2.2.r1-r0/tf-a-stm32mp-2.2.r1/../build/optee/bl2/stm32mp_cot.o
 .note.GNU-stack
                0x0000000000000000        0x0 /home/charles/linux/code/tfa/mp157_alientek/tf-a-stm32mp-2.2.r1-r0/tf-a-stm32mp-2.2.r1/../build/optee/bl2/stm32mp_crypto_lib.o
 .note.GNU-stack
                0x0000000000000000        0x0 /home/charles/linux/code/tfa/mp157_alientek/tf-a-stm32mp-2.2.r1-r0/tf-a-stm32mp-2.2.r1/../build/optee/bl2/stm32mp_img_parser_lib.o
 .note.GNU-stack
                0x0000000000000000        0x0 /home/charles/linux/code/tfa/mp157_alientek/tf-a-stm32mp-2.2.r1-r0/tf-a-stm32mp-2.2.r1/../build/optee/bl2/stm32mp_trusted_boot.o
 .note.GNU-stack
                0x0000000000000000        0x0 /home/charles/linux/code/tfa/mp157_alientek/tf-a-stm32mp-2.2.r1-r0/tf-a-stm32mp-2.2.r1/../build/optee/bl2/mmc.o
 .note.GNU-stack
                0x0000000000000000        0x0 /home/charles/linux/code/tfa/mp157_alientek/tf-a-stm32mp-2.2.r1-r0/tf-a-stm32mp-2.2.r1/../build/optee/bl2/gpt.o
 .note.GNU-stack
                0x0000000000000000        0x0 /home/charles/linux/code/tfa/mp157_alientek/tf-a-stm32mp-2.2.r1-r0/tf-a-stm32mp-2.2.r1/../build/optee/bl2/partition.o
 .note.GNU-stack
                0x0000000000000000        0x0 /home/charles/linux/code/tfa/mp157_alientek/tf-a-stm32mp-2.2.r1-r0/tf-a-stm32mp-2.2.r1/../build/optee/bl2/io_mmc.o
 .note.GNU-stack
                0x0000000000000000        0x0 /home/charles/linux/code/tfa/mp157_alientek/tf-a-stm32mp-2.2.r1-r0/tf-a-stm32mp-2.2.r1/../build/optee/bl2/stm32_sdmmc2.o
 .note.GNU-stack
                0x0000000000000000        0x0 /home/charles/linux/code/tfa/mp157_alientek/tf-a-stm32mp-2.2.r1-r0/tf-a-stm32mp-2.2.r1/../build/optee/bl2/raw_nand.o
 .note.GNU-stack
                0x0000000000000000        0x0 /home/charles/linux/code/tfa/mp157_alientek/tf-a-stm32mp-2.2.r1-r0/tf-a-stm32mp-2.2.r1/../build/optee/bl2/stm32_fmc2_nand.o
 .note.GNU-stack
                0x0000000000000000        0x0 /home/charles/linux/code/tfa/mp157_alientek/tf-a-stm32mp-2.2.r1-r0/tf-a-stm32mp-2.2.r1/../build/optee/bl2/spi_nand.o
 .note.GNU-stack
                0x0000000000000000        0x0 /home/charles/linux/code/tfa/mp157_alientek/tf-a-stm32mp-2.2.r1-r0/tf-a-stm32mp-2.2.r1/../build/optee/bl2/spi_nor.o
 .note.GNU-stack
                0x0000000000000000        0x0 /home/charles/linux/code/tfa/mp157_alientek/tf-a-stm32mp-2.2.r1-r0/tf-a-stm32mp-2.2.r1/../build/optee/bl2/spi_mem.o
 .note.GNU-stack
                0x0000000000000000        0x0 /home/charles/linux/code/tfa/mp157_alientek/tf-a-stm32mp-2.2.r1-r0/tf-a-stm32mp-2.2.r1/../build/optee/bl2/stm32_qspi.o
 .note.GNU-stack
                0x0000000000000000        0x0 /home/charles/linux/code/tfa/mp157_alientek/tf-a-stm32mp-2.2.r1-r0/tf-a-stm32mp-2.2.r1/../build/optee/bl2/core.o
 .note.GNU-stack
                0x0000000000000000        0x0 /home/charles/linux/code/tfa/mp157_alientek/tf-a-stm32mp-2.2.r1-r0/tf-a-stm32mp-2.2.r1/../build/optee/bl2/stm32mp1_boot_device.o
 .note.GNU-stack
                0x0000000000000000        0x0 /home/charles/linux/code/tfa/mp157_alientek/tf-a-stm32mp-2.2.r1-r0/tf-a-stm32mp-2.2.r1/../build/optee/bl2/stm32mp1_ddr.o
 .note.GNU-stack
                0x0000000000000000        0x0 /home/charles/linux/code/tfa/mp157_alientek/tf-a-stm32mp-2.2.r1-r0/tf-a-stm32mp-2.2.r1/../build/optee/bl2/stm32mp1_ram.o
 .note.GNU-stack
                0x0000000000000000        0x0 /home/charles/linux/code/tfa/mp157_alientek/tf-a-stm32mp-2.2.r1-r0/tf-a-stm32mp-2.2.r1/../build/optee/bl2/desc_image_load.o
 .note.GNU-stack
                0x0000000000000000        0x0 /home/charles/linux/code/tfa/mp157_alientek/tf-a-stm32mp-2.2.r1-r0/tf-a-stm32mp-2.2.r1/../build/optee/bl2/plat_bl2_mem_params_desc.o
 .note.GNU-stack
                0x0000000000000000        0x0 /home/charles/linux/code/tfa/mp157_alientek/tf-a-stm32mp-2.2.r1-r0/tf-a-stm32mp-2.2.r1/../build/optee/bl2/plat_image_load.o
 .note.GNU-stack
                0x0000000000000000        0x0 /home/charles/linux/code/tfa/mp157_alientek/tf-a-stm32mp-2.2.r1-r0/tf-a-stm32mp-2.2.r1/../build/optee/bl2/optee_utils.o
 .note.GNU-stack
                0x0000000000000000        0x0 /home/charles/linux/code/tfa/mp157_alientek/tf-a-stm32mp-2.2.r1-r0/tf-a-stm32mp-2.2.r1/../build/optee/bl2/bl2_image_load_v2.o
 .note.GNU-stack
                0x0000000000000000        0x0 /home/charles/linux/code/tfa/mp157_alientek/tf-a-stm32mp-2.2.r1-r0/tf-a-stm32mp-2.2.r1/../build/optee/bl2/bl2_main.o
 .note.GNU-stack
                0x0000000000000000        0x0 /home/charles/linux/code/tfa/mp157_alientek/tf-a-stm32mp-2.2.r1-r0/tf-a-stm32mp-2.2.r1/../build/optee/bl2/bl2_arch_setup.o
 .note.GNU-stack
                0x0000000000000000        0x0 /home/charles/linux/code/tfa/mp157_alientek/tf-a-stm32mp-2.2.r1-r0/tf-a-stm32mp-2.2.r1/../build/optee/bl2/bl_common.o
 .note.GNU-stack
                0x0000000000000000        0x0 /home/charles/linux/code/tfa/mp157_alientek/tf-a-stm32mp-2.2.r1-r0/tf-a-stm32mp-2.2.r1/../build/optee/bl2/tf_log.o
 .note.GNU-stack
                0x0000000000000000        0x0 /home/charles/linux/code/tfa/mp157_alientek/tf-a-stm32mp-2.2.r1-r0/tf-a-stm32mp-2.2.r1/../build/optee/bl2/multi_console.o
 .note.GNU-stack
                0x0000000000000000        0x0 /home/charles/linux/code/tfa/mp157_alientek/tf-a-stm32mp-2.2.r1-r0/tf-a-stm32mp-2.2.r1/../build/optee/bl2/plat_bl_common.o
 .note.GNU-stack
                0x0000000000000000        0x0 /home/charles/linux/code/tfa/mp157_alientek/tf-a-stm32mp-2.2.r1-r0/tf-a-stm32mp-2.2.r1/../build/optee/bl2/plat_log_common.o
 .note.GNU-stack
                0x0000000000000000        0x0 /home/charles/linux/code/tfa/mp157_alientek/tf-a-stm32mp-2.2.r1-r0/tf-a-stm32mp-2.2.r1/../build/optee/bl2/popcountsi2.o
 .note.GNU-stack
                0x0000000000000000        0x0 /home/charles/linux/code/tfa/mp157_alientek/tf-a-stm32mp-2.2.r1-r0/tf-a-stm32mp-2.2.r1/../build/optee/bl2/ctzdi2.o
 .note.GNU-stack
                0x0000000000000000        0x0 /home/charles/linux/code/tfa/mp157_alientek/tf-a-stm32mp-2.2.r1-r0/tf-a-stm32mp-2.2.r1/../build/optee/bl2/udivmoddi4.o
 .note.GNU-stack
                0x0000000000000000        0x0 /home/charles/linux/code/tfa/mp157_alientek/tf-a-stm32mp-2.2.r1-r0/tf-a-stm32mp-2.2.r1/../build/optee/bl2/stm32mp_common.o
 .note.GNU-stack
                0x0000000000000000        0x0 /home/charles/linux/code/tfa/mp157_alientek/tf-a-stm32mp-2.2.r1-r0/tf-a-stm32mp-2.2.r1/../build/optee/bl2/stm32mp1_private.o
 .note.GNU-stack
                0x0000000000000000        0x0 /home/charles/linux/code/tfa/mp157_alientek/tf-a-stm32mp-2.2.r1-r0/tf-a-stm32mp-2.2.r1/../build/optee/bl2/xlat_tables_arch.o
 .note.GNU-stack
                0x0000000000000000        0x0 /home/charles/linux/code/tfa/mp157_alientek/tf-a-stm32mp-2.2.r1-r0/tf-a-stm32mp-2.2.r1/../build/optee/bl2/xlat_tables_context.o
 .note.GNU-stack
                0x0000000000000000        0x0 /home/charles/linux/code/tfa/mp157_alientek/tf-a-stm32mp-2.2.r1-r0/tf-a-stm32mp-2.2.r1/../build/optee/bl2/xlat_tables_core.o
 .note.GNU-stack
                0x0000000000000000        0x0 /home/charles/linux/code/tfa/mp157_alientek/tf-a-stm32mp-2.2.r1-r0/tf-a-stm32mp-2.2.r1/../build/optee/bl2/xlat_tables_utils.o
 .note.GNU-stack
                0x0000000000000000        0x0 /home/charles/linux/code/tfa/mp157_alientek/tf-a-stm32mp-2.2.r1-r0/tf-a-stm32mp-2.2.r1/../build/optee/bl2/tzc400.o
 .note.GNU-stack
                0x0000000000000000        0x0 /home/charles/linux/code/tfa/mp157_alientek/tf-a-stm32mp-2.2.r1-r0/tf-a-stm32mp-2.2.r1/../build/optee/bl2/delay_timer.o
 .note.GNU-stack
                0x0000000000000000        0x0 /home/charles/linux/code/tfa/mp157_alientek/tf-a-stm32mp-2.2.r1-r0/tf-a-stm32mp-2.2.r1/../build/optee/bl2/generic_delay_timer.o
 .note.GNU-stack
                0x0000000000000000        0x0 /home/charles/linux/code/tfa/mp157_alientek/tf-a-stm32mp-2.2.r1-r0/tf-a-stm32mp-2.2.r1/../build/optee/bl2/bsec2.o
 .note.GNU-stack
                0x0000000000000000        0x0 /home/charles/linux/code/tfa/mp157_alientek/tf-a-stm32mp-2.2.r1-r0/tf-a-stm32mp-2.2.r1/../build/optee/bl2/stm32mp_clkfunc.o
 .note.GNU-stack
                0x0000000000000000        0x0 /home/charles/linux/code/tfa/mp157_alientek/tf-a-stm32mp-2.2.r1-r0/tf-a-stm32mp-2.2.r1/../build/optee/bl2/stm32mp1_clk.o
 .note.GNU-stack
                0x0000000000000000        0x0 /home/charles/linux/code/tfa/mp157_alientek/tf-a-stm32mp-2.2.r1-r0/tf-a-stm32mp-2.2.r1/../build/optee/bl2/stm32mp1_ddr_helpers.o
 .note.GNU-stack
                0x0000000000000000        0x0 /home/charles/linux/code/tfa/mp157_alientek/tf-a-stm32mp-2.2.r1-r0/tf-a-stm32mp-2.2.r1/../build/optee/bl2/stm32_gpio.o
 .note.GNU-stack
                0x0000000000000000        0x0 /home/charles/linux/code/tfa/mp157_alientek/tf-a-stm32mp-2.2.r1-r0/tf-a-stm32mp-2.2.r1/../build/optee/bl2/stm32_i2c.o
 .note.GNU-stack
                0x0000000000000000        0x0 /home/charles/linux/code/tfa/mp157_alientek/tf-a-stm32mp-2.2.r1-r0/tf-a-stm32mp-2.2.r1/../build/optee/bl2/stm32_iwdg.o
 .note.GNU-stack
                0x0000000000000000        0x0 /home/charles/linux/code/tfa/mp157_alientek/tf-a-stm32mp-2.2.r1-r0/tf-a-stm32mp-2.2.r1/../build/optee/bl2/stm32mp_pmic.o
 .note.GNU-stack
                0x0000000000000000        0x0 /home/charles/linux/code/tfa/mp157_alientek/tf-a-stm32mp-2.2.r1-r0/tf-a-stm32mp-2.2.r1/../build/optee/bl2/stpmic1.o
 .note.GNU-stack
                0x0000000000000000        0x0 /home/charles/linux/code/tfa/mp157_alientek/tf-a-stm32mp-2.2.r1-r0/tf-a-stm32mp-2.2.r1/../build/optee/bl2/stm32mp_dummy_regulator.o
 .note.GNU-stack
                0x0000000000000000        0x0 /home/charles/linux/code/tfa/mp157_alientek/tf-a-stm32mp-2.2.r1-r0/tf-a-stm32mp-2.2.r1/../build/optee/bl2/stm32mp_regulator.o
 .note.GNU-stack
                0x0000000000000000        0x0 /home/charles/linux/code/tfa/mp157_alientek/tf-a-stm32mp-2.2.r1-r0/tf-a-stm32mp-2.2.r1/../build/optee/bl2/stm32mp1_reset.o
 .note.GNU-stack
                0x0000000000000000        0x0 /home/charles/linux/code/tfa/mp157_alientek/tf-a-stm32mp-2.2.r1-r0/tf-a-stm32mp-2.2.r1/../build/optee/bl2/stm32mp_dt.o
 .note.GNU-stack
                0x0000000000000000        0x0 /home/charles/linux/code/tfa/mp157_alientek/tf-a-stm32mp-2.2.r1-r0/tf-a-stm32mp-2.2.r1/../build/optee/bl2/stm32mp_shres_helpers.o
 .note.GNU-stack
                0x0000000000000000        0x0 /home/charles/linux/code/tfa/mp157_alientek/tf-a-stm32mp-2.2.r1-r0/tf-a-stm32mp-2.2.r1/../build/optee/bl2/stm32mp1_context.o
 .note.GNU-stack
                0x0000000000000000        0x0 /home/charles/linux/code/tfa/mp157_alientek/tf-a-stm32mp-2.2.r1-r0/tf-a-stm32mp-2.2.r1/../build/optee/bl2/stm32mp1_dbgmcu.o
 .note.GNU-stack
                0x0000000000000000        0x0 /home/charles/linux/code/tfa/mp157_alientek/tf-a-stm32mp-2.2.r1-r0/tf-a-stm32mp-2.2.r1/../build/optee/bl2/stm32mp1_security.o
 .note.GNU-stack
                0x0000000000000000        0x0 /home/charles/linux/code/tfa/mp157_alientek/tf-a-stm32mp-2.2.r1-r0/tf-a-stm32mp-2.2.r1/../build/optee/bl2/stm32mp1_syscfg.o
 .note.GNU-stack
                0x0000000000000000        0x0 /home/charles/linux/code/tfa/mp157_alientek/tf-a-stm32mp-2.2.r1-r0/tf-a-stm32mp-2.2.r1/../build/optee/lib/libfdt.a(fdt.o)
 .note.GNU-stack
                0x0000000000000000        0x0 /home/charles/linux/code/tfa/mp157_alientek/tf-a-stm32mp-2.2.r1-r0/tf-a-stm32mp-2.2.r1/../build/optee/lib/libfdt.a(fdt_addresses.o)
 .note.GNU-stack
                0x0000000000000000        0x0 /home/charles/linux/code/tfa/mp157_alientek/tf-a-stm32mp-2.2.r1-r0/tf-a-stm32mp-2.2.r1/../build/optee/lib/libfdt.a(fdt_ro.o)
 .note.GNU-stack
                0x0000000000000000        0x0 /home/charles/linux/code/tfa/mp157_alientek/tf-a-stm32mp-2.2.r1-r0/tf-a-stm32mp-2.2.r1/../build/optee/lib/libc.a(assert.o)
 .note.GNU-stack
                0x0000000000000000        0x0 /home/charles/linux/code/tfa/mp157_alientek/tf-a-stm32mp-2.2.r1-r0/tf-a-stm32mp-2.2.r1/../build/optee/lib/libc.a(memchr.o)
 .note.GNU-stack
                0x0000000000000000        0x0 /home/charles/linux/code/tfa/mp157_alientek/tf-a-stm32mp-2.2.r1-r0/tf-a-stm32mp-2.2.r1/../build/optee/lib/libc.a(memcmp.o)
 .note.GNU-stack
                0x0000000000000000        0x0 /home/charles/linux/code/tfa/mp157_alientek/tf-a-stm32mp-2.2.r1-r0/tf-a-stm32mp-2.2.r1/../build/optee/lib/libc.a(memcpy.o)
 .note.GNU-stack
                0x0000000000000000        0x0 /home/charles/linux/code/tfa/mp157_alientek/tf-a-stm32mp-2.2.r1-r0/tf-a-stm32mp-2.2.r1/../build/optee/lib/libc.a(memmove.o)
 .note.GNU-stack
                0x0000000000000000        0x0 /home/charles/linux/code/tfa/mp157_alientek/tf-a-stm32mp-2.2.r1-r0/tf-a-stm32mp-2.2.r1/../build/optee/lib/libc.a(memset.o)
 .note.GNU-stack
                0x0000000000000000        0x0 /home/charles/linux/code/tfa/mp157_alientek/tf-a-stm32mp-2.2.r1-r0/tf-a-stm32mp-2.2.r1/../build/optee/lib/libc.a(printf.o)
 .note.GNU-stack
                0x0000000000000000        0x0 /home/charles/linux/code/tfa/mp157_alientek/tf-a-stm32mp-2.2.r1-r0/tf-a-stm32mp-2.2.r1/../build/optee/lib/libc.a(putchar.o)
 .note.GNU-stack
                0x0000000000000000        0x0 /home/charles/linux/code/tfa/mp157_alientek/tf-a-stm32mp-2.2.r1-r0/tf-a-stm32mp-2.2.r1/../build/optee/lib/libc.a(snprintf.o)
 .note.GNU-stack
                0x0000000000000000        0x0 /home/charles/linux/code/tfa/mp157_alientek/tf-a-stm32mp-2.2.r1-r0/tf-a-stm32mp-2.2.r1/../build/optee/lib/libc.a(strchr.o)
 .note.GNU-stack
                0x0000000000000000        0x0 /home/charles/linux/code/tfa/mp157_alientek/tf-a-stm32mp-2.2.r1-r0/tf-a-stm32mp-2.2.r1/../build/optee/lib/libc.a(strcmp.o)
 .note.GNU-stack
                0x0000000000000000        0x0 /home/charles/linux/code/tfa/mp157_alientek/tf-a-stm32mp-2.2.r1-r0/tf-a-stm32mp-2.2.r1/../build/optee/lib/libc.a(strlen.o)
 .note.GNU-stack
                0x0000000000000000        0x0 /home/charles/linux/code/tfa/mp157_alientek/tf-a-stm32mp-2.2.r1-r0/tf-a-stm32mp-2.2.r1/../build/optee/lib/libc.a(strncmp.o)
 .note.GNU-stack
                0x0000000000000000        0x0 /home/charles/linux/code/tfa/mp157_alientek/tf-a-stm32mp-2.2.r1-r0/tf-a-stm32mp-2.2.r1/../build/optee/lib/libc.a(strnlen.o)
 .note.GNU-stack
                0x0000000000000000        0x0 /home/charles/linux/code/tfa/mp157_alientek/tf-a-stm32mp-2.2.r1-r0/tf-a-stm32mp-2.2.r1/../build/optee/lib/libc.a(strrchr.o)

.ARM.attributes
                0x0000000000000000       0x3b
 .ARM.attributes
                0x0000000000000000       0x3d /home/charles/linux/code/tfa/mp157_alientek/tf-a-stm32mp-2.2.r1-r0/tf-a-stm32mp-2.2.r1/../build/optee/bl2/build_message.o
 .ARM.attributes
                0x000000000000003d       0x33 /home/charles/linux/code/tfa/mp157_alientek/tf-a-stm32mp-2.2.r1-r0/tf-a-stm32mp-2.2.r1/../build/optee/bl2/io_block.o
 .ARM.attributes
                0x0000000000000070       0x33 /home/charles/linux/code/tfa/mp157_alientek/tf-a-stm32mp-2.2.r1-r0/tf-a-stm32mp-2.2.r1/../build/optee/bl2/io_dummy.o
 .ARM.attributes
                0x00000000000000a3       0x33 /home/charles/linux/code/tfa/mp157_alientek/tf-a-stm32mp-2.2.r1-r0/tf-a-stm32mp-2.2.r1/../build/optee/bl2/io_mtd.o
 .ARM.attributes
                0x00000000000000d6       0x33 /home/charles/linux/code/tfa/mp157_alientek/tf-a-stm32mp-2.2.r1-r0/tf-a-stm32mp-2.2.r1/../build/optee/bl2/io_storage.o
 .ARM.attributes
                0x0000000000000109       0x33 /home/charles/linux/code/tfa/mp157_alientek/tf-a-stm32mp-2.2.r1-r0/tf-a-stm32mp-2.2.r1/../build/optee/bl2/stm32_hash.o
 .ARM.attributes
                0x000000000000013c       0x33 /home/charles/linux/code/tfa/mp157_alientek/tf-a-stm32mp-2.2.r1-r0/tf-a-stm32mp-2.2.r1/../build/optee/bl2/io_stm32image.o
 .ARM.attributes
                0x000000000000016f       0x33 /home/charles/linux/code/tfa/mp157_alientek/tf-a-stm32mp-2.2.r1-r0/tf-a-stm32mp-2.2.r1/../build/optee/bl2/bl2_io_storage.o
 .ARM.attributes
                0x00000000000001a2       0x33 /home/charles/linux/code/tfa/mp157_alientek/tf-a-stm32mp-2.2.r1-r0/tf-a-stm32mp-2.2.r1/../build/optee/bl2/bl2_plat_setup.o
 .ARM.attributes
                0x00000000000001d5       0x33 /home/charles/linux/code/tfa/mp157_alientek/tf-a-stm32mp-2.2.r1-r0/tf-a-stm32mp-2.2.r1/../build/optee/bl2/auth_mod.o
 .ARM.attributes
                0x0000000000000208       0x33 /home/charles/linux/code/tfa/mp157_alientek/tf-a-stm32mp-2.2.r1-r0/tf-a-stm32mp-2.2.r1/../build/optee/bl2/crypto_mod.o
 .ARM.attributes
                0x000000000000023b       0x33 /home/charles/linux/code/tfa/mp157_alientek/tf-a-stm32mp-2.2.r1-r0/tf-a-stm32mp-2.2.r1/../build/optee/bl2/img_parser_mod.o
 .ARM.attributes
                0x000000000000026e       0x3d /home/charles/linux/code/tfa/mp157_alientek/tf-a-stm32mp-2.2.r1-r0/tf-a-stm32mp-2.2.r1/../build/optee/bl2/stm32mp_cot.o
 .ARM.attributes
                0x00000000000002ab       0x33 /home/charles/linux/code/tfa/mp157_alientek/tf-a-stm32mp-2.2.r1-r0/tf-a-stm32mp-2.2.r1/../build/optee/bl2/stm32mp_crypto_lib.o
 .ARM.attributes
                0x00000000000002de       0x33 /home/charles/linux/code/tfa/mp157_alientek/tf-a-stm32mp-2.2.r1-r0/tf-a-stm32mp-2.2.r1/../build/optee/bl2/stm32mp_img_parser_lib.o
 .ARM.attributes
                0x0000000000000311       0x33 /home/charles/linux/code/tfa/mp157_alientek/tf-a-stm32mp-2.2.r1-r0/tf-a-stm32mp-2.2.r1/../build/optee/bl2/stm32mp_trusted_boot.o
 .ARM.attributes
                0x0000000000000344       0x33 /home/charles/linux/code/tfa/mp157_alientek/tf-a-stm32mp-2.2.r1-r0/tf-a-stm32mp-2.2.r1/../build/optee/bl2/mmc.o
 .ARM.attributes
                0x0000000000000377       0x33 /home/charles/linux/code/tfa/mp157_alientek/tf-a-stm32mp-2.2.r1-r0/tf-a-stm32mp-2.2.r1/../build/optee/bl2/gpt.o
 .ARM.attributes
                0x00000000000003aa       0x33 /home/charles/linux/code/tfa/mp157_alientek/tf-a-stm32mp-2.2.r1-r0/tf-a-stm32mp-2.2.r1/../build/optee/bl2/partition.o
 .ARM.attributes
                0x00000000000003dd       0x33 /home/charles/linux/code/tfa/mp157_alientek/tf-a-stm32mp-2.2.r1-r0/tf-a-stm32mp-2.2.r1/../build/optee/bl2/io_mmc.o
 .ARM.attributes
                0x0000000000000410       0x33 /home/charles/linux/code/tfa/mp157_alientek/tf-a-stm32mp-2.2.r1-r0/tf-a-stm32mp-2.2.r1/../build/optee/bl2/stm32_sdmmc2.o
 .ARM.attributes
                0x0000000000000443       0x33 /home/charles/linux/code/tfa/mp157_alientek/tf-a-stm32mp-2.2.r1-r0/tf-a-stm32mp-2.2.r1/../build/optee/bl2/raw_nand.o
 .ARM.attributes
                0x0000000000000476       0x33 /home/charles/linux/code/tfa/mp157_alientek/tf-a-stm32mp-2.2.r1-r0/tf-a-stm32mp-2.2.r1/../build/optee/bl2/stm32_fmc2_nand.o
 .ARM.attributes
                0x00000000000004a9       0x33 /home/charles/linux/code/tfa/mp157_alientek/tf-a-stm32mp-2.2.r1-r0/tf-a-stm32mp-2.2.r1/../build/optee/bl2/spi_nand.o
 .ARM.attributes
                0x00000000000004dc       0x33 /home/charles/linux/code/tfa/mp157_alientek/tf-a-stm32mp-2.2.r1-r0/tf-a-stm32mp-2.2.r1/../build/optee/bl2/spi_nor.o
 .ARM.attributes
                0x000000000000050f       0x33 /home/charles/linux/code/tfa/mp157_alientek/tf-a-stm32mp-2.2.r1-r0/tf-a-stm32mp-2.2.r1/../build/optee/bl2/spi_mem.o
 .ARM.attributes
                0x0000000000000542       0x33 /home/charles/linux/code/tfa/mp157_alientek/tf-a-stm32mp-2.2.r1-r0/tf-a-stm32mp-2.2.r1/../build/optee/bl2/stm32_qspi.o
 .ARM.attributes
                0x0000000000000575       0x33 /home/charles/linux/code/tfa/mp157_alientek/tf-a-stm32mp-2.2.r1-r0/tf-a-stm32mp-2.2.r1/../build/optee/bl2/core.o
 .ARM.attributes
                0x00000000000005a8       0x33 /home/charles/linux/code/tfa/mp157_alientek/tf-a-stm32mp-2.2.r1-r0/tf-a-stm32mp-2.2.r1/../build/optee/bl2/stm32mp1_boot_device.o
 .ARM.attributes
                0x00000000000005db       0x33 /home/charles/linux/code/tfa/mp157_alientek/tf-a-stm32mp-2.2.r1-r0/tf-a-stm32mp-2.2.r1/../build/optee/bl2/stm32mp1_ddr.o
 .ARM.attributes
                0x000000000000060e       0x33 /home/charles/linux/code/tfa/mp157_alientek/tf-a-stm32mp-2.2.r1-r0/tf-a-stm32mp-2.2.r1/../build/optee/bl2/stm32mp1_ram.o
 .ARM.attributes
                0x0000000000000641       0x33 /home/charles/linux/code/tfa/mp157_alientek/tf-a-stm32mp-2.2.r1-r0/tf-a-stm32mp-2.2.r1/../build/optee/bl2/desc_image_load.o
 .ARM.attributes
                0x0000000000000674       0x3d /home/charles/linux/code/tfa/mp157_alientek/tf-a-stm32mp-2.2.r1-r0/tf-a-stm32mp-2.2.r1/../build/optee/bl2/plat_bl2_mem_params_desc.o
 .ARM.attributes
                0x00000000000006b1       0x33 /home/charles/linux/code/tfa/mp157_alientek/tf-a-stm32mp-2.2.r1-r0/tf-a-stm32mp-2.2.r1/../build/optee/bl2/plat_image_load.o
 .ARM.attributes
                0x00000000000006e4       0x33 /home/charles/linux/code/tfa/mp157_alientek/tf-a-stm32mp-2.2.r1-r0/tf-a-stm32mp-2.2.r1/../build/optee/bl2/optee_utils.o
 .ARM.attributes
                0x0000000000000717       0x33 /home/charles/linux/code/tfa/mp157_alientek/tf-a-stm32mp-2.2.r1-r0/tf-a-stm32mp-2.2.r1/../build/optee/bl2/bl2_image_load_v2.o
 .ARM.attributes
                0x000000000000074a       0x33 /home/charles/linux/code/tfa/mp157_alientek/tf-a-stm32mp-2.2.r1-r0/tf-a-stm32mp-2.2.r1/../build/optee/bl2/bl2_main.o
 .ARM.attributes
                0x000000000000077d       0x33 /home/charles/linux/code/tfa/mp157_alientek/tf-a-stm32mp-2.2.r1-r0/tf-a-stm32mp-2.2.r1/../build/optee/bl2/bl2_arch_setup.o
 .ARM.attributes
                0x00000000000007b0       0x33 /home/charles/linux/code/tfa/mp157_alientek/tf-a-stm32mp-2.2.r1-r0/tf-a-stm32mp-2.2.r1/../build/optee/bl2/bl_common.o
 .ARM.attributes
                0x00000000000007e3       0x33 /home/charles/linux/code/tfa/mp157_alientek/tf-a-stm32mp-2.2.r1-r0/tf-a-stm32mp-2.2.r1/../build/optee/bl2/tf_log.o
 .ARM.attributes
                0x0000000000000816       0x33 /home/charles/linux/code/tfa/mp157_alientek/tf-a-stm32mp-2.2.r1-r0/tf-a-stm32mp-2.2.r1/../build/optee/bl2/multi_console.o
 .ARM.attributes
                0x0000000000000849       0x33 /home/charles/linux/code/tfa/mp157_alientek/tf-a-stm32mp-2.2.r1-r0/tf-a-stm32mp-2.2.r1/../build/optee/bl2/plat_bl_common.o
 .ARM.attributes
                0x000000000000087c       0x33 /home/charles/linux/code/tfa/mp157_alientek/tf-a-stm32mp-2.2.r1-r0/tf-a-stm32mp-2.2.r1/../build/optee/bl2/plat_log_common.o
 .ARM.attributes
                0x00000000000008af       0x33 /home/charles/linux/code/tfa/mp157_alientek/tf-a-stm32mp-2.2.r1-r0/tf-a-stm32mp-2.2.r1/../build/optee/bl2/popcountsi2.o
 .ARM.attributes
                0x00000000000008e2       0x33 /home/charles/linux/code/tfa/mp157_alientek/tf-a-stm32mp-2.2.r1-r0/tf-a-stm32mp-2.2.r1/../build/optee/bl2/ctzdi2.o
 .ARM.attributes
                0x0000000000000915       0x33 /home/charles/linux/code/tfa/mp157_alientek/tf-a-stm32mp-2.2.r1-r0/tf-a-stm32mp-2.2.r1/../build/optee/bl2/udivmoddi4.o
 .ARM.attributes
                0x0000000000000948       0x33 /home/charles/linux/code/tfa/mp157_alientek/tf-a-stm32mp-2.2.r1-r0/tf-a-stm32mp-2.2.r1/../build/optee/bl2/stm32mp_common.o
 .ARM.attributes
                0x000000000000097b       0x33 /home/charles/linux/code/tfa/mp157_alientek/tf-a-stm32mp-2.2.r1-r0/tf-a-stm32mp-2.2.r1/../build/optee/bl2/stm32mp1_private.o
 .ARM.attributes
                0x00000000000009ae       0x33 /home/charles/linux/code/tfa/mp157_alientek/tf-a-stm32mp-2.2.r1-r0/tf-a-stm32mp-2.2.r1/../build/optee/bl2/xlat_tables_arch.o
 .ARM.attributes
                0x00000000000009e1       0x33 /home/charles/linux/code/tfa/mp157_alientek/tf-a-stm32mp-2.2.r1-r0/tf-a-stm32mp-2.2.r1/../build/optee/bl2/xlat_tables_context.o
 .ARM.attributes
                0x0000000000000a14       0x33 /home/charles/linux/code/tfa/mp157_alientek/tf-a-stm32mp-2.2.r1-r0/tf-a-stm32mp-2.2.r1/../build/optee/bl2/xlat_tables_core.o
 .ARM.attributes
                0x0000000000000a47       0x33 /home/charles/linux/code/tfa/mp157_alientek/tf-a-stm32mp-2.2.r1-r0/tf-a-stm32mp-2.2.r1/../build/optee/bl2/xlat_tables_utils.o
 .ARM.attributes
                0x0000000000000a7a       0x33 /home/charles/linux/code/tfa/mp157_alientek/tf-a-stm32mp-2.2.r1-r0/tf-a-stm32mp-2.2.r1/../build/optee/bl2/tzc400.o
 .ARM.attributes
                0x0000000000000aad       0x33 /home/charles/linux/code/tfa/mp157_alientek/tf-a-stm32mp-2.2.r1-r0/tf-a-stm32mp-2.2.r1/../build/optee/bl2/delay_timer.o
 .ARM.attributes
                0x0000000000000ae0       0x33 /home/charles/linux/code/tfa/mp157_alientek/tf-a-stm32mp-2.2.r1-r0/tf-a-stm32mp-2.2.r1/../build/optee/bl2/generic_delay_timer.o
 .ARM.attributes
                0x0000000000000b13       0x33 /home/charles/linux/code/tfa/mp157_alientek/tf-a-stm32mp-2.2.r1-r0/tf-a-stm32mp-2.2.r1/../build/optee/bl2/bsec2.o
 .ARM.attributes
                0x0000000000000b46       0x33 /home/charles/linux/code/tfa/mp157_alientek/tf-a-stm32mp-2.2.r1-r0/tf-a-stm32mp-2.2.r1/../build/optee/bl2/stm32mp_clkfunc.o
 .ARM.attributes
                0x0000000000000b79       0x33 /home/charles/linux/code/tfa/mp157_alientek/tf-a-stm32mp-2.2.r1-r0/tf-a-stm32mp-2.2.r1/../build/optee/bl2/stm32mp1_clk.o
 .ARM.attributes
                0x0000000000000bac       0x33 /home/charles/linux/code/tfa/mp157_alientek/tf-a-stm32mp-2.2.r1-r0/tf-a-stm32mp-2.2.r1/../build/optee/bl2/stm32mp1_ddr_helpers.o
 .ARM.attributes
                0x0000000000000bdf       0x33 /home/charles/linux/code/tfa/mp157_alientek/tf-a-stm32mp-2.2.r1-r0/tf-a-stm32mp-2.2.r1/../build/optee/bl2/stm32_gpio.o
 .ARM.attributes
                0x0000000000000c12       0x33 /home/charles/linux/code/tfa/mp157_alientek/tf-a-stm32mp-2.2.r1-r0/tf-a-stm32mp-2.2.r1/../build/optee/bl2/stm32_i2c.o
 .ARM.attributes
                0x0000000000000c45       0x33 /home/charles/linux/code/tfa/mp157_alientek/tf-a-stm32mp-2.2.r1-r0/tf-a-stm32mp-2.2.r1/../build/optee/bl2/stm32_iwdg.o
 .ARM.attributes
                0x0000000000000c78       0x33 /home/charles/linux/code/tfa/mp157_alientek/tf-a-stm32mp-2.2.r1-r0/tf-a-stm32mp-2.2.r1/../build/optee/bl2/stm32mp_pmic.o
 .ARM.attributes
                0x0000000000000cab       0x33 /home/charles/linux/code/tfa/mp157_alientek/tf-a-stm32mp-2.2.r1-r0/tf-a-stm32mp-2.2.r1/../build/optee/bl2/stpmic1.o
 .ARM.attributes
                0x0000000000000cde       0x33 /home/charles/linux/code/tfa/mp157_alientek/tf-a-stm32mp-2.2.r1-r0/tf-a-stm32mp-2.2.r1/../build/optee/bl2/stm32mp_dummy_regulator.o
 .ARM.attributes
                0x0000000000000d11       0x33 /home/charles/linux/code/tfa/mp157_alientek/tf-a-stm32mp-2.2.r1-r0/tf-a-stm32mp-2.2.r1/../build/optee/bl2/stm32mp_regulator.o
 .ARM.attributes
                0x0000000000000d44       0x33 /home/charles/linux/code/tfa/mp157_alientek/tf-a-stm32mp-2.2.r1-r0/tf-a-stm32mp-2.2.r1/../build/optee/bl2/stm32mp1_reset.o
 .ARM.attributes
                0x0000000000000d77       0x33 /home/charles/linux/code/tfa/mp157_alientek/tf-a-stm32mp-2.2.r1-r0/tf-a-stm32mp-2.2.r1/../build/optee/bl2/stm32mp_dt.o
 .ARM.attributes
                0x0000000000000daa       0x33 /home/charles/linux/code/tfa/mp157_alientek/tf-a-stm32mp-2.2.r1-r0/tf-a-stm32mp-2.2.r1/../build/optee/bl2/stm32mp_shres_helpers.o
 .ARM.attributes
                0x0000000000000ddd       0x33 /home/charles/linux/code/tfa/mp157_alientek/tf-a-stm32mp-2.2.r1-r0/tf-a-stm32mp-2.2.r1/../build/optee/bl2/stm32mp1_context.o
 .ARM.attributes
                0x0000000000000e10       0x33 /home/charles/linux/code/tfa/mp157_alientek/tf-a-stm32mp-2.2.r1-r0/tf-a-stm32mp-2.2.r1/../build/optee/bl2/stm32mp1_dbgmcu.o
 .ARM.attributes
                0x0000000000000e43       0x33 /home/charles/linux/code/tfa/mp157_alientek/tf-a-stm32mp-2.2.r1-r0/tf-a-stm32mp-2.2.r1/../build/optee/bl2/stm32mp1_security.o
 .ARM.attributes
                0x0000000000000e76       0x33 /home/charles/linux/code/tfa/mp157_alientek/tf-a-stm32mp-2.2.r1-r0/tf-a-stm32mp-2.2.r1/../build/optee/bl2/stm32mp1_syscfg.o
 .ARM.attributes
                0x0000000000000ea9       0x27 /home/charles/linux/code/tfa/mp157_alientek/tf-a-stm32mp-2.2.r1-r0/tf-a-stm32mp-2.2.r1/../build/optee/bl2/spinlock.o
 .ARM.attributes
                0x0000000000000ed0       0x27 /home/charles/linux/code/tfa/mp157_alientek/tf-a-stm32mp-2.2.r1-r0/tf-a-stm32mp-2.2.r1/../build/optee/bl2/platform_up_stack.o
 .ARM.attributes
                0x0000000000000ef7       0x27 /home/charles/linux/code/tfa/mp157_alientek/tf-a-stm32mp-2.2.r1-r0/tf-a-stm32mp-2.2.r1/../build/optee/bl2/bl2_el3_entrypoint.o
 .ARM.attributes
                0x0000000000000f1e       0x27 /home/charles/linux/code/tfa/mp157_alientek/tf-a-stm32mp-2.2.r1-r0/tf-a-stm32mp-2.2.r1/../build/optee/bl2/bl2_el3_exceptions.o
 .ARM.attributes
                0x0000000000000f45       0x27 /home/charles/linux/code/tfa/mp157_alientek/tf-a-stm32mp-2.2.r1-r0/tf-a-stm32mp-2.2.r1/../build/optee/bl2/cpu_helpers.o
 .ARM.attributes
                0x0000000000000f6c       0x27 /home/charles/linux/code/tfa/mp157_alientek/tf-a-stm32mp-2.2.r1-r0/tf-a-stm32mp-2.2.r1/../build/optee/bl2/debug.o
 .ARM.attributes
                0x0000000000000f93       0x27 /home/charles/linux/code/tfa/mp157_alientek/tf-a-stm32mp-2.2.r1-r0/tf-a-stm32mp-2.2.r1/../build/optee/bl2/cache_helpers.o
 .ARM.attributes
                0x0000000000000fba       0x27 /home/charles/linux/code/tfa/mp157_alientek/tf-a-stm32mp-2.2.r1-r0/tf-a-stm32mp-2.2.r1/../build/optee/bl2/misc_helpers.o
 .ARM.attributes
                0x0000000000000fe1       0x27 /home/charles/linux/code/tfa/mp157_alientek/tf-a-stm32mp-2.2.r1-r0/tf-a-stm32mp-2.2.r1/../build/optee/bl2/aeabi_uldivmod.o
 .ARM.attributes
                0x0000000000001008       0x27 /home/charles/linux/code/tfa/mp157_alientek/tf-a-stm32mp-2.2.r1-r0/tf-a-stm32mp-2.2.r1/../build/optee/bl2/stm32_console.o
 .ARM.attributes
                0x000000000000102f       0x27 /home/charles/linux/code/tfa/mp157_alientek/tf-a-stm32mp-2.2.r1-r0/tf-a-stm32mp-2.2.r1/../build/optee/bl2/enable_mmu.o
 .ARM.attributes
                0x0000000000001056       0x27 /home/charles/linux/code/tfa/mp157_alientek/tf-a-stm32mp-2.2.r1-r0/tf-a-stm32mp-2.2.r1/../build/optee/bl2/cortex_a7.o
 .ARM.attributes
                0x000000000000107d       0x27 /home/charles/linux/code/tfa/mp157_alientek/tf-a-stm32mp-2.2.r1-r0/tf-a-stm32mp-2.2.r1/../build/optee/bl2/stm32mp1_helper.o
 .ARM.attributes
                0x00000000000010a4       0x33 /home/charles/linux/code/tfa/mp157_alientek/tf-a-stm32mp-2.2.r1-r0/tf-a-stm32mp-2.2.r1/../build/optee/lib/libfdt.a(fdt.o)
 .ARM.attributes
                0x00000000000010d7       0x33 /home/charles/linux/code/tfa/mp157_alientek/tf-a-stm32mp-2.2.r1-r0/tf-a-stm32mp-2.2.r1/../build/optee/lib/libfdt.a(fdt_addresses.o)
 .ARM.attributes
                0x000000000000110a       0x33 /home/charles/linux/code/tfa/mp157_alientek/tf-a-stm32mp-2.2.r1-r0/tf-a-stm32mp-2.2.r1/../build/optee/lib/libfdt.a(fdt_ro.o)
 .ARM.attributes
                0x000000000000113d       0x33 /home/charles/linux/code/tfa/mp157_alientek/tf-a-stm32mp-2.2.r1-r0/tf-a-stm32mp-2.2.r1/../build/optee/lib/libc.a(assert.o)
 .ARM.attributes
                0x0000000000001170       0x33 /home/charles/linux/code/tfa/mp157_alientek/tf-a-stm32mp-2.2.r1-r0/tf-a-stm32mp-2.2.r1/../build/optee/lib/libc.a(memchr.o)
 .ARM.attributes
                0x00000000000011a3       0x33 /home/charles/linux/code/tfa/mp157_alientek/tf-a-stm32mp-2.2.r1-r0/tf-a-stm32mp-2.2.r1/../build/optee/lib/libc.a(memcmp.o)
 .ARM.attributes
                0x00000000000011d6       0x33 /home/charles/linux/code/tfa/mp157_alientek/tf-a-stm32mp-2.2.r1-r0/tf-a-stm32mp-2.2.r1/../build/optee/lib/libc.a(memcpy.o)
 .ARM.attributes
                0x0000000000001209       0x33 /home/charles/linux/code/tfa/mp157_alientek/tf-a-stm32mp-2.2.r1-r0/tf-a-stm32mp-2.2.r1/../build/optee/lib/libc.a(memmove.o)
 .ARM.attributes
                0x000000000000123c       0x33 /home/charles/linux/code/tfa/mp157_alientek/tf-a-stm32mp-2.2.r1-r0/tf-a-stm32mp-2.2.r1/../build/optee/lib/libc.a(memset.o)
 .ARM.attributes
                0x000000000000126f       0x33 /home/charles/linux/code/tfa/mp157_alientek/tf-a-stm32mp-2.2.r1-r0/tf-a-stm32mp-2.2.r1/../build/optee/lib/libc.a(printf.o)
 .ARM.attributes
                0x00000000000012a2       0x33 /home/charles/linux/code/tfa/mp157_alientek/tf-a-stm32mp-2.2.r1-r0/tf-a-stm32mp-2.2.r1/../build/optee/lib/libc.a(putchar.o)
 .ARM.attributes
                0x00000000000012d5       0x33 /home/charles/linux/code/tfa/mp157_alientek/tf-a-stm32mp-2.2.r1-r0/tf-a-stm32mp-2.2.r1/../build/optee/lib/libc.a(snprintf.o)
 .ARM.attributes
                0x0000000000001308       0x33 /home/charles/linux/code/tfa/mp157_alientek/tf-a-stm32mp-2.2.r1-r0/tf-a-stm32mp-2.2.r1/../build/optee/lib/libc.a(strchr.o)
 .ARM.attributes
                0x000000000000133b       0x33 /home/charles/linux/code/tfa/mp157_alientek/tf-a-stm32mp-2.2.r1-r0/tf-a-stm32mp-2.2.r1/../build/optee/lib/libc.a(strcmp.o)
 .ARM.attributes
                0x000000000000136e       0x33 /home/charles/linux/code/tfa/mp157_alientek/tf-a-stm32mp-2.2.r1-r0/tf-a-stm32mp-2.2.r1/../build/optee/lib/libc.a(strlen.o)
 .ARM.attributes
                0x00000000000013a1       0x33 /home/charles/linux/code/tfa/mp157_alientek/tf-a-stm32mp-2.2.r1-r0/tf-a-stm32mp-2.2.r1/../build/optee/lib/libc.a(strncmp.o)
 .ARM.attributes
                0x00000000000013d4       0x33 /home/charles/linux/code/tfa/mp157_alientek/tf-a-stm32mp-2.2.r1-r0/tf-a-stm32mp-2.2.r1/../build/optee/lib/libc.a(strnlen.o)
 .ARM.attributes
                0x0000000000001407       0x33 /home/charles/linux/code/tfa/mp157_alientek/tf-a-stm32mp-2.2.r1-r0/tf-a-stm32mp-2.2.r1/../build/optee/lib/libc.a(strrchr.o)

.debug_loc      0x0000000000000000    0x2e8d6
 .debug_loc     0x0000000000000000      0xd79 /home/charles/linux/code/tfa/mp157_alientek/tf-a-stm32mp-2.2.r1-r0/tf-a-stm32mp-2.2.r1/../build/optee/bl2/io_block.o
 .debug_loc     0x0000000000000d79      0x5b6 /home/charles/linux/code/tfa/mp157_alientek/tf-a-stm32mp-2.2.r1-r0/tf-a-stm32mp-2.2.r1/../build/optee/bl2/io_dummy.o
 .debug_loc     0x000000000000132f      0x89c /home/charles/linux/code/tfa/mp157_alientek/tf-a-stm32mp-2.2.r1-r0/tf-a-stm32mp-2.2.r1/../build/optee/bl2/io_mtd.o
 .debug_loc     0x0000000000001bcb     0x101a /home/charles/linux/code/tfa/mp157_alientek/tf-a-stm32mp-2.2.r1-r0/tf-a-stm32mp-2.2.r1/../build/optee/bl2/io_storage.o
 .debug_loc     0x0000000000002be5      0xa93 /home/charles/linux/code/tfa/mp157_alientek/tf-a-stm32mp-2.2.r1-r0/tf-a-stm32mp-2.2.r1/../build/optee/bl2/stm32_hash.o
 .debug_loc     0x0000000000003678      0x795 /home/charles/linux/code/tfa/mp157_alientek/tf-a-stm32mp-2.2.r1-r0/tf-a-stm32mp-2.2.r1/../build/optee/bl2/io_stm32image.o
 .debug_loc     0x0000000000003e0d      0x80e /home/charles/linux/code/tfa/mp157_alientek/tf-a-stm32mp-2.2.r1-r0/tf-a-stm32mp-2.2.r1/../build/optee/bl2/bl2_io_storage.o
 .debug_loc     0x000000000000461b      0x921 /home/charles/linux/code/tfa/mp157_alientek/tf-a-stm32mp-2.2.r1-r0/tf-a-stm32mp-2.2.r1/../build/optee/bl2/bl2_plat_setup.o
 .debug_loc     0x0000000000004f3c      0x64f /home/charles/linux/code/tfa/mp157_alientek/tf-a-stm32mp-2.2.r1-r0/tf-a-stm32mp-2.2.r1/../build/optee/bl2/auth_mod.o
 .debug_loc     0x000000000000558b      0x3c2 /home/charles/linux/code/tfa/mp157_alientek/tf-a-stm32mp-2.2.r1-r0/tf-a-stm32mp-2.2.r1/../build/optee/bl2/crypto_mod.o
 .debug_loc     0x000000000000594d      0x460 /home/charles/linux/code/tfa/mp157_alientek/tf-a-stm32mp-2.2.r1-r0/tf-a-stm32mp-2.2.r1/../build/optee/bl2/img_parser_mod.o
 .debug_loc     0x0000000000005dad      0x39d /home/charles/linux/code/tfa/mp157_alientek/tf-a-stm32mp-2.2.r1-r0/tf-a-stm32mp-2.2.r1/../build/optee/bl2/stm32mp_crypto_lib.o
 .debug_loc     0x000000000000614a      0x19b /home/charles/linux/code/tfa/mp157_alientek/tf-a-stm32mp-2.2.r1-r0/tf-a-stm32mp-2.2.r1/../build/optee/bl2/stm32mp_img_parser_lib.o
 .debug_loc     0x00000000000062e5      0x1d7 /home/charles/linux/code/tfa/mp157_alientek/tf-a-stm32mp-2.2.r1-r0/tf-a-stm32mp-2.2.r1/../build/optee/bl2/stm32mp_trusted_boot.o
 .debug_loc     0x00000000000064bc     0x117b /home/charles/linux/code/tfa/mp157_alientek/tf-a-stm32mp-2.2.r1-r0/tf-a-stm32mp-2.2.r1/../build/optee/bl2/mmc.o
 .debug_loc     0x0000000000007637      0x15e /home/charles/linux/code/tfa/mp157_alientek/tf-a-stm32mp-2.2.r1-r0/tf-a-stm32mp-2.2.r1/../build/optee/bl2/gpt.o
 .debug_loc     0x0000000000007795      0x506 /home/charles/linux/code/tfa/mp157_alientek/tf-a-stm32mp-2.2.r1-r0/tf-a-stm32mp-2.2.r1/../build/optee/bl2/partition.o
 .debug_loc     0x0000000000007c9b      0x2b9 /home/charles/linux/code/tfa/mp157_alientek/tf-a-stm32mp-2.2.r1-r0/tf-a-stm32mp-2.2.r1/../build/optee/bl2/io_mmc.o
 .debug_loc     0x0000000000007f54     0x1709 /home/charles/linux/code/tfa/mp157_alientek/tf-a-stm32mp-2.2.r1-r0/tf-a-stm32mp-2.2.r1/../build/optee/bl2/stm32_sdmmc2.o
 .debug_loc     0x000000000000965d      0xac2 /home/charles/linux/code/tfa/mp157_alientek/tf-a-stm32mp-2.2.r1-r0/tf-a-stm32mp-2.2.r1/../build/optee/bl2/raw_nand.o
 .debug_loc     0x000000000000a11f     0x2151 /home/charles/linux/code/tfa/mp157_alientek/tf-a-stm32mp-2.2.r1-r0/tf-a-stm32mp-2.2.r1/../build/optee/bl2/stm32_fmc2_nand.o
 .debug_loc     0x000000000000c270      0x9ed /home/charles/linux/code/tfa/mp157_alientek/tf-a-stm32mp-2.2.r1-r0/tf-a-stm32mp-2.2.r1/../build/optee/bl2/spi_nand.o
 .debug_loc     0x000000000000cc5d      0x634 /home/charles/linux/code/tfa/mp157_alientek/tf-a-stm32mp-2.2.r1-r0/tf-a-stm32mp-2.2.r1/../build/optee/bl2/spi_nor.o
 .debug_loc     0x000000000000d291      0x472 /home/charles/linux/code/tfa/mp157_alientek/tf-a-stm32mp-2.2.r1-r0/tf-a-stm32mp-2.2.r1/../build/optee/bl2/spi_mem.o
 .debug_loc     0x000000000000d703      0xf7e /home/charles/linux/code/tfa/mp157_alientek/tf-a-stm32mp-2.2.r1-r0/tf-a-stm32mp-2.2.r1/../build/optee/bl2/stm32_qspi.o
 .debug_loc     0x000000000000e681      0x353 /home/charles/linux/code/tfa/mp157_alientek/tf-a-stm32mp-2.2.r1-r0/tf-a-stm32mp-2.2.r1/../build/optee/bl2/core.o
 .debug_loc     0x000000000000e9d4       0xc0 /home/charles/linux/code/tfa/mp157_alientek/tf-a-stm32mp-2.2.r1-r0/tf-a-stm32mp-2.2.r1/../build/optee/bl2/stm32mp1_boot_device.o
 .debug_loc     0x000000000000ea94     0x2813 /home/charles/linux/code/tfa/mp157_alientek/tf-a-stm32mp-2.2.r1-r0/tf-a-stm32mp-2.2.r1/../build/optee/bl2/stm32mp1_ddr.o
 .debug_loc     0x00000000000112a7      0x831 /home/charles/linux/code/tfa/mp157_alientek/tf-a-stm32mp-2.2.r1-r0/tf-a-stm32mp-2.2.r1/../build/optee/bl2/stm32mp1_ram.o
 .debug_loc     0x0000000000011ad8      0x8ad /home/charles/linux/code/tfa/mp157_alientek/tf-a-stm32mp-2.2.r1-r0/tf-a-stm32mp-2.2.r1/../build/optee/bl2/desc_image_load.o
 .debug_loc     0x0000000000012385       0xee /home/charles/linux/code/tfa/mp157_alientek/tf-a-stm32mp-2.2.r1-r0/tf-a-stm32mp-2.2.r1/../build/optee/bl2/plat_image_load.o
 .debug_loc     0x0000000000012473      0x344 /home/charles/linux/code/tfa/mp157_alientek/tf-a-stm32mp-2.2.r1-r0/tf-a-stm32mp-2.2.r1/../build/optee/bl2/optee_utils.o
 .debug_loc     0x00000000000127b7      0x156 /home/charles/linux/code/tfa/mp157_alientek/tf-a-stm32mp-2.2.r1-r0/tf-a-stm32mp-2.2.r1/../build/optee/bl2/bl2_image_load_v2.o
 .debug_loc     0x000000000001290d       0xc3 /home/charles/linux/code/tfa/mp157_alientek/tf-a-stm32mp-2.2.r1-r0/tf-a-stm32mp-2.2.r1/../build/optee/bl2/bl2_main.o
 .debug_loc     0x00000000000129d0      0x3cb /home/charles/linux/code/tfa/mp157_alientek/tf-a-stm32mp-2.2.r1-r0/tf-a-stm32mp-2.2.r1/../build/optee/bl2/bl_common.o
 .debug_loc     0x0000000000012d9b       0xb5 /home/charles/linux/code/tfa/mp157_alientek/tf-a-stm32mp-2.2.r1-r0/tf-a-stm32mp-2.2.r1/../build/optee/bl2/tf_log.o
 .debug_loc     0x0000000000012e50      0x331 /home/charles/linux/code/tfa/mp157_alientek/tf-a-stm32mp-2.2.r1-r0/tf-a-stm32mp-2.2.r1/../build/optee/bl2/multi_console.o
 .debug_loc     0x0000000000013181       0x91 /home/charles/linux/code/tfa/mp157_alientek/tf-a-stm32mp-2.2.r1-r0/tf-a-stm32mp-2.2.r1/../build/optee/bl2/plat_bl_common.o
 .debug_loc     0x0000000000013212       0x96 /home/charles/linux/code/tfa/mp157_alientek/tf-a-stm32mp-2.2.r1-r0/tf-a-stm32mp-2.2.r1/../build/optee/bl2/plat_log_common.o
 .debug_loc     0x00000000000132a8      0x12e /home/charles/linux/code/tfa/mp157_alientek/tf-a-stm32mp-2.2.r1-r0/tf-a-stm32mp-2.2.r1/../build/optee/bl2/popcountsi2.o
 .debug_loc     0x00000000000133d6       0x41 /home/charles/linux/code/tfa/mp157_alientek/tf-a-stm32mp-2.2.r1-r0/tf-a-stm32mp-2.2.r1/../build/optee/bl2/ctzdi2.o
 .debug_loc     0x0000000000013417      0x2e7 /home/charles/linux/code/tfa/mp157_alientek/tf-a-stm32mp-2.2.r1-r0/tf-a-stm32mp-2.2.r1/../build/optee/bl2/udivmoddi4.o
 .debug_loc     0x00000000000136fe      0x2d8 /home/charles/linux/code/tfa/mp157_alientek/tf-a-stm32mp-2.2.r1-r0/tf-a-stm32mp-2.2.r1/../build/optee/bl2/stm32mp_common.o
 .debug_loc     0x00000000000139d6      0x893 /home/charles/linux/code/tfa/mp157_alientek/tf-a-stm32mp-2.2.r1-r0/tf-a-stm32mp-2.2.r1/../build/optee/bl2/stm32mp1_private.o
 .debug_loc     0x0000000000014269      0x4c4 /home/charles/linux/code/tfa/mp157_alientek/tf-a-stm32mp-2.2.r1-r0/tf-a-stm32mp-2.2.r1/../build/optee/bl2/xlat_tables_arch.o
 .debug_loc     0x000000000001472d      0x593 /home/charles/linux/code/tfa/mp157_alientek/tf-a-stm32mp-2.2.r1-r0/tf-a-stm32mp-2.2.r1/../build/optee/bl2/xlat_tables_context.o
 .debug_loc     0x0000000000014cc0     0x1bc5 /home/charles/linux/code/tfa/mp157_alientek/tf-a-stm32mp-2.2.r1-r0/tf-a-stm32mp-2.2.r1/../build/optee/bl2/xlat_tables_core.o
 .debug_loc     0x0000000000016885      0x9a1 /home/charles/linux/code/tfa/mp157_alientek/tf-a-stm32mp-2.2.r1-r0/tf-a-stm32mp-2.2.r1/../build/optee/bl2/xlat_tables_utils.o
 .debug_loc     0x0000000000017226      0xd7b /home/charles/linux/code/tfa/mp157_alientek/tf-a-stm32mp-2.2.r1-r0/tf-a-stm32mp-2.2.r1/../build/optee/bl2/tzc400.o
 .debug_loc     0x0000000000017fa1      0x116 /home/charles/linux/code/tfa/mp157_alientek/tf-a-stm32mp-2.2.r1-r0/tf-a-stm32mp-2.2.r1/../build/optee/bl2/delay_timer.o
 .debug_loc     0x00000000000180b7       0xc6 /home/charles/linux/code/tfa/mp157_alientek/tf-a-stm32mp-2.2.r1-r0/tf-a-stm32mp-2.2.r1/../build/optee/bl2/generic_delay_timer.o
 .debug_loc     0x000000000001817d     0x1497 /home/charles/linux/code/tfa/mp157_alientek/tf-a-stm32mp-2.2.r1-r0/tf-a-stm32mp-2.2.r1/../build/optee/bl2/bsec2.o
 .debug_loc     0x0000000000019614      0xbec /home/charles/linux/code/tfa/mp157_alientek/tf-a-stm32mp-2.2.r1-r0/tf-a-stm32mp-2.2.r1/../build/optee/bl2/stm32mp_clkfunc.o
 .debug_loc     0x000000000001a200     0x6667 /home/charles/linux/code/tfa/mp157_alientek/tf-a-stm32mp-2.2.r1-r0/tf-a-stm32mp-2.2.r1/../build/optee/bl2/stm32mp1_clk.o
 .debug_loc     0x0000000000020867     0x34dd /home/charles/linux/code/tfa/mp157_alientek/tf-a-stm32mp-2.2.r1-r0/tf-a-stm32mp-2.2.r1/../build/optee/bl2/stm32mp1_ddr_helpers.o
 .debug_loc     0x0000000000023d44      0xfec /home/charles/linux/code/tfa/mp157_alientek/tf-a-stm32mp-2.2.r1-r0/tf-a-stm32mp-2.2.r1/../build/optee/bl2/stm32_gpio.o
 .debug_loc     0x0000000000024d30     0x2f45 /home/charles/linux/code/tfa/mp157_alientek/tf-a-stm32mp-2.2.r1-r0/tf-a-stm32mp-2.2.r1/../build/optee/bl2/stm32_i2c.o
 .debug_loc     0x0000000000027c75      0x266 /home/charles/linux/code/tfa/mp157_alientek/tf-a-stm32mp-2.2.r1-r0/tf-a-stm32mp-2.2.r1/../build/optee/bl2/stm32_iwdg.o
 .debug_loc     0x0000000000027edb      0x982 /home/charles/linux/code/tfa/mp157_alientek/tf-a-stm32mp-2.2.r1-r0/tf-a-stm32mp-2.2.r1/../build/optee/bl2/stm32mp_pmic.o
 .debug_loc     0x000000000002885d      0x73d /home/charles/linux/code/tfa/mp157_alientek/tf-a-stm32mp-2.2.r1-r0/tf-a-stm32mp-2.2.r1/../build/optee/bl2/stpmic1.o
 .debug_loc     0x0000000000028f9a       0x25 /home/charles/linux/code/tfa/mp157_alientek/tf-a-stm32mp-2.2.r1-r0/tf-a-stm32mp-2.2.r1/../build/optee/bl2/stm32mp_dummy_regulator.o
 .debug_loc     0x0000000000028fbf       0xeb /home/charles/linux/code/tfa/mp157_alientek/tf-a-stm32mp-2.2.r1-r0/tf-a-stm32mp-2.2.r1/../build/optee/bl2/stm32mp_regulator.o
 .debug_loc     0x00000000000290aa      0x3f4 /home/charles/linux/code/tfa/mp157_alientek/tf-a-stm32mp-2.2.r1-r0/tf-a-stm32mp-2.2.r1/../build/optee/bl2/stm32mp1_reset.o
 .debug_loc     0x000000000002949e     0x1064 /home/charles/linux/code/tfa/mp157_alientek/tf-a-stm32mp-2.2.r1-r0/tf-a-stm32mp-2.2.r1/../build/optee/bl2/stm32mp_dt.o
 .debug_loc     0x000000000002a502      0x2be /home/charles/linux/code/tfa/mp157_alientek/tf-a-stm32mp-2.2.r1-r0/tf-a-stm32mp-2.2.r1/../build/optee/bl2/stm32mp_shres_helpers.o
 .debug_loc     0x000000000002a7c0      0x1ff /home/charles/linux/code/tfa/mp157_alientek/tf-a-stm32mp-2.2.r1-r0/tf-a-stm32mp-2.2.r1/../build/optee/bl2/stm32mp1_context.o
 .debug_loc     0x000000000002a9bf      0x1b5 /home/charles/linux/code/tfa/mp157_alientek/tf-a-stm32mp-2.2.r1-r0/tf-a-stm32mp-2.2.r1/../build/optee/bl2/stm32mp1_dbgmcu.o
 .debug_loc     0x000000000002ab74       0x38 /home/charles/linux/code/tfa/mp157_alientek/tf-a-stm32mp-2.2.r1-r0/tf-a-stm32mp-2.2.r1/../build/optee/bl2/stm32mp1_security.o
 .debug_loc     0x000000000002abac      0x52c /home/charles/linux/code/tfa/mp157_alientek/tf-a-stm32mp-2.2.r1-r0/tf-a-stm32mp-2.2.r1/../build/optee/bl2/stm32mp1_syscfg.o
 .debug_loc     0x000000000002b0d8      0x60f /home/charles/linux/code/tfa/mp157_alientek/tf-a-stm32mp-2.2.r1-r0/tf-a-stm32mp-2.2.r1/../build/optee/lib/libfdt.a(fdt.o)
 .debug_loc     0x000000000002b6e7      0x146 /home/charles/linux/code/tfa/mp157_alientek/tf-a-stm32mp-2.2.r1-r0/tf-a-stm32mp-2.2.r1/../build/optee/lib/libfdt.a(fdt_addresses.o)
 .debug_loc     0x000000000002b82d     0x1fd8 /home/charles/linux/code/tfa/mp157_alientek/tf-a-stm32mp-2.2.r1-r0/tf-a-stm32mp-2.2.r1/../build/optee/lib/libfdt.a(fdt_ro.o)
 .debug_loc     0x000000000002d805       0x64 /home/charles/linux/code/tfa/mp157_alientek/tf-a-stm32mp-2.2.r1-r0/tf-a-stm32mp-2.2.r1/../build/optee/lib/libc.a(assert.o)
 .debug_loc     0x000000000002d869      0x10a /home/charles/linux/code/tfa/mp157_alientek/tf-a-stm32mp-2.2.r1-r0/tf-a-stm32mp-2.2.r1/../build/optee/lib/libc.a(memchr.o)
 .debug_loc     0x000000000002d973      0x11a /home/charles/linux/code/tfa/mp157_alientek/tf-a-stm32mp-2.2.r1-r0/tf-a-stm32mp-2.2.r1/../build/optee/lib/libc.a(memcmp.o)
 .debug_loc     0x000000000002da8d       0xa2 /home/charles/linux/code/tfa/mp157_alientek/tf-a-stm32mp-2.2.r1-r0/tf-a-stm32mp-2.2.r1/../build/optee/lib/libc.a(memcpy.o)
 .debug_loc     0x000000000002db2f      0x170 /home/charles/linux/code/tfa/mp157_alientek/tf-a-stm32mp-2.2.r1-r0/tf-a-stm32mp-2.2.r1/../build/optee/lib/libc.a(memmove.o)
 .debug_loc     0x000000000002dc9f       0x63 /home/charles/linux/code/tfa/mp157_alientek/tf-a-stm32mp-2.2.r1-r0/tf-a-stm32mp-2.2.r1/../build/optee/lib/libc.a(memset.o)
 .debug_loc     0x000000000002dd02      0x6bd /home/charles/linux/code/tfa/mp157_alientek/tf-a-stm32mp-2.2.r1-r0/tf-a-stm32mp-2.2.r1/../build/optee/lib/libc.a(printf.o)
 .debug_loc     0x000000000002e3bf       0x22 /home/charles/linux/code/tfa/mp157_alientek/tf-a-stm32mp-2.2.r1-r0/tf-a-stm32mp-2.2.r1/../build/optee/lib/libc.a(putchar.o)
 .debug_loc     0x000000000002e3e1      0x203 /home/charles/linux/code/tfa/mp157_alientek/tf-a-stm32mp-2.2.r1-r0/tf-a-stm32mp-2.2.r1/../build/optee/lib/libc.a(snprintf.o)
 .debug_loc     0x000000000002e5e4       0x6b /home/charles/linux/code/tfa/mp157_alientek/tf-a-stm32mp-2.2.r1-r0/tf-a-stm32mp-2.2.r1/../build/optee/lib/libc.a(strchr.o)
 .debug_loc     0x000000000002e64f       0x71 /home/charles/linux/code/tfa/mp157_alientek/tf-a-stm32mp-2.2.r1-r0/tf-a-stm32mp-2.2.r1/../build/optee/lib/libc.a(strcmp.o)
 .debug_loc     0x000000000002e6c0       0x47 /home/charles/linux/code/tfa/mp157_alientek/tf-a-stm32mp-2.2.r1-r0/tf-a-stm32mp-2.2.r1/../build/optee/lib/libc.a(strlen.o)
 .debug_loc     0x000000000002e707       0xfe /home/charles/linux/code/tfa/mp157_alientek/tf-a-stm32mp-2.2.r1-r0/tf-a-stm32mp-2.2.r1/../build/optee/lib/libc.a(strncmp.o)
 .debug_loc     0x000000000002e805       0x38 /home/charles/linux/code/tfa/mp157_alientek/tf-a-stm32mp-2.2.r1-r0/tf-a-stm32mp-2.2.r1/../build/optee/lib/libc.a(strnlen.o)
 .debug_loc     0x000000000002e83d       0x99 /home/charles/linux/code/tfa/mp157_alientek/tf-a-stm32mp-2.2.r1-r0/tf-a-stm32mp-2.2.r1/../build/optee/lib/libc.a(strrchr.o)

.debug_ranges   0x0000000000000000     0x62b8
 .debug_ranges  0x0000000000000000      0x110 /home/charles/linux/code/tfa/mp157_alientek/tf-a-stm32mp-2.2.r1-r0/tf-a-stm32mp-2.2.r1/../build/optee/bl2/io_block.o
 .debug_ranges  0x0000000000000110       0x78 /home/charles/linux/code/tfa/mp157_alientek/tf-a-stm32mp-2.2.r1-r0/tf-a-stm32mp-2.2.r1/../build/optee/bl2/io_dummy.o
 .debug_ranges  0x0000000000000188       0xb8 /home/charles/linux/code/tfa/mp157_alientek/tf-a-stm32mp-2.2.r1-r0/tf-a-stm32mp-2.2.r1/../build/optee/bl2/io_mtd.o
 .debug_ranges  0x0000000000000240      0x130 /home/charles/linux/code/tfa/mp157_alientek/tf-a-stm32mp-2.2.r1-r0/tf-a-stm32mp-2.2.r1/../build/optee/bl2/io_storage.o
 .debug_ranges  0x0000000000000370      0x2a0 /home/charles/linux/code/tfa/mp157_alientek/tf-a-stm32mp-2.2.r1-r0/tf-a-stm32mp-2.2.r1/../build/optee/bl2/stm32_hash.o
 .debug_ranges  0x0000000000000610       0x68 /home/charles/linux/code/tfa/mp157_alientek/tf-a-stm32mp-2.2.r1-r0/tf-a-stm32mp-2.2.r1/../build/optee/bl2/io_stm32image.o
 .debug_ranges  0x0000000000000678       0x78 /home/charles/linux/code/tfa/mp157_alientek/tf-a-stm32mp-2.2.r1-r0/tf-a-stm32mp-2.2.r1/../build/optee/bl2/bl2_io_storage.o
 .debug_ranges  0x00000000000006f0      0x160 /home/charles/linux/code/tfa/mp157_alientek/tf-a-stm32mp-2.2.r1-r0/tf-a-stm32mp-2.2.r1/../build/optee/bl2/bl2_plat_setup.o
 .debug_ranges  0x0000000000000850       0x68 /home/charles/linux/code/tfa/mp157_alientek/tf-a-stm32mp-2.2.r1-r0/tf-a-stm32mp-2.2.r1/../build/optee/bl2/auth_mod.o
 .debug_ranges  0x00000000000008b8       0x20 /home/charles/linux/code/tfa/mp157_alientek/tf-a-stm32mp-2.2.r1-r0/tf-a-stm32mp-2.2.r1/../build/optee/bl2/crypto_mod.o
 .debug_ranges  0x00000000000008d8       0x38 /home/charles/linux/code/tfa/mp157_alientek/tf-a-stm32mp-2.2.r1-r0/tf-a-stm32mp-2.2.r1/../build/optee/bl2/img_parser_mod.o
 .debug_ranges  0x0000000000000910       0x20 /home/charles/linux/code/tfa/mp157_alientek/tf-a-stm32mp-2.2.r1-r0/tf-a-stm32mp-2.2.r1/../build/optee/bl2/stm32mp_crypto_lib.o
 .debug_ranges  0x0000000000000930       0x20 /home/charles/linux/code/tfa/mp157_alientek/tf-a-stm32mp-2.2.r1-r0/tf-a-stm32mp-2.2.r1/../build/optee/bl2/stm32mp_img_parser_lib.o
 .debug_ranges  0x0000000000000950       0x20 /home/charles/linux/code/tfa/mp157_alientek/tf-a-stm32mp-2.2.r1-r0/tf-a-stm32mp-2.2.r1/../build/optee/bl2/stm32mp_trusted_boot.o
 .debug_ranges  0x0000000000000970      0x200 /home/charles/linux/code/tfa/mp157_alientek/tf-a-stm32mp-2.2.r1-r0/tf-a-stm32mp-2.2.r1/../build/optee/bl2/mmc.o
 .debug_ranges  0x0000000000000b70       0x30 /home/charles/linux/code/tfa/mp157_alientek/tf-a-stm32mp-2.2.r1-r0/tf-a-stm32mp-2.2.r1/../build/optee/bl2/gpt.o
 .debug_ranges  0x0000000000000ba0       0x58 /home/charles/linux/code/tfa/mp157_alientek/tf-a-stm32mp-2.2.r1-r0/tf-a-stm32mp-2.2.r1/../build/optee/bl2/partition.o
 .debug_ranges  0x0000000000000bf8       0x48 /home/charles/linux/code/tfa/mp157_alientek/tf-a-stm32mp-2.2.r1-r0/tf-a-stm32mp-2.2.r1/../build/optee/bl2/io_mmc.o
 .debug_ranges  0x0000000000000c40      0x2d0 /home/charles/linux/code/tfa/mp157_alientek/tf-a-stm32mp-2.2.r1-r0/tf-a-stm32mp-2.2.r1/../build/optee/bl2/stm32_sdmmc2.o
 .debug_ranges  0x0000000000000f10      0x130 /home/charles/linux/code/tfa/mp157_alientek/tf-a-stm32mp-2.2.r1-r0/tf-a-stm32mp-2.2.r1/../build/optee/bl2/raw_nand.o
 .debug_ranges  0x0000000000001040      0x668 /home/charles/linux/code/tfa/mp157_alientek/tf-a-stm32mp-2.2.r1-r0/tf-a-stm32mp-2.2.r1/../build/optee/bl2/stm32_fmc2_nand.o
 .debug_ranges  0x00000000000016a8      0x138 /home/charles/linux/code/tfa/mp157_alientek/tf-a-stm32mp-2.2.r1-r0/tf-a-stm32mp-2.2.r1/../build/optee/bl2/spi_nand.o
 .debug_ranges  0x00000000000017e0      0x128 /home/charles/linux/code/tfa/mp157_alientek/tf-a-stm32mp-2.2.r1-r0/tf-a-stm32mp-2.2.r1/../build/optee/bl2/spi_nor.o
 .debug_ranges  0x0000000000001908       0x90 /home/charles/linux/code/tfa/mp157_alientek/tf-a-stm32mp-2.2.r1-r0/tf-a-stm32mp-2.2.r1/../build/optee/bl2/spi_mem.o
 .debug_ranges  0x0000000000001998      0x520 /home/charles/linux/code/tfa/mp157_alientek/tf-a-stm32mp-2.2.r1-r0/tf-a-stm32mp-2.2.r1/../build/optee/bl2/stm32_qspi.o
 .debug_ranges  0x0000000000001eb8       0x40 /home/charles/linux/code/tfa/mp157_alientek/tf-a-stm32mp-2.2.r1-r0/tf-a-stm32mp-2.2.r1/../build/optee/bl2/core.o
 .debug_ranges  0x0000000000001ef8       0x28 /home/charles/linux/code/tfa/mp157_alientek/tf-a-stm32mp-2.2.r1-r0/tf-a-stm32mp-2.2.r1/../build/optee/bl2/stm32mp1_boot_device.o
 .debug_ranges  0x0000000000001f20      0x688 /home/charles/linux/code/tfa/mp157_alientek/tf-a-stm32mp-2.2.r1-r0/tf-a-stm32mp-2.2.r1/../build/optee/bl2/stm32mp1_ddr.o
 .debug_ranges  0x00000000000025a8      0x1d0 /home/charles/linux/code/tfa/mp157_alientek/tf-a-stm32mp-2.2.r1-r0/tf-a-stm32mp-2.2.r1/../build/optee/bl2/stm32mp1_ram.o
 .debug_ranges  0x0000000000002778       0x60 /home/charles/linux/code/tfa/mp157_alientek/tf-a-stm32mp-2.2.r1-r0/tf-a-stm32mp-2.2.r1/../build/optee/bl2/desc_image_load.o
 .debug_ranges  0x00000000000027d8       0x20 /home/charles/linux/code/tfa/mp157_alientek/tf-a-stm32mp-2.2.r1-r0/tf-a-stm32mp-2.2.r1/../build/optee/bl2/plat_image_load.o
 .debug_ranges  0x00000000000027f8       0x48 /home/charles/linux/code/tfa/mp157_alientek/tf-a-stm32mp-2.2.r1-r0/tf-a-stm32mp-2.2.r1/../build/optee/bl2/optee_utils.o
 .debug_ranges  0x0000000000002840       0x10 /home/charles/linux/code/tfa/mp157_alientek/tf-a-stm32mp-2.2.r1-r0/tf-a-stm32mp-2.2.r1/../build/optee/bl2/bl2_image_load_v2.o
 .debug_ranges  0x0000000000002850       0x18 /home/charles/linux/code/tfa/mp157_alientek/tf-a-stm32mp-2.2.r1-r0/tf-a-stm32mp-2.2.r1/../build/optee/bl2/bl2_main.o
 .debug_ranges  0x0000000000002868       0x10 /home/charles/linux/code/tfa/mp157_alientek/tf-a-stm32mp-2.2.r1-r0/tf-a-stm32mp-2.2.r1/../build/optee/bl2/bl2_arch_setup.o
 .debug_ranges  0x0000000000002878       0x68 /home/charles/linux/code/tfa/mp157_alientek/tf-a-stm32mp-2.2.r1-r0/tf-a-stm32mp-2.2.r1/../build/optee/bl2/bl_common.o
 .debug_ranges  0x00000000000028e0       0x18 /home/charles/linux/code/tfa/mp157_alientek/tf-a-stm32mp-2.2.r1-r0/tf-a-stm32mp-2.2.r1/../build/optee/bl2/tf_log.o
 .debug_ranges  0x00000000000028f8       0x90 /home/charles/linux/code/tfa/mp157_alientek/tf-a-stm32mp-2.2.r1-r0/tf-a-stm32mp-2.2.r1/../build/optee/bl2/multi_console.o
 .debug_ranges  0x0000000000002988       0x28 /home/charles/linux/code/tfa/mp157_alientek/tf-a-stm32mp-2.2.r1-r0/tf-a-stm32mp-2.2.r1/../build/optee/bl2/plat_bl_common.o
 .debug_ranges  0x00000000000029b0       0x10 /home/charles/linux/code/tfa/mp157_alientek/tf-a-stm32mp-2.2.r1-r0/tf-a-stm32mp-2.2.r1/../build/optee/bl2/plat_log_common.o
 .debug_ranges  0x00000000000029c0       0x10 /home/charles/linux/code/tfa/mp157_alientek/tf-a-stm32mp-2.2.r1-r0/tf-a-stm32mp-2.2.r1/../build/optee/bl2/popcountsi2.o
 .debug_ranges  0x00000000000029d0       0x10 /home/charles/linux/code/tfa/mp157_alientek/tf-a-stm32mp-2.2.r1-r0/tf-a-stm32mp-2.2.r1/../build/optee/bl2/ctzdi2.o
 .debug_ranges  0x00000000000029e0       0x28 /home/charles/linux/code/tfa/mp157_alientek/tf-a-stm32mp-2.2.r1-r0/tf-a-stm32mp-2.2.r1/../build/optee/bl2/udivmoddi4.o
 .debug_ranges  0x0000000000002a08       0xb8 /home/charles/linux/code/tfa/mp157_alientek/tf-a-stm32mp-2.2.r1-r0/tf-a-stm32mp-2.2.r1/../build/optee/bl2/stm32mp_common.o
 .debug_ranges  0x0000000000002ac0      0x140 /home/charles/linux/code/tfa/mp157_alientek/tf-a-stm32mp-2.2.r1-r0/tf-a-stm32mp-2.2.r1/../build/optee/bl2/stm32mp1_private.o
 .debug_ranges  0x0000000000002c00       0xe0 /home/charles/linux/code/tfa/mp157_alientek/tf-a-stm32mp-2.2.r1-r0/tf-a-stm32mp-2.2.r1/../build/optee/bl2/xlat_tables_arch.o
 .debug_ranges  0x0000000000002ce0       0x68 /home/charles/linux/code/tfa/mp157_alientek/tf-a-stm32mp-2.2.r1-r0/tf-a-stm32mp-2.2.r1/../build/optee/bl2/xlat_tables_context.o
 .debug_ranges  0x0000000000002d48      0x2b8 /home/charles/linux/code/tfa/mp157_alientek/tf-a-stm32mp-2.2.r1-r0/tf-a-stm32mp-2.2.r1/../build/optee/bl2/xlat_tables_core.o
 .debug_ranges  0x0000000000003000       0xf8 /home/charles/linux/code/tfa/mp157_alientek/tf-a-stm32mp-2.2.r1-r0/tf-a-stm32mp-2.2.r1/../build/optee/bl2/xlat_tables_utils.o
 .debug_ranges  0x00000000000030f8      0x288 /home/charles/linux/code/tfa/mp157_alientek/tf-a-stm32mp-2.2.r1-r0/tf-a-stm32mp-2.2.r1/../build/optee/bl2/tzc400.o
 .debug_ranges  0x0000000000003380       0x38 /home/charles/linux/code/tfa/mp157_alientek/tf-a-stm32mp-2.2.r1-r0/tf-a-stm32mp-2.2.r1/../build/optee/bl2/delay_timer.o
 .debug_ranges  0x00000000000033b8       0x68 /home/charles/linux/code/tfa/mp157_alientek/tf-a-stm32mp-2.2.r1-r0/tf-a-stm32mp-2.2.r1/../build/optee/bl2/generic_delay_timer.o
 .debug_ranges  0x0000000000003420      0x350 /home/charles/linux/code/tfa/mp157_alientek/tf-a-stm32mp-2.2.r1-r0/tf-a-stm32mp-2.2.r1/../build/optee/bl2/bsec2.o
 .debug_ranges  0x0000000000003770      0x170 /home/charles/linux/code/tfa/mp157_alientek/tf-a-stm32mp-2.2.r1-r0/tf-a-stm32mp-2.2.r1/../build/optee/bl2/stm32mp_clkfunc.o
 .debug_ranges  0x00000000000038e0      0xd28 /home/charles/linux/code/tfa/mp157_alientek/tf-a-stm32mp-2.2.r1-r0/tf-a-stm32mp-2.2.r1/../build/optee/bl2/stm32mp1_clk.o
 .debug_ranges  0x0000000000004608      0x280 /home/charles/linux/code/tfa/mp157_alientek/tf-a-stm32mp-2.2.r1-r0/tf-a-stm32mp-2.2.r1/../build/optee/bl2/stm32mp1_ddr_helpers.o
 .debug_ranges  0x0000000000004888      0x250 /home/charles/linux/code/tfa/mp157_alientek/tf-a-stm32mp-2.2.r1-r0/tf-a-stm32mp-2.2.r1/../build/optee/bl2/stm32_gpio.o
 .debug_ranges  0x0000000000004ad8      0x850 /home/charles/linux/code/tfa/mp157_alientek/tf-a-stm32mp-2.2.r1-r0/tf-a-stm32mp-2.2.r1/../build/optee/bl2/stm32_i2c.o
 .debug_ranges  0x0000000000005328       0xa0 /home/charles/linux/code/tfa/mp157_alientek/tf-a-stm32mp-2.2.r1-r0/tf-a-stm32mp-2.2.r1/../build/optee/bl2/stm32_iwdg.o
 .debug_ranges  0x00000000000053c8      0x178 /home/charles/linux/code/tfa/mp157_alientek/tf-a-stm32mp-2.2.r1-r0/tf-a-stm32mp-2.2.r1/../build/optee/bl2/stm32mp_pmic.o
 .debug_ranges  0x0000000000005540       0xb0 /home/charles/linux/code/tfa/mp157_alientek/tf-a-stm32mp-2.2.r1-r0/tf-a-stm32mp-2.2.r1/../build/optee/bl2/stpmic1.o
 .debug_ranges  0x00000000000055f0       0x18 /home/charles/linux/code/tfa/mp157_alientek/tf-a-stm32mp-2.2.r1-r0/tf-a-stm32mp-2.2.r1/../build/optee/bl2/stm32mp_dummy_regulator.o
 .debug_ranges  0x0000000000005608       0x28 /home/charles/linux/code/tfa/mp157_alientek/tf-a-stm32mp-2.2.r1-r0/tf-a-stm32mp-2.2.r1/../build/optee/bl2/stm32mp_regulator.o
 .debug_ranges  0x0000000000005630      0x108 /home/charles/linux/code/tfa/mp157_alientek/tf-a-stm32mp-2.2.r1-r0/tf-a-stm32mp-2.2.r1/../build/optee/bl2/stm32mp1_reset.o
 .debug_ranges  0x0000000000005738      0x170 /home/charles/linux/code/tfa/mp157_alientek/tf-a-stm32mp-2.2.r1-r0/tf-a-stm32mp-2.2.r1/../build/optee/bl2/stm32mp_dt.o
 .debug_ranges  0x00000000000058a8       0x30 /home/charles/linux/code/tfa/mp157_alientek/tf-a-stm32mp-2.2.r1-r0/tf-a-stm32mp-2.2.r1/../build/optee/bl2/stm32mp_shres_helpers.o
 .debug_ranges  0x00000000000058d8       0xc0 /home/charles/linux/code/tfa/mp157_alientek/tf-a-stm32mp-2.2.r1-r0/tf-a-stm32mp-2.2.r1/../build/optee/bl2/stm32mp1_context.o
 .debug_ranges  0x0000000000005998       0x58 /home/charles/linux/code/tfa/mp157_alientek/tf-a-stm32mp-2.2.r1-r0/tf-a-stm32mp-2.2.r1/../build/optee/bl2/stm32mp1_dbgmcu.o
 .debug_ranges  0x00000000000059f0       0x58 /home/charles/linux/code/tfa/mp157_alientek/tf-a-stm32mp-2.2.r1-r0/tf-a-stm32mp-2.2.r1/../build/optee/bl2/stm32mp1_security.o
 .debug_ranges  0x0000000000005a48      0x120 /home/charles/linux/code/tfa/mp157_alientek/tf-a-stm32mp-2.2.r1-r0/tf-a-stm32mp-2.2.r1/../build/optee/bl2/stm32mp1_syscfg.o
 .debug_ranges  0x0000000000005b68       0x20 /home/charles/linux/code/tfa/mp157_alientek/tf-a-stm32mp-2.2.r1-r0/tf-a-stm32mp-2.2.r1/../build/optee/bl2/spinlock.o
 .debug_ranges  0x0000000000005b88       0x20 /home/charles/linux/code/tfa/mp157_alientek/tf-a-stm32mp-2.2.r1-r0/tf-a-stm32mp-2.2.r1/../build/optee/bl2/platform_up_stack.o
 .debug_ranges  0x0000000000005ba8       0x20 /home/charles/linux/code/tfa/mp157_alientek/tf-a-stm32mp-2.2.r1-r0/tf-a-stm32mp-2.2.r1/../build/optee/bl2/bl2_el3_entrypoint.o
 .debug_ranges  0x0000000000005bc8       0x38 /home/charles/linux/code/tfa/mp157_alientek/tf-a-stm32mp-2.2.r1-r0/tf-a-stm32mp-2.2.r1/../build/optee/bl2/cpu_helpers.o
 .debug_ranges  0x0000000000005c00       0x50 /home/charles/linux/code/tfa/mp157_alientek/tf-a-stm32mp-2.2.r1-r0/tf-a-stm32mp-2.2.r1/../build/optee/bl2/debug.o
 .debug_ranges  0x0000000000005c50       0x58 /home/charles/linux/code/tfa/mp157_alientek/tf-a-stm32mp-2.2.r1-r0/tf-a-stm32mp-2.2.r1/../build/optee/bl2/cache_helpers.o
 .debug_ranges  0x0000000000005ca8       0x38 /home/charles/linux/code/tfa/mp157_alientek/tf-a-stm32mp-2.2.r1-r0/tf-a-stm32mp-2.2.r1/../build/optee/bl2/misc_helpers.o
 .debug_ranges  0x0000000000005ce0       0x48 /home/charles/linux/code/tfa/mp157_alientek/tf-a-stm32mp-2.2.r1-r0/tf-a-stm32mp-2.2.r1/../build/optee/bl2/stm32_console.o
 .debug_ranges  0x0000000000005d28       0x20 /home/charles/linux/code/tfa/mp157_alientek/tf-a-stm32mp-2.2.r1-r0/tf-a-stm32mp-2.2.r1/../build/optee/bl2/enable_mmu.o
 .debug_ranges  0x0000000000005d48       0x38 /home/charles/linux/code/tfa/mp157_alientek/tf-a-stm32mp-2.2.r1-r0/tf-a-stm32mp-2.2.r1/../build/optee/bl2/cortex_a7.o
 .debug_ranges  0x0000000000005d80       0x90 /home/charles/linux/code/tfa/mp157_alientek/tf-a-stm32mp-2.2.r1-r0/tf-a-stm32mp-2.2.r1/../build/optee/bl2/stm32mp1_helper.o
 .debug_ranges  0x0000000000005e10       0x90 /home/charles/linux/code/tfa/mp157_alientek/tf-a-stm32mp-2.2.r1-r0/tf-a-stm32mp-2.2.r1/../build/optee/lib/libfdt.a(fdt.o)
 .debug_ranges  0x0000000000005ea0       0x18 /home/charles/linux/code/tfa/mp157_alientek/tf-a-stm32mp-2.2.r1-r0/tf-a-stm32mp-2.2.r1/../build/optee/lib/libfdt.a(fdt_addresses.o)
 .debug_ranges  0x0000000000005eb8      0x298 /home/charles/linux/code/tfa/mp157_alientek/tf-a-stm32mp-2.2.r1-r0/tf-a-stm32mp-2.2.r1/../build/optee/lib/libfdt.a(fdt_ro.o)
 .debug_ranges  0x0000000000006150       0x10 /home/charles/linux/code/tfa/mp157_alientek/tf-a-stm32mp-2.2.r1-r0/tf-a-stm32mp-2.2.r1/../build/optee/lib/libc.a(assert.o)
 .debug_ranges  0x0000000000006160       0x10 /home/charles/linux/code/tfa/mp157_alientek/tf-a-stm32mp-2.2.r1-r0/tf-a-stm32mp-2.2.r1/../build/optee/lib/libc.a(memchr.o)
 .debug_ranges  0x0000000000006170       0x10 /home/charles/linux/code/tfa/mp157_alientek/tf-a-stm32mp-2.2.r1-r0/tf-a-stm32mp-2.2.r1/../build/optee/lib/libc.a(memcmp.o)
 .debug_ranges  0x0000000000006180       0x10 /home/charles/linux/code/tfa/mp157_alientek/tf-a-stm32mp-2.2.r1-r0/tf-a-stm32mp-2.2.r1/../build/optee/lib/libc.a(memcpy.o)
 .debug_ranges  0x0000000000006190       0x28 /home/charles/linux/code/tfa/mp157_alientek/tf-a-stm32mp-2.2.r1-r0/tf-a-stm32mp-2.2.r1/../build/optee/lib/libc.a(memmove.o)
 .debug_ranges  0x00000000000061b8       0x10 /home/charles/linux/code/tfa/mp157_alientek/tf-a-stm32mp-2.2.r1-r0/tf-a-stm32mp-2.2.r1/../build/optee/lib/libc.a(memset.o)
 .debug_ranges  0x00000000000061c8       0x50 /home/charles/linux/code/tfa/mp157_alientek/tf-a-stm32mp-2.2.r1-r0/tf-a-stm32mp-2.2.r1/../build/optee/lib/libc.a(printf.o)
 .debug_ranges  0x0000000000006218       0x10 /home/charles/linux/code/tfa/mp157_alientek/tf-a-stm32mp-2.2.r1-r0/tf-a-stm32mp-2.2.r1/../build/optee/lib/libc.a(putchar.o)
 .debug_ranges  0x0000000000006228       0x30 /home/charles/linux/code/tfa/mp157_alientek/tf-a-stm32mp-2.2.r1-r0/tf-a-stm32mp-2.2.r1/../build/optee/lib/libc.a(snprintf.o)
 .debug_ranges  0x0000000000006258       0x10 /home/charles/linux/code/tfa/mp157_alientek/tf-a-stm32mp-2.2.r1-r0/tf-a-stm32mp-2.2.r1/../build/optee/lib/libc.a(strchr.o)
 .debug_ranges  0x0000000000006268       0x10 /home/charles/linux/code/tfa/mp157_alientek/tf-a-stm32mp-2.2.r1-r0/tf-a-stm32mp-2.2.r1/../build/optee/lib/libc.a(strcmp.o)
 .debug_ranges  0x0000000000006278       0x10 /home/charles/linux/code/tfa/mp157_alientek/tf-a-stm32mp-2.2.r1-r0/tf-a-stm32mp-2.2.r1/../build/optee/lib/libc.a(strlen.o)
 .debug_ranges  0x0000000000006288       0x10 /home/charles/linux/code/tfa/mp157_alientek/tf-a-stm32mp-2.2.r1-r0/tf-a-stm32mp-2.2.r1/../build/optee/lib/libc.a(strncmp.o)
 .debug_ranges  0x0000000000006298       0x10 /home/charles/linux/code/tfa/mp157_alientek/tf-a-stm32mp-2.2.r1-r0/tf-a-stm32mp-2.2.r1/../build/optee/lib/libc.a(strnlen.o)
 .debug_ranges  0x00000000000062a8       0x10 /home/charles/linux/code/tfa/mp157_alientek/tf-a-stm32mp-2.2.r1-r0/tf-a-stm32mp-2.2.r1/../build/optee/lib/libc.a(strrchr.o)

.debug_frame    0x0000000000000000     0x50d8
 .debug_frame   0x0000000000000000      0x118 /home/charles/linux/code/tfa/mp157_alientek/tf-a-stm32mp-2.2.r1-r0/tf-a-stm32mp-2.2.r1/../build/optee/bl2/io_block.o
 .debug_frame   0x0000000000000118       0xc0 /home/charles/linux/code/tfa/mp157_alientek/tf-a-stm32mp-2.2.r1-r0/tf-a-stm32mp-2.2.r1/../build/optee/bl2/io_dummy.o
 .debug_frame   0x00000000000001d8       0xe8 /home/charles/linux/code/tfa/mp157_alientek/tf-a-stm32mp-2.2.r1-r0/tf-a-stm32mp-2.2.r1/../build/optee/bl2/io_mtd.o
 .debug_frame   0x00000000000002c0      0x1c4 /home/charles/linux/code/tfa/mp157_alientek/tf-a-stm32mp-2.2.r1-r0/tf-a-stm32mp-2.2.r1/../build/optee/bl2/io_storage.o
 .debug_frame   0x0000000000000484       0xf0 /home/charles/linux/code/tfa/mp157_alientek/tf-a-stm32mp-2.2.r1-r0/tf-a-stm32mp-2.2.r1/../build/optee/bl2/stm32_hash.o
 .debug_frame   0x0000000000000574       0xf0 /home/charles/linux/code/tfa/mp157_alientek/tf-a-stm32mp-2.2.r1-r0/tf-a-stm32mp-2.2.r1/../build/optee/bl2/io_stm32image.o
 .debug_frame   0x0000000000000664       0xc4 /home/charles/linux/code/tfa/mp157_alientek/tf-a-stm32mp-2.2.r1-r0/tf-a-stm32mp-2.2.r1/../build/optee/bl2/bl2_io_storage.o
 .debug_frame   0x0000000000000728       0xa8 /home/charles/linux/code/tfa/mp157_alientek/tf-a-stm32mp-2.2.r1-r0/tf-a-stm32mp-2.2.r1/../build/optee/bl2/bl2_plat_setup.o
 .debug_frame   0x00000000000007d0       0xa4 /home/charles/linux/code/tfa/mp157_alientek/tf-a-stm32mp-2.2.r1-r0/tf-a-stm32mp-2.2.r1/../build/optee/bl2/auth_mod.o
 .debug_frame   0x0000000000000874       0x80 /home/charles/linux/code/tfa/mp157_alientek/tf-a-stm32mp-2.2.r1-r0/tf-a-stm32mp-2.2.r1/../build/optee/bl2/crypto_mod.o
 .debug_frame   0x00000000000008f4       0x7c /home/charles/linux/code/tfa/mp157_alientek/tf-a-stm32mp-2.2.r1-r0/tf-a-stm32mp-2.2.r1/../build/optee/bl2/img_parser_mod.o
 .debug_frame   0x0000000000000970       0x80 /home/charles/linux/code/tfa/mp157_alientek/tf-a-stm32mp-2.2.r1-r0/tf-a-stm32mp-2.2.r1/../build/optee/bl2/stm32mp_crypto_lib.o
 .debug_frame   0x00000000000009f0       0x5c /home/charles/linux/code/tfa/mp157_alientek/tf-a-stm32mp-2.2.r1-r0/tf-a-stm32mp-2.2.r1/../build/optee/bl2/stm32mp_img_parser_lib.o
 .debug_frame   0x0000000000000a4c       0x68 /home/charles/linux/code/tfa/mp157_alientek/tf-a-stm32mp-2.2.r1-r0/tf-a-stm32mp-2.2.r1/../build/optee/bl2/stm32mp_trusted_boot.o
 .debug_frame   0x0000000000000ab4      0x198 /home/charles/linux/code/tfa/mp157_alientek/tf-a-stm32mp-2.2.r1-r0/tf-a-stm32mp-2.2.r1/../build/optee/bl2/mmc.o
 .debug_frame   0x0000000000000c4c       0x2c /home/charles/linux/code/tfa/mp157_alientek/tf-a-stm32mp-2.2.r1-r0/tf-a-stm32mp-2.2.r1/../build/optee/bl2/gpt.o
 .debug_frame   0x0000000000000c78       0x84 /home/charles/linux/code/tfa/mp157_alientek/tf-a-stm32mp-2.2.r1-r0/tf-a-stm32mp-2.2.r1/../build/optee/bl2/partition.o
 .debug_frame   0x0000000000000cfc       0xc4 /home/charles/linux/code/tfa/mp157_alientek/tf-a-stm32mp-2.2.r1-r0/tf-a-stm32mp-2.2.r1/../build/optee/bl2/io_mmc.o
 .debug_frame   0x0000000000000dc0      0x17c /home/charles/linux/code/tfa/mp157_alientek/tf-a-stm32mp-2.2.r1-r0/tf-a-stm32mp-2.2.r1/../build/optee/bl2/stm32_sdmmc2.o
 .debug_frame   0x0000000000000f3c      0x1b8 /home/charles/linux/code/tfa/mp157_alientek/tf-a-stm32mp-2.2.r1-r0/tf-a-stm32mp-2.2.r1/../build/optee/bl2/raw_nand.o
 .debug_frame   0x00000000000010f4       0xe4 /home/charles/linux/code/tfa/mp157_alientek/tf-a-stm32mp-2.2.r1-r0/tf-a-stm32mp-2.2.r1/../build/optee/bl2/stm32_fmc2_nand.o
 .debug_frame   0x00000000000011d8      0x138 /home/charles/linux/code/tfa/mp157_alientek/tf-a-stm32mp-2.2.r1-r0/tf-a-stm32mp-2.2.r1/../build/optee/bl2/spi_nand.o
 .debug_frame   0x0000000000001310       0xf0 /home/charles/linux/code/tfa/mp157_alientek/tf-a-stm32mp-2.2.r1-r0/tf-a-stm32mp-2.2.r1/../build/optee/bl2/spi_nor.o
 .debug_frame   0x0000000000001400       0x80 /home/charles/linux/code/tfa/mp157_alientek/tf-a-stm32mp-2.2.r1-r0/tf-a-stm32mp-2.2.r1/../build/optee/bl2/spi_mem.o
 .debug_frame   0x0000000000001480       0xfc /home/charles/linux/code/tfa/mp157_alientek/tf-a-stm32mp-2.2.r1-r0/tf-a-stm32mp-2.2.r1/../build/optee/bl2/stm32_qspi.o
 .debug_frame   0x000000000000157c       0x50 /home/charles/linux/code/tfa/mp157_alientek/tf-a-stm32mp-2.2.r1-r0/tf-a-stm32mp-2.2.r1/../build/optee/bl2/core.o
 .debug_frame   0x00000000000015cc       0x74 /home/charles/linux/code/tfa/mp157_alientek/tf-a-stm32mp-2.2.r1-r0/tf-a-stm32mp-2.2.r1/../build/optee/bl2/stm32mp1_boot_device.o
 .debug_frame   0x0000000000001640       0xf4 /home/charles/linux/code/tfa/mp157_alientek/tf-a-stm32mp-2.2.r1-r0/tf-a-stm32mp-2.2.r1/../build/optee/bl2/stm32mp1_ddr.o
 .debug_frame   0x0000000000001734       0x74 /home/charles/linux/code/tfa/mp157_alientek/tf-a-stm32mp-2.2.r1-r0/tf-a-stm32mp-2.2.r1/../build/optee/bl2/stm32mp1_ram.o
 .debug_frame   0x00000000000017a8       0xe4 /home/charles/linux/code/tfa/mp157_alientek/tf-a-stm32mp-2.2.r1-r0/tf-a-stm32mp-2.2.r1/../build/optee/bl2/desc_image_load.o
 .debug_frame   0x000000000000188c       0x5c /home/charles/linux/code/tfa/mp157_alientek/tf-a-stm32mp-2.2.r1-r0/tf-a-stm32mp-2.2.r1/../build/optee/bl2/plat_image_load.o
 .debug_frame   0x00000000000018e8       0x88 /home/charles/linux/code/tfa/mp157_alientek/tf-a-stm32mp-2.2.r1-r0/tf-a-stm32mp-2.2.r1/../build/optee/bl2/optee_utils.o
 .debug_frame   0x0000000000001970       0x34 /home/charles/linux/code/tfa/mp157_alientek/tf-a-stm32mp-2.2.r1-r0/tf-a-stm32mp-2.2.r1/../build/optee/bl2/bl2_image_load_v2.o
 .debug_frame   0x00000000000019a4       0x48 /home/charles/linux/code/tfa/mp157_alientek/tf-a-stm32mp-2.2.r1-r0/tf-a-stm32mp-2.2.r1/../build/optee/bl2/bl2_main.o
 .debug_frame   0x00000000000019ec       0x20 /home/charles/linux/code/tfa/mp157_alientek/tf-a-stm32mp-2.2.r1-r0/tf-a-stm32mp-2.2.r1/../build/optee/bl2/bl2_arch_setup.o
 .debug_frame   0x0000000000001a0c       0x80 /home/charles/linux/code/tfa/mp157_alientek/tf-a-stm32mp-2.2.r1-r0/tf-a-stm32mp-2.2.r1/../build/optee/bl2/bl_common.o
 .debug_frame   0x0000000000001a8c       0x60 /home/charles/linux/code/tfa/mp157_alientek/tf-a-stm32mp-2.2.r1-r0/tf-a-stm32mp-2.2.r1/../build/optee/bl2/tf_log.o
 .debug_frame   0x0000000000001aec       0xdc /home/charles/linux/code/tfa/mp157_alientek/tf-a-stm32mp-2.2.r1-r0/tf-a-stm32mp-2.2.r1/../build/optee/bl2/multi_console.o
 .debug_frame   0x0000000000001bc8       0x8c /home/charles/linux/code/tfa/mp157_alientek/tf-a-stm32mp-2.2.r1-r0/tf-a-stm32mp-2.2.r1/../build/optee/bl2/plat_bl_common.o
 .debug_frame   0x0000000000001c54       0x20 /home/charles/linux/code/tfa/mp157_alientek/tf-a-stm32mp-2.2.r1-r0/tf-a-stm32mp-2.2.r1/../build/optee/bl2/plat_log_common.o
 .debug_frame   0x0000000000001c74       0x20 /home/charles/linux/code/tfa/mp157_alientek/tf-a-stm32mp-2.2.r1-r0/tf-a-stm32mp-2.2.r1/../build/optee/bl2/popcountsi2.o
 .debug_frame   0x0000000000001c94       0x20 /home/charles/linux/code/tfa/mp157_alientek/tf-a-stm32mp-2.2.r1-r0/tf-a-stm32mp-2.2.r1/../build/optee/bl2/ctzdi2.o
 .debug_frame   0x0000000000001cb4       0x34 /home/charles/linux/code/tfa/mp157_alientek/tf-a-stm32mp-2.2.r1-r0/tf-a-stm32mp-2.2.r1/../build/optee/bl2/udivmoddi4.o
 .debug_frame   0x0000000000001ce8      0x1ac /home/charles/linux/code/tfa/mp157_alientek/tf-a-stm32mp-2.2.r1-r0/tf-a-stm32mp-2.2.r1/../build/optee/bl2/stm32mp_common.o
 .debug_frame   0x0000000000001e94      0x210 /home/charles/linux/code/tfa/mp157_alientek/tf-a-stm32mp-2.2.r1-r0/tf-a-stm32mp-2.2.r1/../build/optee/bl2/stm32mp1_private.o
 .debug_frame   0x00000000000020a4       0xf0 /home/charles/linux/code/tfa/mp157_alientek/tf-a-stm32mp-2.2.r1-r0/tf-a-stm32mp-2.2.r1/../build/optee/bl2/xlat_tables_arch.o
 .debug_frame   0x0000000000002194      0x13c /home/charles/linux/code/tfa/mp157_alientek/tf-a-stm32mp-2.2.r1-r0/tf-a-stm32mp-2.2.r1/../build/optee/bl2/xlat_tables_context.o
 .debug_frame   0x00000000000022d0      0x25c /home/charles/linux/code/tfa/mp157_alientek/tf-a-stm32mp-2.2.r1-r0/tf-a-stm32mp-2.2.r1/../build/optee/bl2/xlat_tables_core.o
 .debug_frame   0x000000000000252c       0xc8 /home/charles/linux/code/tfa/mp157_alientek/tf-a-stm32mp-2.2.r1-r0/tf-a-stm32mp-2.2.r1/../build/optee/bl2/xlat_tables_utils.o
 .debug_frame   0x00000000000025f4      0x10c /home/charles/linux/code/tfa/mp157_alientek/tf-a-stm32mp-2.2.r1-r0/tf-a-stm32mp-2.2.r1/../build/optee/bl2/tzc400.o
 .debug_frame   0x0000000000002700       0x54 /home/charles/linux/code/tfa/mp157_alientek/tf-a-stm32mp-2.2.r1-r0/tf-a-stm32mp-2.2.r1/../build/optee/bl2/delay_timer.o
 .debug_frame   0x0000000000002754       0x54 /home/charles/linux/code/tfa/mp157_alientek/tf-a-stm32mp-2.2.r1-r0/tf-a-stm32mp-2.2.r1/../build/optee/bl2/generic_delay_timer.o
 .debug_frame   0x00000000000027a8      0x334 /home/charles/linux/code/tfa/mp157_alientek/tf-a-stm32mp-2.2.r1-r0/tf-a-stm32mp-2.2.r1/../build/optee/bl2/bsec2.o
 .debug_frame   0x0000000000002adc      0x224 /home/charles/linux/code/tfa/mp157_alientek/tf-a-stm32mp-2.2.r1-r0/tf-a-stm32mp-2.2.r1/../build/optee/bl2/stm32mp_clkfunc.o
 .debug_frame   0x0000000000002d00      0x660 /home/charles/linux/code/tfa/mp157_alientek/tf-a-stm32mp-2.2.r1-r0/tf-a-stm32mp-2.2.r1/../build/optee/bl2/stm32mp1_clk.o
 .debug_frame   0x0000000000003360      0x134 /home/charles/linux/code/tfa/mp157_alientek/tf-a-stm32mp-2.2.r1-r0/tf-a-stm32mp-2.2.r1/../build/optee/bl2/stm32mp1_ddr_helpers.o
 .debug_frame   0x0000000000003494       0xb0 /home/charles/linux/code/tfa/mp157_alientek/tf-a-stm32mp-2.2.r1-r0/tf-a-stm32mp-2.2.r1/../build/optee/bl2/stm32_gpio.o
 .debug_frame   0x0000000000003544      0x1fc /home/charles/linux/code/tfa/mp157_alientek/tf-a-stm32mp-2.2.r1-r0/tf-a-stm32mp-2.2.r1/../build/optee/bl2/stm32_i2c.o
 .debug_frame   0x0000000000003740       0x5c /home/charles/linux/code/tfa/mp157_alientek/tf-a-stm32mp-2.2.r1-r0/tf-a-stm32mp-2.2.r1/../build/optee/bl2/stm32_iwdg.o
 .debug_frame   0x000000000000379c      0x1f4 /home/charles/linux/code/tfa/mp157_alientek/tf-a-stm32mp-2.2.r1-r0/tf-a-stm32mp-2.2.r1/../build/optee/bl2/stm32mp_pmic.o
 .debug_frame   0x0000000000003990      0x250 /home/charles/linux/code/tfa/mp157_alientek/tf-a-stm32mp-2.2.r1-r0/tf-a-stm32mp-2.2.r1/../build/optee/bl2/stpmic1.o
 .debug_frame   0x0000000000003be0       0x40 /home/charles/linux/code/tfa/mp157_alientek/tf-a-stm32mp-2.2.r1-r0/tf-a-stm32mp-2.2.r1/../build/optee/bl2/stm32mp_dummy_regulator.o
 .debug_frame   0x0000000000003c20       0x6c /home/charles/linux/code/tfa/mp157_alientek/tf-a-stm32mp-2.2.r1-r0/tf-a-stm32mp-2.2.r1/../build/optee/bl2/stm32mp_regulator.o
 .debug_frame   0x0000000000003c8c       0x68 /home/charles/linux/code/tfa/mp157_alientek/tf-a-stm32mp-2.2.r1-r0/tf-a-stm32mp-2.2.r1/../build/optee/bl2/stm32mp1_reset.o
 .debug_frame   0x0000000000003cf4      0x344 /home/charles/linux/code/tfa/mp157_alientek/tf-a-stm32mp-2.2.r1-r0/tf-a-stm32mp-2.2.r1/../build/optee/bl2/stm32mp_dt.o
 .debug_frame   0x0000000000004038       0xbc /home/charles/linux/code/tfa/mp157_alientek/tf-a-stm32mp-2.2.r1-r0/tf-a-stm32mp-2.2.r1/../build/optee/bl2/stm32mp_shres_helpers.o
 .debug_frame   0x00000000000040f4       0xc4 /home/charles/linux/code/tfa/mp157_alientek/tf-a-stm32mp-2.2.r1-r0/tf-a-stm32mp-2.2.r1/../build/optee/bl2/stm32mp1_context.o
 .debug_frame   0x00000000000041b8       0x70 /home/charles/linux/code/tfa/mp157_alientek/tf-a-stm32mp-2.2.r1-r0/tf-a-stm32mp-2.2.r1/../build/optee/bl2/stm32mp1_dbgmcu.o
 .debug_frame   0x0000000000004228       0x58 /home/charles/linux/code/tfa/mp157_alientek/tf-a-stm32mp-2.2.r1-r0/tf-a-stm32mp-2.2.r1/../build/optee/bl2/stm32mp1_security.o
 .debug_frame   0x0000000000004280       0x60 /home/charles/linux/code/tfa/mp157_alientek/tf-a-stm32mp-2.2.r1-r0/tf-a-stm32mp-2.2.r1/../build/optee/bl2/stm32mp1_syscfg.o
 .debug_frame   0x00000000000042e0       0x30 /home/charles/linux/code/tfa/mp157_alientek/tf-a-stm32mp-2.2.r1-r0/tf-a-stm32mp-2.2.r1/../build/optee/bl2/spinlock.o
 .debug_frame   0x0000000000004310       0x30 /home/charles/linux/code/tfa/mp157_alientek/tf-a-stm32mp-2.2.r1-r0/tf-a-stm32mp-2.2.r1/../build/optee/bl2/platform_up_stack.o
 .debug_frame   0x0000000000004340       0x30 /home/charles/linux/code/tfa/mp157_alientek/tf-a-stm32mp-2.2.r1-r0/tf-a-stm32mp-2.2.r1/../build/optee/bl2/bl2_el3_entrypoint.o
 .debug_frame   0x0000000000004370       0x60 /home/charles/linux/code/tfa/mp157_alientek/tf-a-stm32mp-2.2.r1-r0/tf-a-stm32mp-2.2.r1/../build/optee/bl2/cpu_helpers.o
 .debug_frame   0x00000000000043d0       0x90 /home/charles/linux/code/tfa/mp157_alientek/tf-a-stm32mp-2.2.r1-r0/tf-a-stm32mp-2.2.r1/../build/optee/bl2/debug.o
 .debug_frame   0x0000000000004460       0xa0 /home/charles/linux/code/tfa/mp157_alientek/tf-a-stm32mp-2.2.r1-r0/tf-a-stm32mp-2.2.r1/../build/optee/bl2/cache_helpers.o
 .debug_frame   0x0000000000004500       0x60 /home/charles/linux/code/tfa/mp157_alientek/tf-a-stm32mp-2.2.r1-r0/tf-a-stm32mp-2.2.r1/../build/optee/bl2/misc_helpers.o
 .debug_frame   0x0000000000004560       0x80 /home/charles/linux/code/tfa/mp157_alientek/tf-a-stm32mp-2.2.r1-r0/tf-a-stm32mp-2.2.r1/../build/optee/bl2/stm32_console.o
 .debug_frame   0x00000000000045e0       0x30 /home/charles/linux/code/tfa/mp157_alientek/tf-a-stm32mp-2.2.r1-r0/tf-a-stm32mp-2.2.r1/../build/optee/bl2/enable_mmu.o
 .debug_frame   0x0000000000004610       0x60 /home/charles/linux/code/tfa/mp157_alientek/tf-a-stm32mp-2.2.r1-r0/tf-a-stm32mp-2.2.r1/../build/optee/bl2/cortex_a7.o
 .debug_frame   0x0000000000004670      0x110 /home/charles/linux/code/tfa/mp157_alientek/tf-a-stm32mp-2.2.r1-r0/tf-a-stm32mp-2.2.r1/../build/optee/bl2/stm32mp1_helper.o
 .debug_frame   0x0000000000004780      0x148 /home/charles/linux/code/tfa/mp157_alientek/tf-a-stm32mp-2.2.r1-r0/tf-a-stm32mp-2.2.r1/../build/optee/lib/libfdt.a(fdt.o)
 .debug_frame   0x00000000000048c8       0x48 /home/charles/linux/code/tfa/mp157_alientek/tf-a-stm32mp-2.2.r1-r0/tf-a-stm32mp-2.2.r1/../build/optee/lib/libfdt.a(fdt_addresses.o)
 .debug_frame   0x0000000000004910      0x4cc /home/charles/linux/code/tfa/mp157_alientek/tf-a-stm32mp-2.2.r1-r0/tf-a-stm32mp-2.2.r1/../build/optee/lib/libfdt.a(fdt_ro.o)
 .debug_frame   0x0000000000004ddc       0x28 /home/charles/linux/code/tfa/mp157_alientek/tf-a-stm32mp-2.2.r1-r0/tf-a-stm32mp-2.2.r1/../build/optee/lib/libc.a(assert.o)
 .debug_frame   0x0000000000004e04       0x28 /home/charles/linux/code/tfa/mp157_alientek/tf-a-stm32mp-2.2.r1-r0/tf-a-stm32mp-2.2.r1/../build/optee/lib/libc.a(memchr.o)
 .debug_frame   0x0000000000004e2c       0x28 /home/charles/linux/code/tfa/mp157_alientek/tf-a-stm32mp-2.2.r1-r0/tf-a-stm32mp-2.2.r1/../build/optee/lib/libc.a(memcmp.o)
 .debug_frame   0x0000000000004e54       0x28 /home/charles/linux/code/tfa/mp157_alientek/tf-a-stm32mp-2.2.r1-r0/tf-a-stm32mp-2.2.r1/../build/optee/lib/libc.a(memcpy.o)
 .debug_frame   0x0000000000004e7c       0x3c /home/charles/linux/code/tfa/mp157_alientek/tf-a-stm32mp-2.2.r1-r0/tf-a-stm32mp-2.2.r1/../build/optee/lib/libc.a(memmove.o)
 .debug_frame   0x0000000000004eb8       0x20 /home/charles/linux/code/tfa/mp157_alientek/tf-a-stm32mp-2.2.r1-r0/tf-a-stm32mp-2.2.r1/../build/optee/lib/libc.a(memset.o)
 .debug_frame   0x0000000000004ed8       0x9c /home/charles/linux/code/tfa/mp157_alientek/tf-a-stm32mp-2.2.r1-r0/tf-a-stm32mp-2.2.r1/../build/optee/lib/libc.a(printf.o)
 .debug_frame   0x0000000000004f74       0x28 /home/charles/linux/code/tfa/mp157_alientek/tf-a-stm32mp-2.2.r1-r0/tf-a-stm32mp-2.2.r1/../build/optee/lib/libc.a(putchar.o)
 .debug_frame   0x0000000000004f9c       0x6c /home/charles/linux/code/tfa/mp157_alientek/tf-a-stm32mp-2.2.r1-r0/tf-a-stm32mp-2.2.r1/../build/optee/lib/libc.a(snprintf.o)
 .debug_frame   0x0000000000005008       0x20 /home/charles/linux/code/tfa/mp157_alientek/tf-a-stm32mp-2.2.r1-r0/tf-a-stm32mp-2.2.r1/../build/optee/lib/libc.a(strchr.o)
 .debug_frame   0x0000000000005028       0x20 /home/charles/linux/code/tfa/mp157_alientek/tf-a-stm32mp-2.2.r1-r0/tf-a-stm32mp-2.2.r1/../build/optee/lib/libc.a(strcmp.o)
 .debug_frame   0x0000000000005048       0x20 /home/charles/linux/code/tfa/mp157_alientek/tf-a-stm32mp-2.2.r1-r0/tf-a-stm32mp-2.2.r1/../build/optee/lib/libc.a(strlen.o)
 .debug_frame   0x0000000000005068       0x28 /home/charles/linux/code/tfa/mp157_alientek/tf-a-stm32mp-2.2.r1-r0/tf-a-stm32mp-2.2.r1/../build/optee/lib/libc.a(strncmp.o)
 .debug_frame   0x0000000000005090       0x20 /home/charles/linux/code/tfa/mp157_alientek/tf-a-stm32mp-2.2.r1-r0/tf-a-stm32mp-2.2.r1/../build/optee/lib/libc.a(strnlen.o)
 .debug_frame   0x00000000000050b0       0x28 /home/charles/linux/code/tfa/mp157_alientek/tf-a-stm32mp-2.2.r1-r0/tf-a-stm32mp-2.2.r1/../build/optee/lib/libc.a(strrchr.o)
