Archive member included to satisfy reference by file (symbol)

/home/charles/linux/code/tfa/mp157_alientek/tf-a-stm32mp-2.2.r1-r0/tf-a-stm32mp-2.2.r1/../build/serialboot/lib/libfdt.a(fdt.o)
                              /home/charles/linux/code/tfa/mp157_alientek/tf-a-stm32mp-2.2.r1-r0/tf-a-stm32mp-2.2.r1/../build/serialboot/bl2/stm32mp_dt.o (fdt_check_header)
/home/charles/linux/code/tfa/mp157_alientek/tf-a-stm32mp-2.2.r1-r0/tf-a-stm32mp-2.2.r1/../build/serialboot/lib/libfdt.a(fdt_addresses.o)
                              /home/charles/linux/code/tfa/mp157_alientek/tf-a-stm32mp-2.2.r1-r0/tf-a-stm32mp-2.2.r1/../build/serialboot/bl2/stm32mp_dt.o (fdt_address_cells)
/home/charles/linux/code/tfa/mp157_alientek/tf-a-stm32mp-2.2.r1-r0/tf-a-stm32mp-2.2.r1/../build/serialboot/lib/libfdt.a(fdt_ro.o)
                              /home/charles/linux/code/tfa/mp157_alientek/tf-a-stm32mp-2.2.r1-r0/tf-a-stm32mp-2.2.r1/../build/serialboot/bl2/stm32mp_clkfunc.o (fdt_get_name)
/home/charles/linux/code/tfa/mp157_alientek/tf-a-stm32mp-2.2.r1-r0/tf-a-stm32mp-2.2.r1/../build/serialboot/lib/libc.a(assert.o)
                              /home/charles/linux/code/tfa/mp157_alientek/tf-a-stm32mp-2.2.r1-r0/tf-a-stm32mp-2.2.r1/../build/serialboot/bl2/io_block.o (__assert)
/home/charles/linux/code/tfa/mp157_alientek/tf-a-stm32mp-2.2.r1-r0/tf-a-stm32mp-2.2.r1/../build/serialboot/lib/libc.a(memchr.o)
                              /home/charles/linux/code/tfa/mp157_alientek/tf-a-stm32mp-2.2.r1-r0/tf-a-stm32mp-2.2.r1/../build/serialboot/lib/libfdt.a(fdt_ro.o) (memchr)
/home/charles/linux/code/tfa/mp157_alientek/tf-a-stm32mp-2.2.r1-r0/tf-a-stm32mp-2.2.r1/../build/serialboot/lib/libc.a(memcmp.o)
                              /home/charles/linux/code/tfa/mp157_alientek/tf-a-stm32mp-2.2.r1-r0/tf-a-stm32mp-2.2.r1/../build/serialboot/bl2/stm32mp_crypto_lib.o (memcmp)
/home/charles/linux/code/tfa/mp157_alientek/tf-a-stm32mp-2.2.r1-r0/tf-a-stm32mp-2.2.r1/../build/serialboot/lib/libc.a(memcpy.o)
                              /home/charles/linux/code/tfa/mp157_alientek/tf-a-stm32mp-2.2.r1-r0/tf-a-stm32mp-2.2.r1/../build/serialboot/bl2/io_block.o (memcpy)
/home/charles/linux/code/tfa/mp157_alientek/tf-a-stm32mp-2.2.r1-r0/tf-a-stm32mp-2.2.r1/../build/serialboot/lib/libc.a(memmove.o)
                              /home/charles/linux/code/tfa/mp157_alientek/tf-a-stm32mp-2.2.r1-r0/tf-a-stm32mp-2.2.r1/../build/serialboot/bl2/xlat_tables_core.o (memmove)
/home/charles/linux/code/tfa/mp157_alientek/tf-a-stm32mp-2.2.r1-r0/tf-a-stm32mp-2.2.r1/../build/serialboot/lib/libc.a(memset.o)
                              /home/charles/linux/code/tfa/mp157_alientek/tf-a-stm32mp-2.2.r1-r0/tf-a-stm32mp-2.2.r1/../build/serialboot/bl2/xlat_tables_core.o (memset)
/home/charles/linux/code/tfa/mp157_alientek/tf-a-stm32mp-2.2.r1-r0/tf-a-stm32mp-2.2.r1/../build/serialboot/lib/libc.a(printf.o)
                              /home/charles/linux/code/tfa/mp157_alientek/tf-a-stm32mp-2.2.r1-r0/tf-a-stm32mp-2.2.r1/../build/serialboot/bl2/tf_log.o (vprintf)
/home/charles/linux/code/tfa/mp157_alientek/tf-a-stm32mp-2.2.r1-r0/tf-a-stm32mp-2.2.r1/../build/serialboot/lib/libc.a(putchar.o)
                              /home/charles/linux/code/tfa/mp157_alientek/tf-a-stm32mp-2.2.r1-r0/tf-a-stm32mp-2.2.r1/../build/serialboot/bl2/tf_log.o (putchar)
/home/charles/linux/code/tfa/mp157_alientek/tf-a-stm32mp-2.2.r1-r0/tf-a-stm32mp-2.2.r1/../build/serialboot/lib/libc.a(snprintf.o)
                              /home/charles/linux/code/tfa/mp157_alientek/tf-a-stm32mp-2.2.r1-r0/tf-a-stm32mp-2.2.r1/../build/serialboot/bl2/stm32mp1_clk.o (snprintf)
/home/charles/linux/code/tfa/mp157_alientek/tf-a-stm32mp-2.2.r1-r0/tf-a-stm32mp-2.2.r1/../build/serialboot/lib/libc.a(strchr.o)
                              /home/charles/linux/code/tfa/mp157_alientek/tf-a-stm32mp-2.2.r1-r0/tf-a-stm32mp-2.2.r1/../build/serialboot/bl2/stm32mp_dt.o (strchr)
/home/charles/linux/code/tfa/mp157_alientek/tf-a-stm32mp-2.2.r1-r0/tf-a-stm32mp-2.2.r1/../build/serialboot/lib/libc.a(strcmp.o)
                              /home/charles/linux/code/tfa/mp157_alientek/tf-a-stm32mp-2.2.r1-r0/tf-a-stm32mp-2.2.r1/../build/serialboot/bl2/partition.o (strcmp)
/home/charles/linux/code/tfa/mp157_alientek/tf-a-stm32mp-2.2.r1-r0/tf-a-stm32mp-2.2.r1/../build/serialboot/lib/libc.a(strlen.o)
                              /home/charles/linux/code/tfa/mp157_alientek/tf-a-stm32mp-2.2.r1-r0/tf-a-stm32mp-2.2.r1/../build/serialboot/bl2/stpmic1.o (strlen)
/home/charles/linux/code/tfa/mp157_alientek/tf-a-stm32mp-2.2.r1-r0/tf-a-stm32mp-2.2.r1/../build/serialboot/lib/libc.a(strncmp.o)
                              /home/charles/linux/code/tfa/mp157_alientek/tf-a-stm32mp-2.2.r1-r0/tf-a-stm32mp-2.2.r1/../build/serialboot/bl2/raw_nand.o (strncmp)
/home/charles/linux/code/tfa/mp157_alientek/tf-a-stm32mp-2.2.r1-r0/tf-a-stm32mp-2.2.r1/../build/serialboot/lib/libc.a(strnlen.o)
                              /home/charles/linux/code/tfa/mp157_alientek/tf-a-stm32mp-2.2.r1-r0/tf-a-stm32mp-2.2.r1/../build/serialboot/lib/libfdt.a(fdt_ro.o) (strnlen)
/home/charles/linux/code/tfa/mp157_alientek/tf-a-stm32mp-2.2.r1-r0/tf-a-stm32mp-2.2.r1/../build/serialboot/lib/libc.a(strrchr.o)
                              /home/charles/linux/code/tfa/mp157_alientek/tf-a-stm32mp-2.2.r1-r0/tf-a-stm32mp-2.2.r1/../build/serialboot/lib/libfdt.a(fdt_ro.o) (strrchr)

Allocating common symbols
Common symbol       size              file

mmu_cfg_params      0x18              /home/charles/linux/code/tfa/mp157_alientek/tf-a-stm32mp-2.2.r1-r0/tf-a-stm32mp-2.2.r1/../build/serialboot/bl2/xlat_tables_context.o
auth_img_flags      0x78              /home/charles/linux/code/tfa/mp157_alientek/tf-a-stm32mp-2.2.r1-r0/tf-a-stm32mp-2.2.r1/../build/serialboot/bl2/stm32mp_cot.o
console_list        0x4               /home/charles/linux/code/tfa/mp157_alientek/tf-a-stm32mp-2.2.r1-r0/tf-a-stm32mp-2.2.r1/../build/serialboot/bl2/multi_console.o

Discarded input sections

 .text          0x0000000000000000        0x0 /home/charles/linux/code/tfa/mp157_alientek/tf-a-stm32mp-2.2.r1-r0/tf-a-stm32mp-2.2.r1/../build/serialboot/bl2/build_message.o
 .data          0x0000000000000000        0x0 /home/charles/linux/code/tfa/mp157_alientek/tf-a-stm32mp-2.2.r1-r0/tf-a-stm32mp-2.2.r1/../build/serialboot/bl2/build_message.o
 .bss           0x0000000000000000        0x0 /home/charles/linux/code/tfa/mp157_alientek/tf-a-stm32mp-2.2.r1-r0/tf-a-stm32mp-2.2.r1/../build/serialboot/bl2/build_message.o
 .text          0x0000000000000000        0x0 /home/charles/linux/code/tfa/mp157_alientek/tf-a-stm32mp-2.2.r1-r0/tf-a-stm32mp-2.2.r1/../build/serialboot/bl2/io_block.o
 .data          0x0000000000000000        0x0 /home/charles/linux/code/tfa/mp157_alientek/tf-a-stm32mp-2.2.r1-r0/tf-a-stm32mp-2.2.r1/../build/serialboot/bl2/io_block.o
 .bss           0x0000000000000000        0x0 /home/charles/linux/code/tfa/mp157_alientek/tf-a-stm32mp-2.2.r1-r0/tf-a-stm32mp-2.2.r1/../build/serialboot/bl2/io_block.o
 .text          0x0000000000000000        0x0 /home/charles/linux/code/tfa/mp157_alientek/tf-a-stm32mp-2.2.r1-r0/tf-a-stm32mp-2.2.r1/../build/serialboot/bl2/io_dummy.o
 .data          0x0000000000000000        0x0 /home/charles/linux/code/tfa/mp157_alientek/tf-a-stm32mp-2.2.r1-r0/tf-a-stm32mp-2.2.r1/../build/serialboot/bl2/io_dummy.o
 .bss           0x0000000000000000        0x0 /home/charles/linux/code/tfa/mp157_alientek/tf-a-stm32mp-2.2.r1-r0/tf-a-stm32mp-2.2.r1/../build/serialboot/bl2/io_dummy.o
 .text          0x0000000000000000        0x0 /home/charles/linux/code/tfa/mp157_alientek/tf-a-stm32mp-2.2.r1-r0/tf-a-stm32mp-2.2.r1/../build/serialboot/bl2/io_mtd.o
 .data          0x0000000000000000        0x0 /home/charles/linux/code/tfa/mp157_alientek/tf-a-stm32mp-2.2.r1-r0/tf-a-stm32mp-2.2.r1/../build/serialboot/bl2/io_mtd.o
 .bss           0x0000000000000000        0x0 /home/charles/linux/code/tfa/mp157_alientek/tf-a-stm32mp-2.2.r1-r0/tf-a-stm32mp-2.2.r1/../build/serialboot/bl2/io_mtd.o
 .text          0x0000000000000000        0x0 /home/charles/linux/code/tfa/mp157_alientek/tf-a-stm32mp-2.2.r1-r0/tf-a-stm32mp-2.2.r1/../build/serialboot/bl2/io_storage.o
 .data          0x0000000000000000        0x0 /home/charles/linux/code/tfa/mp157_alientek/tf-a-stm32mp-2.2.r1-r0/tf-a-stm32mp-2.2.r1/../build/serialboot/bl2/io_storage.o
 .bss           0x0000000000000000        0x0 /home/charles/linux/code/tfa/mp157_alientek/tf-a-stm32mp-2.2.r1-r0/tf-a-stm32mp-2.2.r1/../build/serialboot/bl2/io_storage.o
 .text.io_write
                0x0000000000000000       0x48 /home/charles/linux/code/tfa/mp157_alientek/tf-a-stm32mp-2.2.r1-r0/tf-a-stm32mp-2.2.r1/../build/serialboot/bl2/io_storage.o
 .text          0x0000000000000000        0x0 /home/charles/linux/code/tfa/mp157_alientek/tf-a-stm32mp-2.2.r1-r0/tf-a-stm32mp-2.2.r1/../build/serialboot/bl2/stm32_hash.o
 .data          0x0000000000000000        0x0 /home/charles/linux/code/tfa/mp157_alientek/tf-a-stm32mp-2.2.r1-r0/tf-a-stm32mp-2.2.r1/../build/serialboot/bl2/stm32_hash.o
 .bss           0x0000000000000000        0x0 /home/charles/linux/code/tfa/mp157_alientek/tf-a-stm32mp-2.2.r1-r0/tf-a-stm32mp-2.2.r1/../build/serialboot/bl2/stm32_hash.o
 .text          0x0000000000000000        0x0 /home/charles/linux/code/tfa/mp157_alientek/tf-a-stm32mp-2.2.r1-r0/tf-a-stm32mp-2.2.r1/../build/serialboot/bl2/io_stm32image.o
 .data          0x0000000000000000        0x0 /home/charles/linux/code/tfa/mp157_alientek/tf-a-stm32mp-2.2.r1-r0/tf-a-stm32mp-2.2.r1/../build/serialboot/bl2/io_stm32image.o
 .bss           0x0000000000000000        0x0 /home/charles/linux/code/tfa/mp157_alientek/tf-a-stm32mp-2.2.r1-r0/tf-a-stm32mp-2.2.r1/../build/serialboot/bl2/io_stm32image.o
 .text          0x0000000000000000        0x0 /home/charles/linux/code/tfa/mp157_alientek/tf-a-stm32mp-2.2.r1-r0/tf-a-stm32mp-2.2.r1/../build/serialboot/bl2/bl2_io_storage.o
 .data          0x0000000000000000        0x0 /home/charles/linux/code/tfa/mp157_alientek/tf-a-stm32mp-2.2.r1-r0/tf-a-stm32mp-2.2.r1/../build/serialboot/bl2/bl2_io_storage.o
 .bss           0x0000000000000000        0x0 /home/charles/linux/code/tfa/mp157_alientek/tf-a-stm32mp-2.2.r1-r0/tf-a-stm32mp-2.2.r1/../build/serialboot/bl2/bl2_io_storage.o
 .text          0x0000000000000000        0x0 /home/charles/linux/code/tfa/mp157_alientek/tf-a-stm32mp-2.2.r1-r0/tf-a-stm32mp-2.2.r1/../build/serialboot/bl2/bl2_plat_setup.o
 .data          0x0000000000000000        0x0 /home/charles/linux/code/tfa/mp157_alientek/tf-a-stm32mp-2.2.r1-r0/tf-a-stm32mp-2.2.r1/../build/serialboot/bl2/bl2_plat_setup.o
 .bss           0x0000000000000000        0x0 /home/charles/linux/code/tfa/mp157_alientek/tf-a-stm32mp-2.2.r1-r0/tf-a-stm32mp-2.2.r1/../build/serialboot/bl2/bl2_plat_setup.o
 .text          0x0000000000000000        0x0 /home/charles/linux/code/tfa/mp157_alientek/tf-a-stm32mp-2.2.r1-r0/tf-a-stm32mp-2.2.r1/../build/serialboot/bl2/auth_mod.o
 .data          0x0000000000000000        0x0 /home/charles/linux/code/tfa/mp157_alientek/tf-a-stm32mp-2.2.r1-r0/tf-a-stm32mp-2.2.r1/../build/serialboot/bl2/auth_mod.o
 .bss           0x0000000000000000        0x0 /home/charles/linux/code/tfa/mp157_alientek/tf-a-stm32mp-2.2.r1-r0/tf-a-stm32mp-2.2.r1/../build/serialboot/bl2/auth_mod.o
 .text          0x0000000000000000        0x0 /home/charles/linux/code/tfa/mp157_alientek/tf-a-stm32mp-2.2.r1-r0/tf-a-stm32mp-2.2.r1/../build/serialboot/bl2/crypto_mod.o
 .data          0x0000000000000000        0x0 /home/charles/linux/code/tfa/mp157_alientek/tf-a-stm32mp-2.2.r1-r0/tf-a-stm32mp-2.2.r1/../build/serialboot/bl2/crypto_mod.o
 .bss           0x0000000000000000        0x0 /home/charles/linux/code/tfa/mp157_alientek/tf-a-stm32mp-2.2.r1-r0/tf-a-stm32mp-2.2.r1/../build/serialboot/bl2/crypto_mod.o
 .text          0x0000000000000000        0x0 /home/charles/linux/code/tfa/mp157_alientek/tf-a-stm32mp-2.2.r1-r0/tf-a-stm32mp-2.2.r1/../build/serialboot/bl2/img_parser_mod.o
 .data          0x0000000000000000        0x0 /home/charles/linux/code/tfa/mp157_alientek/tf-a-stm32mp-2.2.r1-r0/tf-a-stm32mp-2.2.r1/../build/serialboot/bl2/img_parser_mod.o
 .bss           0x0000000000000000        0x0 /home/charles/linux/code/tfa/mp157_alientek/tf-a-stm32mp-2.2.r1-r0/tf-a-stm32mp-2.2.r1/../build/serialboot/bl2/img_parser_mod.o
 .text          0x0000000000000000        0x0 /home/charles/linux/code/tfa/mp157_alientek/tf-a-stm32mp-2.2.r1-r0/tf-a-stm32mp-2.2.r1/../build/serialboot/bl2/stm32mp_cot.o
 .data          0x0000000000000000        0x0 /home/charles/linux/code/tfa/mp157_alientek/tf-a-stm32mp-2.2.r1-r0/tf-a-stm32mp-2.2.r1/../build/serialboot/bl2/stm32mp_cot.o
 .bss           0x0000000000000000        0x0 /home/charles/linux/code/tfa/mp157_alientek/tf-a-stm32mp-2.2.r1-r0/tf-a-stm32mp-2.2.r1/../build/serialboot/bl2/stm32mp_cot.o
 .text          0x0000000000000000        0x0 /home/charles/linux/code/tfa/mp157_alientek/tf-a-stm32mp-2.2.r1-r0/tf-a-stm32mp-2.2.r1/../build/serialboot/bl2/stm32mp_crypto_lib.o
 .data          0x0000000000000000        0x0 /home/charles/linux/code/tfa/mp157_alientek/tf-a-stm32mp-2.2.r1-r0/tf-a-stm32mp-2.2.r1/../build/serialboot/bl2/stm32mp_crypto_lib.o
 .bss           0x0000000000000000        0x0 /home/charles/linux/code/tfa/mp157_alientek/tf-a-stm32mp-2.2.r1-r0/tf-a-stm32mp-2.2.r1/../build/serialboot/bl2/stm32mp_crypto_lib.o
 .text          0x0000000000000000        0x0 /home/charles/linux/code/tfa/mp157_alientek/tf-a-stm32mp-2.2.r1-r0/tf-a-stm32mp-2.2.r1/../build/serialboot/bl2/stm32mp_img_parser_lib.o
 .data          0x0000000000000000        0x0 /home/charles/linux/code/tfa/mp157_alientek/tf-a-stm32mp-2.2.r1-r0/tf-a-stm32mp-2.2.r1/../build/serialboot/bl2/stm32mp_img_parser_lib.o
 .bss           0x0000000000000000        0x0 /home/charles/linux/code/tfa/mp157_alientek/tf-a-stm32mp-2.2.r1-r0/tf-a-stm32mp-2.2.r1/../build/serialboot/bl2/stm32mp_img_parser_lib.o
 .text          0x0000000000000000        0x0 /home/charles/linux/code/tfa/mp157_alientek/tf-a-stm32mp-2.2.r1-r0/tf-a-stm32mp-2.2.r1/../build/serialboot/bl2/stm32mp_trusted_boot.o
 .data          0x0000000000000000        0x0 /home/charles/linux/code/tfa/mp157_alientek/tf-a-stm32mp-2.2.r1-r0/tf-a-stm32mp-2.2.r1/../build/serialboot/bl2/stm32mp_trusted_boot.o
 .bss           0x0000000000000000        0x0 /home/charles/linux/code/tfa/mp157_alientek/tf-a-stm32mp-2.2.r1-r0/tf-a-stm32mp-2.2.r1/../build/serialboot/bl2/stm32mp_trusted_boot.o
 .text          0x0000000000000000        0x0 /home/charles/linux/code/tfa/mp157_alientek/tf-a-stm32mp-2.2.r1-r0/tf-a-stm32mp-2.2.r1/../build/serialboot/bl2/mmc.o
 .data          0x0000000000000000        0x0 /home/charles/linux/code/tfa/mp157_alientek/tf-a-stm32mp-2.2.r1-r0/tf-a-stm32mp-2.2.r1/../build/serialboot/bl2/mmc.o
 .bss           0x0000000000000000        0x0 /home/charles/linux/code/tfa/mp157_alientek/tf-a-stm32mp-2.2.r1-r0/tf-a-stm32mp-2.2.r1/../build/serialboot/bl2/mmc.o
 .text.mmc_write_blocks
                0x0000000000000000       0xc4 /home/charles/linux/code/tfa/mp157_alientek/tf-a-stm32mp-2.2.r1-r0/tf-a-stm32mp-2.2.r1/../build/serialboot/bl2/mmc.o
 .text.mmc_erase_blocks
                0x0000000000000000       0x6c /home/charles/linux/code/tfa/mp157_alientek/tf-a-stm32mp-2.2.r1-r0/tf-a-stm32mp-2.2.r1/../build/serialboot/bl2/mmc.o
 .text.mmc_rpmb_read_blocks
                0x0000000000000000       0x28 /home/charles/linux/code/tfa/mp157_alientek/tf-a-stm32mp-2.2.r1-r0/tf-a-stm32mp-2.2.r1/../build/serialboot/bl2/mmc.o
 .text.mmc_rpmb_write_blocks
                0x0000000000000000       0x28 /home/charles/linux/code/tfa/mp157_alientek/tf-a-stm32mp-2.2.r1-r0/tf-a-stm32mp-2.2.r1/../build/serialboot/bl2/mmc.o
 .text.mmc_rpmb_erase_blocks
                0x0000000000000000       0x24 /home/charles/linux/code/tfa/mp157_alientek/tf-a-stm32mp-2.2.r1-r0/tf-a-stm32mp-2.2.r1/../build/serialboot/bl2/mmc.o
 .text          0x0000000000000000        0x0 /home/charles/linux/code/tfa/mp157_alientek/tf-a-stm32mp-2.2.r1-r0/tf-a-stm32mp-2.2.r1/../build/serialboot/bl2/gpt.o
 .data          0x0000000000000000        0x0 /home/charles/linux/code/tfa/mp157_alientek/tf-a-stm32mp-2.2.r1-r0/tf-a-stm32mp-2.2.r1/../build/serialboot/bl2/gpt.o
 .bss           0x0000000000000000        0x0 /home/charles/linux/code/tfa/mp157_alientek/tf-a-stm32mp-2.2.r1-r0/tf-a-stm32mp-2.2.r1/../build/serialboot/bl2/gpt.o
 .text          0x0000000000000000        0x0 /home/charles/linux/code/tfa/mp157_alientek/tf-a-stm32mp-2.2.r1-r0/tf-a-stm32mp-2.2.r1/../build/serialboot/bl2/partition.o
 .data          0x0000000000000000        0x0 /home/charles/linux/code/tfa/mp157_alientek/tf-a-stm32mp-2.2.r1-r0/tf-a-stm32mp-2.2.r1/../build/serialboot/bl2/partition.o
 .bss           0x0000000000000000        0x0 /home/charles/linux/code/tfa/mp157_alientek/tf-a-stm32mp-2.2.r1-r0/tf-a-stm32mp-2.2.r1/../build/serialboot/bl2/partition.o
 .text.get_partition_entry_list
                0x0000000000000000        0x8 /home/charles/linux/code/tfa/mp157_alientek/tf-a-stm32mp-2.2.r1-r0/tf-a-stm32mp-2.2.r1/../build/serialboot/bl2/partition.o
 .text          0x0000000000000000        0x0 /home/charles/linux/code/tfa/mp157_alientek/tf-a-stm32mp-2.2.r1-r0/tf-a-stm32mp-2.2.r1/../build/serialboot/bl2/io_mmc.o
 .data          0x0000000000000000        0x0 /home/charles/linux/code/tfa/mp157_alientek/tf-a-stm32mp-2.2.r1-r0/tf-a-stm32mp-2.2.r1/../build/serialboot/bl2/io_mmc.o
 .bss           0x0000000000000000        0x0 /home/charles/linux/code/tfa/mp157_alientek/tf-a-stm32mp-2.2.r1-r0/tf-a-stm32mp-2.2.r1/../build/serialboot/bl2/io_mmc.o
 .text          0x0000000000000000        0x0 /home/charles/linux/code/tfa/mp157_alientek/tf-a-stm32mp-2.2.r1-r0/tf-a-stm32mp-2.2.r1/../build/serialboot/bl2/stm32_sdmmc2.o
 .data          0x0000000000000000        0x0 /home/charles/linux/code/tfa/mp157_alientek/tf-a-stm32mp-2.2.r1-r0/tf-a-stm32mp-2.2.r1/../build/serialboot/bl2/stm32_sdmmc2.o
 .bss           0x0000000000000000        0x0 /home/charles/linux/code/tfa/mp157_alientek/tf-a-stm32mp-2.2.r1-r0/tf-a-stm32mp-2.2.r1/../build/serialboot/bl2/stm32_sdmmc2.o
 .text          0x0000000000000000        0x0 /home/charles/linux/code/tfa/mp157_alientek/tf-a-stm32mp-2.2.r1-r0/tf-a-stm32mp-2.2.r1/../build/serialboot/bl2/raw_nand.o
 .data          0x0000000000000000        0x0 /home/charles/linux/code/tfa/mp157_alientek/tf-a-stm32mp-2.2.r1-r0/tf-a-stm32mp-2.2.r1/../build/serialboot/bl2/raw_nand.o
 .bss           0x0000000000000000        0x0 /home/charles/linux/code/tfa/mp157_alientek/tf-a-stm32mp-2.2.r1-r0/tf-a-stm32mp-2.2.r1/../build/serialboot/bl2/raw_nand.o
 .text.plat_get_raw_nand_data
                0x0000000000000000        0x4 /home/charles/linux/code/tfa/mp157_alientek/tf-a-stm32mp-2.2.r1-r0/tf-a-stm32mp-2.2.r1/../build/serialboot/bl2/raw_nand.o
 .text          0x0000000000000000        0x0 /home/charles/linux/code/tfa/mp157_alientek/tf-a-stm32mp-2.2.r1-r0/tf-a-stm32mp-2.2.r1/../build/serialboot/bl2/stm32_fmc2_nand.o
 .data          0x0000000000000000        0x0 /home/charles/linux/code/tfa/mp157_alientek/tf-a-stm32mp-2.2.r1-r0/tf-a-stm32mp-2.2.r1/../build/serialboot/bl2/stm32_fmc2_nand.o
 .bss           0x0000000000000000        0x0 /home/charles/linux/code/tfa/mp157_alientek/tf-a-stm32mp-2.2.r1-r0/tf-a-stm32mp-2.2.r1/../build/serialboot/bl2/stm32_fmc2_nand.o
 .text          0x0000000000000000        0x0 /home/charles/linux/code/tfa/mp157_alientek/tf-a-stm32mp-2.2.r1-r0/tf-a-stm32mp-2.2.r1/../build/serialboot/bl2/spi_nand.o
 .data          0x0000000000000000        0x0 /home/charles/linux/code/tfa/mp157_alientek/tf-a-stm32mp-2.2.r1-r0/tf-a-stm32mp-2.2.r1/../build/serialboot/bl2/spi_nand.o
 .bss           0x0000000000000000        0x0 /home/charles/linux/code/tfa/mp157_alientek/tf-a-stm32mp-2.2.r1-r0/tf-a-stm32mp-2.2.r1/../build/serialboot/bl2/spi_nand.o
 .text.plat_get_spi_nand_data
                0x0000000000000000        0x4 /home/charles/linux/code/tfa/mp157_alientek/tf-a-stm32mp-2.2.r1-r0/tf-a-stm32mp-2.2.r1/../build/serialboot/bl2/spi_nand.o
 .text          0x0000000000000000        0x0 /home/charles/linux/code/tfa/mp157_alientek/tf-a-stm32mp-2.2.r1-r0/tf-a-stm32mp-2.2.r1/../build/serialboot/bl2/spi_nor.o
 .data          0x0000000000000000        0x0 /home/charles/linux/code/tfa/mp157_alientek/tf-a-stm32mp-2.2.r1-r0/tf-a-stm32mp-2.2.r1/../build/serialboot/bl2/spi_nor.o
 .bss           0x0000000000000000        0x0 /home/charles/linux/code/tfa/mp157_alientek/tf-a-stm32mp-2.2.r1-r0/tf-a-stm32mp-2.2.r1/../build/serialboot/bl2/spi_nor.o
 .text.plat_get_nor_data
                0x0000000000000000        0x4 /home/charles/linux/code/tfa/mp157_alientek/tf-a-stm32mp-2.2.r1-r0/tf-a-stm32mp-2.2.r1/../build/serialboot/bl2/spi_nor.o
 .text          0x0000000000000000        0x0 /home/charles/linux/code/tfa/mp157_alientek/tf-a-stm32mp-2.2.r1-r0/tf-a-stm32mp-2.2.r1/../build/serialboot/bl2/spi_mem.o
 .data          0x0000000000000000        0x0 /home/charles/linux/code/tfa/mp157_alientek/tf-a-stm32mp-2.2.r1-r0/tf-a-stm32mp-2.2.r1/../build/serialboot/bl2/spi_mem.o
 .bss           0x0000000000000000        0x0 /home/charles/linux/code/tfa/mp157_alientek/tf-a-stm32mp-2.2.r1-r0/tf-a-stm32mp-2.2.r1/../build/serialboot/bl2/spi_mem.o
 .text          0x0000000000000000        0x0 /home/charles/linux/code/tfa/mp157_alientek/tf-a-stm32mp-2.2.r1-r0/tf-a-stm32mp-2.2.r1/../build/serialboot/bl2/stm32_qspi.o
 .data          0x0000000000000000        0x0 /home/charles/linux/code/tfa/mp157_alientek/tf-a-stm32mp-2.2.r1-r0/tf-a-stm32mp-2.2.r1/../build/serialboot/bl2/stm32_qspi.o
 .bss           0x0000000000000000        0x0 /home/charles/linux/code/tfa/mp157_alientek/tf-a-stm32mp-2.2.r1-r0/tf-a-stm32mp-2.2.r1/../build/serialboot/bl2/stm32_qspi.o
 .text          0x0000000000000000        0x0 /home/charles/linux/code/tfa/mp157_alientek/tf-a-stm32mp-2.2.r1-r0/tf-a-stm32mp-2.2.r1/../build/serialboot/bl2/core.o
 .data          0x0000000000000000        0x0 /home/charles/linux/code/tfa/mp157_alientek/tf-a-stm32mp-2.2.r1-r0/tf-a-stm32mp-2.2.r1/../build/serialboot/bl2/core.o
 .bss           0x0000000000000000        0x0 /home/charles/linux/code/tfa/mp157_alientek/tf-a-stm32mp-2.2.r1-r0/tf-a-stm32mp-2.2.r1/../build/serialboot/bl2/core.o
 .text          0x0000000000000000        0x0 /home/charles/linux/code/tfa/mp157_alientek/tf-a-stm32mp-2.2.r1-r0/tf-a-stm32mp-2.2.r1/../build/serialboot/bl2/stm32mp1_boot_device.o
 .data          0x0000000000000000        0x0 /home/charles/linux/code/tfa/mp157_alientek/tf-a-stm32mp-2.2.r1-r0/tf-a-stm32mp-2.2.r1/../build/serialboot/bl2/stm32mp1_boot_device.o
 .bss           0x0000000000000000        0x0 /home/charles/linux/code/tfa/mp157_alientek/tf-a-stm32mp-2.2.r1-r0/tf-a-stm32mp-2.2.r1/../build/serialboot/bl2/stm32mp1_boot_device.o
 .text          0x0000000000000000        0x0 /home/charles/linux/code/tfa/mp157_alientek/tf-a-stm32mp-2.2.r1-r0/tf-a-stm32mp-2.2.r1/../build/serialboot/bl2/stm32mp1_ddr.o
 .data          0x0000000000000000        0x0 /home/charles/linux/code/tfa/mp157_alientek/tf-a-stm32mp-2.2.r1-r0/tf-a-stm32mp-2.2.r1/../build/serialboot/bl2/stm32mp1_ddr.o
 .bss           0x0000000000000000        0x0 /home/charles/linux/code/tfa/mp157_alientek/tf-a-stm32mp-2.2.r1-r0/tf-a-stm32mp-2.2.r1/../build/serialboot/bl2/stm32mp1_ddr.o
 .text          0x0000000000000000        0x0 /home/charles/linux/code/tfa/mp157_alientek/tf-a-stm32mp-2.2.r1-r0/tf-a-stm32mp-2.2.r1/../build/serialboot/bl2/stm32mp1_ram.o
 .data          0x0000000000000000        0x0 /home/charles/linux/code/tfa/mp157_alientek/tf-a-stm32mp-2.2.r1-r0/tf-a-stm32mp-2.2.r1/../build/serialboot/bl2/stm32mp1_ram.o
 .bss           0x0000000000000000        0x0 /home/charles/linux/code/tfa/mp157_alientek/tf-a-stm32mp-2.2.r1-r0/tf-a-stm32mp-2.2.r1/../build/serialboot/bl2/stm32mp1_ram.o
 .text          0x0000000000000000        0x0 /home/charles/linux/code/tfa/mp157_alientek/tf-a-stm32mp-2.2.r1-r0/tf-a-stm32mp-2.2.r1/../build/serialboot/bl2/desc_image_load.o
 .data          0x0000000000000000        0x0 /home/charles/linux/code/tfa/mp157_alientek/tf-a-stm32mp-2.2.r1-r0/tf-a-stm32mp-2.2.r1/../build/serialboot/bl2/desc_image_load.o
 .bss           0x0000000000000000        0x0 /home/charles/linux/code/tfa/mp157_alientek/tf-a-stm32mp-2.2.r1-r0/tf-a-stm32mp-2.2.r1/../build/serialboot/bl2/desc_image_load.o
 .text.populate_next_bl_params_config
                0x0000000000000000       0x64 /home/charles/linux/code/tfa/mp157_alientek/tf-a-stm32mp-2.2.r1-r0/tf-a-stm32mp-2.2.r1/../build/serialboot/bl2/desc_image_load.o
 .text.bl31_params_parse_helper
                0x0000000000000000       0x98 /home/charles/linux/code/tfa/mp157_alientek/tf-a-stm32mp-2.2.r1-r0/tf-a-stm32mp-2.2.r1/../build/serialboot/bl2/desc_image_load.o
 .text          0x0000000000000000        0x0 /home/charles/linux/code/tfa/mp157_alientek/tf-a-stm32mp-2.2.r1-r0/tf-a-stm32mp-2.2.r1/../build/serialboot/bl2/plat_bl2_mem_params_desc.o
 .data          0x0000000000000000        0x0 /home/charles/linux/code/tfa/mp157_alientek/tf-a-stm32mp-2.2.r1-r0/tf-a-stm32mp-2.2.r1/../build/serialboot/bl2/plat_bl2_mem_params_desc.o
 .bss           0x0000000000000000        0x0 /home/charles/linux/code/tfa/mp157_alientek/tf-a-stm32mp-2.2.r1-r0/tf-a-stm32mp-2.2.r1/../build/serialboot/bl2/plat_bl2_mem_params_desc.o
 .text          0x0000000000000000        0x0 /home/charles/linux/code/tfa/mp157_alientek/tf-a-stm32mp-2.2.r1-r0/tf-a-stm32mp-2.2.r1/../build/serialboot/bl2/plat_image_load.o
 .data          0x0000000000000000        0x0 /home/charles/linux/code/tfa/mp157_alientek/tf-a-stm32mp-2.2.r1-r0/tf-a-stm32mp-2.2.r1/../build/serialboot/bl2/plat_image_load.o
 .bss           0x0000000000000000        0x0 /home/charles/linux/code/tfa/mp157_alientek/tf-a-stm32mp-2.2.r1-r0/tf-a-stm32mp-2.2.r1/../build/serialboot/bl2/plat_image_load.o
 .text          0x0000000000000000        0x0 /home/charles/linux/code/tfa/mp157_alientek/tf-a-stm32mp-2.2.r1-r0/tf-a-stm32mp-2.2.r1/../build/serialboot/bl2/bl2_image_load_v2.o
 .data          0x0000000000000000        0x0 /home/charles/linux/code/tfa/mp157_alientek/tf-a-stm32mp-2.2.r1-r0/tf-a-stm32mp-2.2.r1/../build/serialboot/bl2/bl2_image_load_v2.o
 .bss           0x0000000000000000        0x0 /home/charles/linux/code/tfa/mp157_alientek/tf-a-stm32mp-2.2.r1-r0/tf-a-stm32mp-2.2.r1/../build/serialboot/bl2/bl2_image_load_v2.o
 .text          0x0000000000000000        0x0 /home/charles/linux/code/tfa/mp157_alientek/tf-a-stm32mp-2.2.r1-r0/tf-a-stm32mp-2.2.r1/../build/serialboot/bl2/bl2_main.o
 .data          0x0000000000000000        0x0 /home/charles/linux/code/tfa/mp157_alientek/tf-a-stm32mp-2.2.r1-r0/tf-a-stm32mp-2.2.r1/../build/serialboot/bl2/bl2_main.o
 .bss           0x0000000000000000        0x0 /home/charles/linux/code/tfa/mp157_alientek/tf-a-stm32mp-2.2.r1-r0/tf-a-stm32mp-2.2.r1/../build/serialboot/bl2/bl2_main.o
 .text          0x0000000000000000        0x0 /home/charles/linux/code/tfa/mp157_alientek/tf-a-stm32mp-2.2.r1-r0/tf-a-stm32mp-2.2.r1/../build/serialboot/bl2/bl2_arch_setup.o
 .data          0x0000000000000000        0x0 /home/charles/linux/code/tfa/mp157_alientek/tf-a-stm32mp-2.2.r1-r0/tf-a-stm32mp-2.2.r1/../build/serialboot/bl2/bl2_arch_setup.o
 .bss           0x0000000000000000        0x0 /home/charles/linux/code/tfa/mp157_alientek/tf-a-stm32mp-2.2.r1-r0/tf-a-stm32mp-2.2.r1/../build/serialboot/bl2/bl2_arch_setup.o
 .text          0x0000000000000000        0x0 /home/charles/linux/code/tfa/mp157_alientek/tf-a-stm32mp-2.2.r1-r0/tf-a-stm32mp-2.2.r1/../build/serialboot/bl2/errata_report.o
 .data          0x0000000000000000        0x0 /home/charles/linux/code/tfa/mp157_alientek/tf-a-stm32mp-2.2.r1-r0/tf-a-stm32mp-2.2.r1/../build/serialboot/bl2/errata_report.o
 .bss           0x0000000000000000        0x0 /home/charles/linux/code/tfa/mp157_alientek/tf-a-stm32mp-2.2.r1-r0/tf-a-stm32mp-2.2.r1/../build/serialboot/bl2/errata_report.o
 .text.errata_needs_reporting
                0x0000000000000000       0x2a /home/charles/linux/code/tfa/mp157_alientek/tf-a-stm32mp-2.2.r1-r0/tf-a-stm32mp-2.2.r1/../build/serialboot/bl2/errata_report.o
 .rodata.errata_print_msg.str1.1
                0x0000000000000000       0x7c /home/charles/linux/code/tfa/mp157_alientek/tf-a-stm32mp-2.2.r1-r0/tf-a-stm32mp-2.2.r1/../build/serialboot/bl2/errata_report.o
 .text.errata_print_msg
                0x0000000000000000       0x60 /home/charles/linux/code/tfa/mp157_alientek/tf-a-stm32mp-2.2.r1-r0/tf-a-stm32mp-2.2.r1/../build/serialboot/bl2/errata_report.o
 .debug_info    0x0000000000000000      0x418 /home/charles/linux/code/tfa/mp157_alientek/tf-a-stm32mp-2.2.r1-r0/tf-a-stm32mp-2.2.r1/../build/serialboot/bl2/errata_report.o
 .debug_abbrev  0x0000000000000000      0x204 /home/charles/linux/code/tfa/mp157_alientek/tf-a-stm32mp-2.2.r1-r0/tf-a-stm32mp-2.2.r1/../build/serialboot/bl2/errata_report.o
 .debug_loc     0x0000000000000000      0x242 /home/charles/linux/code/tfa/mp157_alientek/tf-a-stm32mp-2.2.r1-r0/tf-a-stm32mp-2.2.r1/../build/serialboot/bl2/errata_report.o
 .debug_aranges
                0x0000000000000000       0x28 /home/charles/linux/code/tfa/mp157_alientek/tf-a-stm32mp-2.2.r1-r0/tf-a-stm32mp-2.2.r1/../build/serialboot/bl2/errata_report.o
 .debug_ranges  0x0000000000000000       0x18 /home/charles/linux/code/tfa/mp157_alientek/tf-a-stm32mp-2.2.r1-r0/tf-a-stm32mp-2.2.r1/../build/serialboot/bl2/errata_report.o
 .debug_line    0x0000000000000000      0x1f8 /home/charles/linux/code/tfa/mp157_alientek/tf-a-stm32mp-2.2.r1-r0/tf-a-stm32mp-2.2.r1/../build/serialboot/bl2/errata_report.o
 .debug_str     0x0000000000000000      0x3f2 /home/charles/linux/code/tfa/mp157_alientek/tf-a-stm32mp-2.2.r1-r0/tf-a-stm32mp-2.2.r1/../build/serialboot/bl2/errata_report.o
 .comment       0x0000000000000000       0x5b /home/charles/linux/code/tfa/mp157_alientek/tf-a-stm32mp-2.2.r1-r0/tf-a-stm32mp-2.2.r1/../build/serialboot/bl2/errata_report.o
 .note.GNU-stack
                0x0000000000000000        0x0 /home/charles/linux/code/tfa/mp157_alientek/tf-a-stm32mp-2.2.r1-r0/tf-a-stm32mp-2.2.r1/../build/serialboot/bl2/errata_report.o
 .debug_frame   0x0000000000000000       0x48 /home/charles/linux/code/tfa/mp157_alientek/tf-a-stm32mp-2.2.r1-r0/tf-a-stm32mp-2.2.r1/../build/serialboot/bl2/errata_report.o
 .ARM.attributes
                0x0000000000000000       0x33 /home/charles/linux/code/tfa/mp157_alientek/tf-a-stm32mp-2.2.r1-r0/tf-a-stm32mp-2.2.r1/../build/serialboot/bl2/errata_report.o
 .text          0x0000000000000000        0x0 /home/charles/linux/code/tfa/mp157_alientek/tf-a-stm32mp-2.2.r1-r0/tf-a-stm32mp-2.2.r1/../build/serialboot/bl2/bl_common.o
 .data          0x0000000000000000        0x0 /home/charles/linux/code/tfa/mp157_alientek/tf-a-stm32mp-2.2.r1-r0/tf-a-stm32mp-2.2.r1/../build/serialboot/bl2/bl_common.o
 .bss           0x0000000000000000        0x0 /home/charles/linux/code/tfa/mp157_alientek/tf-a-stm32mp-2.2.r1-r0/tf-a-stm32mp-2.2.r1/../build/serialboot/bl2/bl_common.o
 .text.page_align
                0x0000000000000000       0x18 /home/charles/linux/code/tfa/mp157_alientek/tf-a-stm32mp-2.2.r1-r0/tf-a-stm32mp-2.2.r1/../build/serialboot/bl2/bl_common.o
 .text          0x0000000000000000        0x0 /home/charles/linux/code/tfa/mp157_alientek/tf-a-stm32mp-2.2.r1-r0/tf-a-stm32mp-2.2.r1/../build/serialboot/bl2/tf_log.o
 .data          0x0000000000000000        0x0 /home/charles/linux/code/tfa/mp157_alientek/tf-a-stm32mp-2.2.r1-r0/tf-a-stm32mp-2.2.r1/../build/serialboot/bl2/tf_log.o
 .bss           0x0000000000000000        0x0 /home/charles/linux/code/tfa/mp157_alientek/tf-a-stm32mp-2.2.r1-r0/tf-a-stm32mp-2.2.r1/../build/serialboot/bl2/tf_log.o
 .text.tf_log_set_max_level
                0x0000000000000000       0x30 /home/charles/linux/code/tfa/mp157_alientek/tf-a-stm32mp-2.2.r1-r0/tf-a-stm32mp-2.2.r1/../build/serialboot/bl2/tf_log.o
 .text          0x0000000000000000        0x0 /home/charles/linux/code/tfa/mp157_alientek/tf-a-stm32mp-2.2.r1-r0/tf-a-stm32mp-2.2.r1/../build/serialboot/bl2/multi_console.o
 .data          0x0000000000000000        0x0 /home/charles/linux/code/tfa/mp157_alientek/tf-a-stm32mp-2.2.r1-r0/tf-a-stm32mp-2.2.r1/../build/serialboot/bl2/multi_console.o
 .bss           0x0000000000000000        0x0 /home/charles/linux/code/tfa/mp157_alientek/tf-a-stm32mp-2.2.r1-r0/tf-a-stm32mp-2.2.r1/../build/serialboot/bl2/multi_console.o
 .text.console_unregister
                0x0000000000000000       0x2c /home/charles/linux/code/tfa/mp157_alientek/tf-a-stm32mp-2.2.r1-r0/tf-a-stm32mp-2.2.r1/../build/serialboot/bl2/multi_console.o
 .text.console_switch_state
                0x0000000000000000        0xc /home/charles/linux/code/tfa/mp157_alientek/tf-a-stm32mp-2.2.r1-r0/tf-a-stm32mp-2.2.r1/../build/serialboot/bl2/multi_console.o
 .text.console_getc
                0x0000000000000000       0x3c /home/charles/linux/code/tfa/mp157_alientek/tf-a-stm32mp-2.2.r1-r0/tf-a-stm32mp-2.2.r1/../build/serialboot/bl2/multi_console.o
 .text          0x0000000000000000        0x0 /home/charles/linux/code/tfa/mp157_alientek/tf-a-stm32mp-2.2.r1-r0/tf-a-stm32mp-2.2.r1/../build/serialboot/bl2/plat_bl_common.o
 .data          0x0000000000000000        0x0 /home/charles/linux/code/tfa/mp157_alientek/tf-a-stm32mp-2.2.r1-r0/tf-a-stm32mp-2.2.r1/../build/serialboot/bl2/plat_bl_common.o
 .bss           0x0000000000000000        0x0 /home/charles/linux/code/tfa/mp157_alientek/tf-a-stm32mp-2.2.r1-r0/tf-a-stm32mp-2.2.r1/../build/serialboot/bl2/plat_bl_common.o
 .text.bl2_plat_handle_post_image_load
                0x0000000000000000        0x4 /home/charles/linux/code/tfa/mp157_alientek/tf-a-stm32mp-2.2.r1-r0/tf-a-stm32mp-2.2.r1/../build/serialboot/bl2/plat_bl_common.o
 .text.plat_try_next_boot_source
                0x0000000000000000        0x4 /home/charles/linux/code/tfa/mp157_alientek/tf-a-stm32mp-2.2.r1-r0/tf-a-stm32mp-2.2.r1/../build/serialboot/bl2/plat_bl_common.o
 .text.setup_page_tables
                0x0000000000000000       0x16 /home/charles/linux/code/tfa/mp157_alientek/tf-a-stm32mp-2.2.r1-r0/tf-a-stm32mp-2.2.r1/../build/serialboot/bl2/plat_bl_common.o
 .text          0x0000000000000000        0x0 /home/charles/linux/code/tfa/mp157_alientek/tf-a-stm32mp-2.2.r1-r0/tf-a-stm32mp-2.2.r1/../build/serialboot/bl2/plat_log_common.o
 .data          0x0000000000000000        0x0 /home/charles/linux/code/tfa/mp157_alientek/tf-a-stm32mp-2.2.r1-r0/tf-a-stm32mp-2.2.r1/../build/serialboot/bl2/plat_log_common.o
 .bss           0x0000000000000000        0x0 /home/charles/linux/code/tfa/mp157_alientek/tf-a-stm32mp-2.2.r1-r0/tf-a-stm32mp-2.2.r1/../build/serialboot/bl2/plat_log_common.o
 .text          0x0000000000000000        0x0 /home/charles/linux/code/tfa/mp157_alientek/tf-a-stm32mp-2.2.r1-r0/tf-a-stm32mp-2.2.r1/../build/serialboot/bl2/plat_common.o
 .data          0x0000000000000000        0x0 /home/charles/linux/code/tfa/mp157_alientek/tf-a-stm32mp-2.2.r1-r0/tf-a-stm32mp-2.2.r1/../build/serialboot/bl2/plat_common.o
 .bss           0x0000000000000000        0x0 /home/charles/linux/code/tfa/mp157_alientek/tf-a-stm32mp-2.2.r1-r0/tf-a-stm32mp-2.2.r1/../build/serialboot/bl2/plat_common.o
 .text.bl32_plat_enable_mmu
                0x0000000000000000        0x4 /home/charles/linux/code/tfa/mp157_alientek/tf-a-stm32mp-2.2.r1-r0/tf-a-stm32mp-2.2.r1/../build/serialboot/bl2/plat_common.o
 .debug_info    0x0000000000000000      0x1c6 /home/charles/linux/code/tfa/mp157_alientek/tf-a-stm32mp-2.2.r1-r0/tf-a-stm32mp-2.2.r1/../build/serialboot/bl2/plat_common.o
 .debug_abbrev  0x0000000000000000       0xf0 /home/charles/linux/code/tfa/mp157_alientek/tf-a-stm32mp-2.2.r1-r0/tf-a-stm32mp-2.2.r1/../build/serialboot/bl2/plat_common.o
 .debug_loc     0x0000000000000000       0x25 /home/charles/linux/code/tfa/mp157_alientek/tf-a-stm32mp-2.2.r1-r0/tf-a-stm32mp-2.2.r1/../build/serialboot/bl2/plat_common.o
 .debug_aranges
                0x0000000000000000       0x20 /home/charles/linux/code/tfa/mp157_alientek/tf-a-stm32mp-2.2.r1-r0/tf-a-stm32mp-2.2.r1/../build/serialboot/bl2/plat_common.o
 .debug_ranges  0x0000000000000000       0x10 /home/charles/linux/code/tfa/mp157_alientek/tf-a-stm32mp-2.2.r1-r0/tf-a-stm32mp-2.2.r1/../build/serialboot/bl2/plat_common.o
 .debug_line    0x0000000000000000      0x106 /home/charles/linux/code/tfa/mp157_alientek/tf-a-stm32mp-2.2.r1-r0/tf-a-stm32mp-2.2.r1/../build/serialboot/bl2/plat_common.o
 .debug_str     0x0000000000000000      0x2a5 /home/charles/linux/code/tfa/mp157_alientek/tf-a-stm32mp-2.2.r1-r0/tf-a-stm32mp-2.2.r1/../build/serialboot/bl2/plat_common.o
 .comment       0x0000000000000000       0x5b /home/charles/linux/code/tfa/mp157_alientek/tf-a-stm32mp-2.2.r1-r0/tf-a-stm32mp-2.2.r1/../build/serialboot/bl2/plat_common.o
 .note.GNU-stack
                0x0000000000000000        0x0 /home/charles/linux/code/tfa/mp157_alientek/tf-a-stm32mp-2.2.r1-r0/tf-a-stm32mp-2.2.r1/../build/serialboot/bl2/plat_common.o
 .debug_frame   0x0000000000000000       0x20 /home/charles/linux/code/tfa/mp157_alientek/tf-a-stm32mp-2.2.r1-r0/tf-a-stm32mp-2.2.r1/../build/serialboot/bl2/plat_common.o
 .ARM.attributes
                0x0000000000000000       0x33 /home/charles/linux/code/tfa/mp157_alientek/tf-a-stm32mp-2.2.r1-r0/tf-a-stm32mp-2.2.r1/../build/serialboot/bl2/plat_common.o
 .text          0x0000000000000000        0x0 /home/charles/linux/code/tfa/mp157_alientek/tf-a-stm32mp-2.2.r1-r0/tf-a-stm32mp-2.2.r1/../build/serialboot/bl2/popcountdi2.o
 .data          0x0000000000000000        0x0 /home/charles/linux/code/tfa/mp157_alientek/tf-a-stm32mp-2.2.r1-r0/tf-a-stm32mp-2.2.r1/../build/serialboot/bl2/popcountdi2.o
 .bss           0x0000000000000000        0x0 /home/charles/linux/code/tfa/mp157_alientek/tf-a-stm32mp-2.2.r1-r0/tf-a-stm32mp-2.2.r1/../build/serialboot/bl2/popcountdi2.o
 .text.__popcountdi2
                0x0000000000000000       0x56 /home/charles/linux/code/tfa/mp157_alientek/tf-a-stm32mp-2.2.r1-r0/tf-a-stm32mp-2.2.r1/../build/serialboot/bl2/popcountdi2.o
 .debug_info    0x0000000000000000      0x114 /home/charles/linux/code/tfa/mp157_alientek/tf-a-stm32mp-2.2.r1-r0/tf-a-stm32mp-2.2.r1/../build/serialboot/bl2/popcountdi2.o
 .debug_abbrev  0x0000000000000000       0x7d /home/charles/linux/code/tfa/mp157_alientek/tf-a-stm32mp-2.2.r1-r0/tf-a-stm32mp-2.2.r1/../build/serialboot/bl2/popcountdi2.o
 .debug_loc     0x0000000000000000       0x91 /home/charles/linux/code/tfa/mp157_alientek/tf-a-stm32mp-2.2.r1-r0/tf-a-stm32mp-2.2.r1/../build/serialboot/bl2/popcountdi2.o
 .debug_aranges
                0x0000000000000000       0x20 /home/charles/linux/code/tfa/mp157_alientek/tf-a-stm32mp-2.2.r1-r0/tf-a-stm32mp-2.2.r1/../build/serialboot/bl2/popcountdi2.o
 .debug_ranges  0x0000000000000000       0x10 /home/charles/linux/code/tfa/mp157_alientek/tf-a-stm32mp-2.2.r1-r0/tf-a-stm32mp-2.2.r1/../build/serialboot/bl2/popcountdi2.o
 .debug_line    0x0000000000000000       0xc2 /home/charles/linux/code/tfa/mp157_alientek/tf-a-stm32mp-2.2.r1-r0/tf-a-stm32mp-2.2.r1/../build/serialboot/bl2/popcountdi2.o
 .debug_str     0x0000000000000000      0x24a /home/charles/linux/code/tfa/mp157_alientek/tf-a-stm32mp-2.2.r1-r0/tf-a-stm32mp-2.2.r1/../build/serialboot/bl2/popcountdi2.o
 .comment       0x0000000000000000       0x5b /home/charles/linux/code/tfa/mp157_alientek/tf-a-stm32mp-2.2.r1-r0/tf-a-stm32mp-2.2.r1/../build/serialboot/bl2/popcountdi2.o
 .note.GNU-stack
                0x0000000000000000        0x0 /home/charles/linux/code/tfa/mp157_alientek/tf-a-stm32mp-2.2.r1-r0/tf-a-stm32mp-2.2.r1/../build/serialboot/bl2/popcountdi2.o
 .debug_frame   0x0000000000000000       0x2c /home/charles/linux/code/tfa/mp157_alientek/tf-a-stm32mp-2.2.r1-r0/tf-a-stm32mp-2.2.r1/../build/serialboot/bl2/popcountdi2.o
 .ARM.attributes
                0x0000000000000000       0x33 /home/charles/linux/code/tfa/mp157_alientek/tf-a-stm32mp-2.2.r1-r0/tf-a-stm32mp-2.2.r1/../build/serialboot/bl2/popcountdi2.o
 .text          0x0000000000000000        0x0 /home/charles/linux/code/tfa/mp157_alientek/tf-a-stm32mp-2.2.r1-r0/tf-a-stm32mp-2.2.r1/../build/serialboot/bl2/popcountsi2.o
 .data          0x0000000000000000        0x0 /home/charles/linux/code/tfa/mp157_alientek/tf-a-stm32mp-2.2.r1-r0/tf-a-stm32mp-2.2.r1/../build/serialboot/bl2/popcountsi2.o
 .bss           0x0000000000000000        0x0 /home/charles/linux/code/tfa/mp157_alientek/tf-a-stm32mp-2.2.r1-r0/tf-a-stm32mp-2.2.r1/../build/serialboot/bl2/popcountsi2.o
 .text          0x0000000000000000        0x0 /home/charles/linux/code/tfa/mp157_alientek/tf-a-stm32mp-2.2.r1-r0/tf-a-stm32mp-2.2.r1/../build/serialboot/bl2/ctzdi2.o
 .data          0x0000000000000000        0x0 /home/charles/linux/code/tfa/mp157_alientek/tf-a-stm32mp-2.2.r1-r0/tf-a-stm32mp-2.2.r1/../build/serialboot/bl2/ctzdi2.o
 .bss           0x0000000000000000        0x0 /home/charles/linux/code/tfa/mp157_alientek/tf-a-stm32mp-2.2.r1-r0/tf-a-stm32mp-2.2.r1/../build/serialboot/bl2/ctzdi2.o
 .text          0x0000000000000000        0x0 /home/charles/linux/code/tfa/mp157_alientek/tf-a-stm32mp-2.2.r1-r0/tf-a-stm32mp-2.2.r1/../build/serialboot/bl2/divdi3.o
 .data          0x0000000000000000        0x0 /home/charles/linux/code/tfa/mp157_alientek/tf-a-stm32mp-2.2.r1-r0/tf-a-stm32mp-2.2.r1/../build/serialboot/bl2/divdi3.o
 .bss           0x0000000000000000        0x0 /home/charles/linux/code/tfa/mp157_alientek/tf-a-stm32mp-2.2.r1-r0/tf-a-stm32mp-2.2.r1/../build/serialboot/bl2/divdi3.o
 .text.__divdi3
                0x0000000000000000       0x4a /home/charles/linux/code/tfa/mp157_alientek/tf-a-stm32mp-2.2.r1-r0/tf-a-stm32mp-2.2.r1/../build/serialboot/bl2/divdi3.o
 .debug_info    0x0000000000000000      0x143 /home/charles/linux/code/tfa/mp157_alientek/tf-a-stm32mp-2.2.r1-r0/tf-a-stm32mp-2.2.r1/../build/serialboot/bl2/divdi3.o
 .debug_abbrev  0x0000000000000000       0xc1 /home/charles/linux/code/tfa/mp157_alientek/tf-a-stm32mp-2.2.r1-r0/tf-a-stm32mp-2.2.r1/../build/serialboot/bl2/divdi3.o
 .debug_loc     0x0000000000000000       0x9e /home/charles/linux/code/tfa/mp157_alientek/tf-a-stm32mp-2.2.r1-r0/tf-a-stm32mp-2.2.r1/../build/serialboot/bl2/divdi3.o
 .debug_aranges
                0x0000000000000000       0x20 /home/charles/linux/code/tfa/mp157_alientek/tf-a-stm32mp-2.2.r1-r0/tf-a-stm32mp-2.2.r1/../build/serialboot/bl2/divdi3.o
 .debug_ranges  0x0000000000000000       0x10 /home/charles/linux/code/tfa/mp157_alientek/tf-a-stm32mp-2.2.r1-r0/tf-a-stm32mp-2.2.r1/../build/serialboot/bl2/divdi3.o
 .debug_line    0x0000000000000000       0xb6 /home/charles/linux/code/tfa/mp157_alientek/tf-a-stm32mp-2.2.r1-r0/tf-a-stm32mp-2.2.r1/../build/serialboot/bl2/divdi3.o
 .debug_str     0x0000000000000000      0x250 /home/charles/linux/code/tfa/mp157_alientek/tf-a-stm32mp-2.2.r1-r0/tf-a-stm32mp-2.2.r1/../build/serialboot/bl2/divdi3.o
 .comment       0x0000000000000000       0x5b /home/charles/linux/code/tfa/mp157_alientek/tf-a-stm32mp-2.2.r1-r0/tf-a-stm32mp-2.2.r1/../build/serialboot/bl2/divdi3.o
 .note.GNU-stack
                0x0000000000000000        0x0 /home/charles/linux/code/tfa/mp157_alientek/tf-a-stm32mp-2.2.r1-r0/tf-a-stm32mp-2.2.r1/../build/serialboot/bl2/divdi3.o
 .debug_frame   0x0000000000000000       0x34 /home/charles/linux/code/tfa/mp157_alientek/tf-a-stm32mp-2.2.r1-r0/tf-a-stm32mp-2.2.r1/../build/serialboot/bl2/divdi3.o
 .ARM.attributes
                0x0000000000000000       0x33 /home/charles/linux/code/tfa/mp157_alientek/tf-a-stm32mp-2.2.r1-r0/tf-a-stm32mp-2.2.r1/../build/serialboot/bl2/divdi3.o
 .text          0x0000000000000000        0x0 /home/charles/linux/code/tfa/mp157_alientek/tf-a-stm32mp-2.2.r1-r0/tf-a-stm32mp-2.2.r1/../build/serialboot/bl2/divmoddi4.o
 .data          0x0000000000000000        0x0 /home/charles/linux/code/tfa/mp157_alientek/tf-a-stm32mp-2.2.r1-r0/tf-a-stm32mp-2.2.r1/../build/serialboot/bl2/divmoddi4.o
 .bss           0x0000000000000000        0x0 /home/charles/linux/code/tfa/mp157_alientek/tf-a-stm32mp-2.2.r1-r0/tf-a-stm32mp-2.2.r1/../build/serialboot/bl2/divmoddi4.o
 .text.__divmoddi4
                0x0000000000000000       0x30 /home/charles/linux/code/tfa/mp157_alientek/tf-a-stm32mp-2.2.r1-r0/tf-a-stm32mp-2.2.r1/../build/serialboot/bl2/divmoddi4.o
 .debug_info    0x0000000000000000      0x13a /home/charles/linux/code/tfa/mp157_alientek/tf-a-stm32mp-2.2.r1-r0/tf-a-stm32mp-2.2.r1/../build/serialboot/bl2/divmoddi4.o
 .debug_abbrev  0x0000000000000000       0xc3 /home/charles/linux/code/tfa/mp157_alientek/tf-a-stm32mp-2.2.r1-r0/tf-a-stm32mp-2.2.r1/../build/serialboot/bl2/divmoddi4.o
 .debug_loc     0x0000000000000000       0x72 /home/charles/linux/code/tfa/mp157_alientek/tf-a-stm32mp-2.2.r1-r0/tf-a-stm32mp-2.2.r1/../build/serialboot/bl2/divmoddi4.o
 .debug_aranges
                0x0000000000000000       0x20 /home/charles/linux/code/tfa/mp157_alientek/tf-a-stm32mp-2.2.r1-r0/tf-a-stm32mp-2.2.r1/../build/serialboot/bl2/divmoddi4.o
 .debug_ranges  0x0000000000000000       0x10 /home/charles/linux/code/tfa/mp157_alientek/tf-a-stm32mp-2.2.r1-r0/tf-a-stm32mp-2.2.r1/../build/serialboot/bl2/divmoddi4.o
 .debug_line    0x0000000000000000       0x98 /home/charles/linux/code/tfa/mp157_alientek/tf-a-stm32mp-2.2.r1-r0/tf-a-stm32mp-2.2.r1/../build/serialboot/bl2/divmoddi4.o
 .debug_str     0x0000000000000000      0x23a /home/charles/linux/code/tfa/mp157_alientek/tf-a-stm32mp-2.2.r1-r0/tf-a-stm32mp-2.2.r1/../build/serialboot/bl2/divmoddi4.o
 .comment       0x0000000000000000       0x5b /home/charles/linux/code/tfa/mp157_alientek/tf-a-stm32mp-2.2.r1-r0/tf-a-stm32mp-2.2.r1/../build/serialboot/bl2/divmoddi4.o
 .note.GNU-stack
                0x0000000000000000        0x0 /home/charles/linux/code/tfa/mp157_alientek/tf-a-stm32mp-2.2.r1-r0/tf-a-stm32mp-2.2.r1/../build/serialboot/bl2/divmoddi4.o
 .debug_frame   0x0000000000000000       0x30 /home/charles/linux/code/tfa/mp157_alientek/tf-a-stm32mp-2.2.r1-r0/tf-a-stm32mp-2.2.r1/../build/serialboot/bl2/divmoddi4.o
 .ARM.attributes
                0x0000000000000000       0x33 /home/charles/linux/code/tfa/mp157_alientek/tf-a-stm32mp-2.2.r1-r0/tf-a-stm32mp-2.2.r1/../build/serialboot/bl2/divmoddi4.o
 .text          0x0000000000000000        0x0 /home/charles/linux/code/tfa/mp157_alientek/tf-a-stm32mp-2.2.r1-r0/tf-a-stm32mp-2.2.r1/../build/serialboot/bl2/lshrdi3.o
 .data          0x0000000000000000        0x0 /home/charles/linux/code/tfa/mp157_alientek/tf-a-stm32mp-2.2.r1-r0/tf-a-stm32mp-2.2.r1/../build/serialboot/bl2/lshrdi3.o
 .bss           0x0000000000000000        0x0 /home/charles/linux/code/tfa/mp157_alientek/tf-a-stm32mp-2.2.r1-r0/tf-a-stm32mp-2.2.r1/../build/serialboot/bl2/lshrdi3.o
 .text.__lshrdi3
                0x0000000000000000       0x28 /home/charles/linux/code/tfa/mp157_alientek/tf-a-stm32mp-2.2.r1-r0/tf-a-stm32mp-2.2.r1/../build/serialboot/bl2/lshrdi3.o
 .debug_info    0x0000000000000000      0x175 /home/charles/linux/code/tfa/mp157_alientek/tf-a-stm32mp-2.2.r1-r0/tf-a-stm32mp-2.2.r1/../build/serialboot/bl2/lshrdi3.o
 .debug_abbrev  0x0000000000000000       0xf0 /home/charles/linux/code/tfa/mp157_alientek/tf-a-stm32mp-2.2.r1-r0/tf-a-stm32mp-2.2.r1/../build/serialboot/bl2/lshrdi3.o
 .debug_loc     0x0000000000000000       0x50 /home/charles/linux/code/tfa/mp157_alientek/tf-a-stm32mp-2.2.r1-r0/tf-a-stm32mp-2.2.r1/../build/serialboot/bl2/lshrdi3.o
 .debug_aranges
                0x0000000000000000       0x20 /home/charles/linux/code/tfa/mp157_alientek/tf-a-stm32mp-2.2.r1-r0/tf-a-stm32mp-2.2.r1/../build/serialboot/bl2/lshrdi3.o
 .debug_ranges  0x0000000000000000       0x10 /home/charles/linux/code/tfa/mp157_alientek/tf-a-stm32mp-2.2.r1-r0/tf-a-stm32mp-2.2.r1/../build/serialboot/bl2/lshrdi3.o
 .debug_line    0x0000000000000000       0xb8 /home/charles/linux/code/tfa/mp157_alientek/tf-a-stm32mp-2.2.r1-r0/tf-a-stm32mp-2.2.r1/../build/serialboot/bl2/lshrdi3.o
 .debug_str     0x0000000000000000      0x269 /home/charles/linux/code/tfa/mp157_alientek/tf-a-stm32mp-2.2.r1-r0/tf-a-stm32mp-2.2.r1/../build/serialboot/bl2/lshrdi3.o
 .comment       0x0000000000000000       0x5b /home/charles/linux/code/tfa/mp157_alientek/tf-a-stm32mp-2.2.r1-r0/tf-a-stm32mp-2.2.r1/../build/serialboot/bl2/lshrdi3.o
 .note.GNU-stack
                0x0000000000000000        0x0 /home/charles/linux/code/tfa/mp157_alientek/tf-a-stm32mp-2.2.r1-r0/tf-a-stm32mp-2.2.r1/../build/serialboot/bl2/lshrdi3.o
 .debug_frame   0x0000000000000000       0x28 /home/charles/linux/code/tfa/mp157_alientek/tf-a-stm32mp-2.2.r1-r0/tf-a-stm32mp-2.2.r1/../build/serialboot/bl2/lshrdi3.o
 .ARM.attributes
                0x0000000000000000       0x33 /home/charles/linux/code/tfa/mp157_alientek/tf-a-stm32mp-2.2.r1-r0/tf-a-stm32mp-2.2.r1/../build/serialboot/bl2/lshrdi3.o
 .text          0x0000000000000000        0x0 /home/charles/linux/code/tfa/mp157_alientek/tf-a-stm32mp-2.2.r1-r0/tf-a-stm32mp-2.2.r1/../build/serialboot/bl2/udivmoddi4.o
 .data          0x0000000000000000        0x0 /home/charles/linux/code/tfa/mp157_alientek/tf-a-stm32mp-2.2.r1-r0/tf-a-stm32mp-2.2.r1/../build/serialboot/bl2/udivmoddi4.o
 .bss           0x0000000000000000        0x0 /home/charles/linux/code/tfa/mp157_alientek/tf-a-stm32mp-2.2.r1-r0/tf-a-stm32mp-2.2.r1/../build/serialboot/bl2/udivmoddi4.o
 .text          0x0000000000000000        0x0 /home/charles/linux/code/tfa/mp157_alientek/tf-a-stm32mp-2.2.r1-r0/tf-a-stm32mp-2.2.r1/../build/serialboot/bl2/stm32mp_common.o
 .data          0x0000000000000000        0x0 /home/charles/linux/code/tfa/mp157_alientek/tf-a-stm32mp-2.2.r1-r0/tf-a-stm32mp-2.2.r1/../build/serialboot/bl2/stm32mp_common.o
 .bss           0x0000000000000000        0x0 /home/charles/linux/code/tfa/mp157_alientek/tf-a-stm32mp-2.2.r1-r0/tf-a-stm32mp-2.2.r1/../build/serialboot/bl2/stm32mp_common.o
 .text.plat_get_ns_image_entrypoint
                0x0000000000000000        0x8 /home/charles/linux/code/tfa/mp157_alientek/tf-a-stm32mp-2.2.r1-r0/tf-a-stm32mp-2.2.r1/../build/serialboot/bl2/stm32mp_common.o
 .text.stm32mp_plat_reset
                0x0000000000000000        0xa /home/charles/linux/code/tfa/mp157_alientek/tf-a-stm32mp-2.2.r1-r0/tf-a-stm32mp-2.2.r1/../build/serialboot/bl2/stm32mp_common.o
 .text.stm32mp_pwr_regs_lock
                0x0000000000000000       0x18 /home/charles/linux/code/tfa/mp157_alientek/tf-a-stm32mp-2.2.r1-r0/tf-a-stm32mp-2.2.r1/../build/serialboot/bl2/stm32mp_common.o
 .text.stm32mp_pwr_regs_unlock
                0x0000000000000000       0x18 /home/charles/linux/code/tfa/mp157_alientek/tf-a-stm32mp-2.2.r1-r0/tf-a-stm32mp-2.2.r1/../build/serialboot/bl2/stm32mp_common.o
 .bss.lock      0x0000000000000000        0x4 /home/charles/linux/code/tfa/mp157_alientek/tf-a-stm32mp-2.2.r1-r0/tf-a-stm32mp-2.2.r1/../build/serialboot/bl2/stm32mp_common.o
 .text          0x0000000000000000        0x0 /home/charles/linux/code/tfa/mp157_alientek/tf-a-stm32mp-2.2.r1-r0/tf-a-stm32mp-2.2.r1/../build/serialboot/bl2/stm32mp1_private.o
 .data          0x0000000000000000        0x0 /home/charles/linux/code/tfa/mp157_alientek/tf-a-stm32mp-2.2.r1-r0/tf-a-stm32mp-2.2.r1/../build/serialboot/bl2/stm32mp1_private.o
 .bss           0x0000000000000000        0x0 /home/charles/linux/code/tfa/mp157_alientek/tf-a-stm32mp-2.2.r1-r0/tf-a-stm32mp-2.2.r1/../build/serialboot/bl2/stm32mp1_private.o
 .text.stm32mp_mask_timer
                0x0000000000000000       0x1a /home/charles/linux/code/tfa/mp157_alientek/tf-a-stm32mp-2.2.r1-r0/tf-a-stm32mp-2.2.r1/../build/serialboot/bl2/stm32mp1_private.o
 .text.stm32mp_wait_cpu_reset
                0x0000000000000000       0x42 /home/charles/linux/code/tfa/mp157_alientek/tf-a-stm32mp-2.2.r1-r0/tf-a-stm32mp-2.2.r1/../build/serialboot/bl2/stm32mp1_private.o
 .text.stm32mp_is_single_core
                0x0000000000000000       0x2c /home/charles/linux/code/tfa/mp157_alientek/tf-a-stm32mp-2.2.r1-r0/tf-a-stm32mp-2.2.r1/../build/serialboot/bl2/stm32mp1_private.o
 .text.stm32mp_plat_reset
                0x0000000000000000       0xac /home/charles/linux/code/tfa/mp157_alientek/tf-a-stm32mp-2.2.r1-r0/tf-a-stm32mp-2.2.r1/../build/serialboot/bl2/stm32mp1_private.o
 .text.stm32mp_etzpc_binding2decprot
                0x0000000000000000       0x10 /home/charles/linux/code/tfa/mp157_alientek/tf-a-stm32mp-2.2.r1-r0/tf-a-stm32mp-2.2.r1/../build/serialboot/bl2/stm32mp1_private.o
 .rodata.tzc_source_ip
                0x0000000000000000       0x84 /home/charles/linux/code/tfa/mp157_alientek/tf-a-stm32mp-2.2.r1-r0/tf-a-stm32mp-2.2.r1/../build/serialboot/bl2/stm32mp1_private.o
 .text          0x0000000000000000        0x0 /home/charles/linux/code/tfa/mp157_alientek/tf-a-stm32mp-2.2.r1-r0/tf-a-stm32mp-2.2.r1/../build/serialboot/bl2/xlat_tables_arch.o
 .data          0x0000000000000000        0x0 /home/charles/linux/code/tfa/mp157_alientek/tf-a-stm32mp-2.2.r1-r0/tf-a-stm32mp-2.2.r1/../build/serialboot/bl2/xlat_tables_arch.o
 .bss           0x0000000000000000        0x0 /home/charles/linux/code/tfa/mp157_alientek/tf-a-stm32mp-2.2.r1-r0/tf-a-stm32mp-2.2.r1/../build/serialboot/bl2/xlat_tables_arch.o
 .text.xlat_arch_is_granule_size_supported
                0x0000000000000000        0xa /home/charles/linux/code/tfa/mp157_alientek/tf-a-stm32mp-2.2.r1-r0/tf-a-stm32mp-2.2.r1/../build/serialboot/bl2/xlat_tables_arch.o
 .text.xlat_arch_get_max_supported_granule_size
                0x0000000000000000        0x6 /home/charles/linux/code/tfa/mp157_alientek/tf-a-stm32mp-2.2.r1-r0/tf-a-stm32mp-2.2.r1/../build/serialboot/bl2/xlat_tables_arch.o
 .text          0x0000000000000000        0x0 /home/charles/linux/code/tfa/mp157_alientek/tf-a-stm32mp-2.2.r1-r0/tf-a-stm32mp-2.2.r1/../build/serialboot/bl2/xlat_tables_context.o
 .data          0x0000000000000000        0x0 /home/charles/linux/code/tfa/mp157_alientek/tf-a-stm32mp-2.2.r1-r0/tf-a-stm32mp-2.2.r1/../build/serialboot/bl2/xlat_tables_context.o
 .bss           0x0000000000000000        0x0 /home/charles/linux/code/tfa/mp157_alientek/tf-a-stm32mp-2.2.r1-r0/tf-a-stm32mp-2.2.r1/../build/serialboot/bl2/xlat_tables_context.o
 .text.mmap_add_region_alloc_va
                0x0000000000000000       0x30 /home/charles/linux/code/tfa/mp157_alientek/tf-a-stm32mp-2.2.r1-r0/tf-a-stm32mp-2.2.r1/../build/serialboot/bl2/xlat_tables_context.o
 .text.mmap_add_alloc_va
                0x0000000000000000       0x2c /home/charles/linux/code/tfa/mp157_alientek/tf-a-stm32mp-2.2.r1-r0/tf-a-stm32mp-2.2.r1/../build/serialboot/bl2/xlat_tables_context.o
 .text.mmap_add_dynamic_region_alloc_va
                0x0000000000000000       0x30 /home/charles/linux/code/tfa/mp157_alientek/tf-a-stm32mp-2.2.r1-r0/tf-a-stm32mp-2.2.r1/../build/serialboot/bl2/xlat_tables_context.o
 .text.xlat_get_mem_attributes
                0x0000000000000000       0x10 /home/charles/linux/code/tfa/mp157_alientek/tf-a-stm32mp-2.2.r1-r0/tf-a-stm32mp-2.2.r1/../build/serialboot/bl2/xlat_tables_context.o
 .text.xlat_change_mem_attributes
                0x0000000000000000       0x10 /home/charles/linux/code/tfa/mp157_alientek/tf-a-stm32mp-2.2.r1-r0/tf-a-stm32mp-2.2.r1/../build/serialboot/bl2/xlat_tables_context.o
 .text.enable_mmu_hyp
                0x0000000000000000       0x34 /home/charles/linux/code/tfa/mp157_alientek/tf-a-stm32mp-2.2.r1-r0/tf-a-stm32mp-2.2.r1/../build/serialboot/bl2/xlat_tables_context.o
 .text          0x0000000000000000        0x0 /home/charles/linux/code/tfa/mp157_alientek/tf-a-stm32mp-2.2.r1-r0/tf-a-stm32mp-2.2.r1/../build/serialboot/bl2/xlat_tables_core.o
 .data          0x0000000000000000        0x0 /home/charles/linux/code/tfa/mp157_alientek/tf-a-stm32mp-2.2.r1-r0/tf-a-stm32mp-2.2.r1/../build/serialboot/bl2/xlat_tables_core.o
 .bss           0x0000000000000000        0x0 /home/charles/linux/code/tfa/mp157_alientek/tf-a-stm32mp-2.2.r1-r0/tf-a-stm32mp-2.2.r1/../build/serialboot/bl2/xlat_tables_core.o
 .text.mmap_alloc_va_align_ctx.isra.0
                0x0000000000000000       0x3e /home/charles/linux/code/tfa/mp157_alientek/tf-a-stm32mp-2.2.r1-r0/tf-a-stm32mp-2.2.r1/../build/serialboot/bl2/xlat_tables_core.o
 .text.mmap_add_region_alloc_va_ctx
                0x0000000000000000       0x3c /home/charles/linux/code/tfa/mp157_alientek/tf-a-stm32mp-2.2.r1-r0/tf-a-stm32mp-2.2.r1/../build/serialboot/bl2/xlat_tables_core.o
 .text.mmap_add_dynamic_region_alloc_va_ctx
                0x0000000000000000       0x2c /home/charles/linux/code/tfa/mp157_alientek/tf-a-stm32mp-2.2.r1-r0/tf-a-stm32mp-2.2.r1/../build/serialboot/bl2/xlat_tables_core.o
 .text.xlat_setup_dynamic_ctx
                0x0000000000000000       0x62 /home/charles/linux/code/tfa/mp157_alientek/tf-a-stm32mp-2.2.r1-r0/tf-a-stm32mp-2.2.r1/../build/serialboot/bl2/xlat_tables_core.o
 .text          0x0000000000000000        0x0 /home/charles/linux/code/tfa/mp157_alientek/tf-a-stm32mp-2.2.r1-r0/tf-a-stm32mp-2.2.r1/../build/serialboot/bl2/xlat_tables_utils.o
 .data          0x0000000000000000        0x0 /home/charles/linux/code/tfa/mp157_alientek/tf-a-stm32mp-2.2.r1-r0/tf-a-stm32mp-2.2.r1/../build/serialboot/bl2/xlat_tables_utils.o
 .bss           0x0000000000000000        0x0 /home/charles/linux/code/tfa/mp157_alientek/tf-a-stm32mp-2.2.r1-r0/tf-a-stm32mp-2.2.r1/../build/serialboot/bl2/xlat_tables_utils.o
 .rodata.find_xlat_table_entry.str1.1
                0x0000000000000000       0x53 /home/charles/linux/code/tfa/mp157_alientek/tf-a-stm32mp-2.2.r1-r0/tf-a-stm32mp-2.2.r1/../build/serialboot/bl2/xlat_tables_utils.o
 .text.find_xlat_table_entry
                0x0000000000000000       0xa8 /home/charles/linux/code/tfa/mp157_alientek/tf-a-stm32mp-2.2.r1-r0/tf-a-stm32mp-2.2.r1/../build/serialboot/bl2/xlat_tables_utils.o
 .rodata.xlat_get_mem_attributes_internal.str1.1
                0x0000000000000000       0x1f /home/charles/linux/code/tfa/mp157_alientek/tf-a-stm32mp-2.2.r1-r0/tf-a-stm32mp-2.2.r1/../build/serialboot/bl2/xlat_tables_utils.o
 .text.xlat_get_mem_attributes_internal
                0x0000000000000000      0x140 /home/charles/linux/code/tfa/mp157_alientek/tf-a-stm32mp-2.2.r1-r0/tf-a-stm32mp-2.2.r1/../build/serialboot/bl2/xlat_tables_utils.o
 .text.xlat_get_mem_attributes_ctx
                0x0000000000000000       0x12 /home/charles/linux/code/tfa/mp157_alientek/tf-a-stm32mp-2.2.r1-r0/tf-a-stm32mp-2.2.r1/../build/serialboot/bl2/xlat_tables_utils.o
 .rodata.xlat_change_mem_attributes_ctx.str1.1
                0x0000000000000000      0x152 /home/charles/linux/code/tfa/mp157_alientek/tf-a-stm32mp-2.2.r1-r0/tf-a-stm32mp-2.2.r1/../build/serialboot/bl2/xlat_tables_utils.o
 .text.xlat_change_mem_attributes_ctx
                0x0000000000000000      0x1b8 /home/charles/linux/code/tfa/mp157_alientek/tf-a-stm32mp-2.2.r1-r0/tf-a-stm32mp-2.2.r1/../build/serialboot/bl2/xlat_tables_utils.o
 .rodata.__func__.6700
                0x0000000000000000       0x1f /home/charles/linux/code/tfa/mp157_alientek/tf-a-stm32mp-2.2.r1-r0/tf-a-stm32mp-2.2.r1/../build/serialboot/bl2/xlat_tables_utils.o
 .text          0x0000000000000000        0x0 /home/charles/linux/code/tfa/mp157_alientek/tf-a-stm32mp-2.2.r1-r0/tf-a-stm32mp-2.2.r1/../build/serialboot/bl2/tzc400.o
 .data          0x0000000000000000        0x0 /home/charles/linux/code/tfa/mp157_alientek/tf-a-stm32mp-2.2.r1-r0/tf-a-stm32mp-2.2.r1/../build/serialboot/bl2/tzc400.o
 .bss           0x0000000000000000        0x0 /home/charles/linux/code/tfa/mp157_alientek/tf-a-stm32mp-2.2.r1-r0/tf-a-stm32mp-2.2.r1/../build/serialboot/bl2/tzc400.o
 .text.tzc400_configure_region0
                0x0000000000000000       0x2c /home/charles/linux/code/tfa/mp157_alientek/tf-a-stm32mp-2.2.r1-r0/tf-a-stm32mp-2.2.r1/../build/serialboot/bl2/tzc400.o
 .text.tzc400_clear_all_interrupts
                0x0000000000000000       0x30 /home/charles/linux/code/tfa/mp157_alientek/tf-a-stm32mp-2.2.r1-r0/tf-a-stm32mp-2.2.r1/../build/serialboot/bl2/tzc400.o
 .text.tzc400_is_pending_interrupt
                0x0000000000000000       0x3c /home/charles/linux/code/tfa/mp157_alientek/tf-a-stm32mp-2.2.r1-r0/tf-a-stm32mp-2.2.r1/../build/serialboot/bl2/tzc400.o
 .rodata.tzc400_it_handler.str1.1
                0x0000000000000000       0x7a /home/charles/linux/code/tfa/mp157_alientek/tf-a-stm32mp-2.2.r1-r0/tf-a-stm32mp-2.2.r1/../build/serialboot/bl2/tzc400.o
 .text.tzc400_it_handler
                0x0000000000000000       0xbc /home/charles/linux/code/tfa/mp157_alientek/tf-a-stm32mp-2.2.r1-r0/tf-a-stm32mp-2.2.r1/../build/serialboot/bl2/tzc400.o
 .text          0x0000000000000000        0x0 /home/charles/linux/code/tfa/mp157_alientek/tf-a-stm32mp-2.2.r1-r0/tf-a-stm32mp-2.2.r1/../build/serialboot/bl2/delay_timer.o
 .data          0x0000000000000000        0x0 /home/charles/linux/code/tfa/mp157_alientek/tf-a-stm32mp-2.2.r1-r0/tf-a-stm32mp-2.2.r1/../build/serialboot/bl2/delay_timer.o
 .bss           0x0000000000000000        0x0 /home/charles/linux/code/tfa/mp157_alientek/tf-a-stm32mp-2.2.r1-r0/tf-a-stm32mp-2.2.r1/../build/serialboot/bl2/delay_timer.o
 .text          0x0000000000000000        0x0 /home/charles/linux/code/tfa/mp157_alientek/tf-a-stm32mp-2.2.r1-r0/tf-a-stm32mp-2.2.r1/../build/serialboot/bl2/generic_delay_timer.o
 .data          0x0000000000000000        0x0 /home/charles/linux/code/tfa/mp157_alientek/tf-a-stm32mp-2.2.r1-r0/tf-a-stm32mp-2.2.r1/../build/serialboot/bl2/generic_delay_timer.o
 .bss           0x0000000000000000        0x0 /home/charles/linux/code/tfa/mp157_alientek/tf-a-stm32mp-2.2.r1-r0/tf-a-stm32mp-2.2.r1/../build/serialboot/bl2/generic_delay_timer.o
 .text          0x0000000000000000        0x0 /home/charles/linux/code/tfa/mp157_alientek/tf-a-stm32mp-2.2.r1-r0/tf-a-stm32mp-2.2.r1/../build/serialboot/bl2/bsec2.o
 .data          0x0000000000000000        0x0 /home/charles/linux/code/tfa/mp157_alientek/tf-a-stm32mp-2.2.r1-r0/tf-a-stm32mp-2.2.r1/../build/serialboot/bl2/bsec2.o
 .bss           0x0000000000000000        0x0 /home/charles/linux/code/tfa/mp157_alientek/tf-a-stm32mp-2.2.r1-r0/tf-a-stm32mp-2.2.r1/../build/serialboot/bl2/bsec2.o
 .text.bsec_get_base
                0x0000000000000000        0xc /home/charles/linux/code/tfa/mp157_alientek/tf-a-stm32mp-2.2.r1-r0/tf-a-stm32mp-2.2.r1/../build/serialboot/bl2/bsec2.o
 .text.bsec_get_config
                0x0000000000000000       0x44 /home/charles/linux/code/tfa/mp157_alientek/tf-a-stm32mp-2.2.r1-r0/tf-a-stm32mp-2.2.r1/../build/serialboot/bl2/bsec2.o
 .text.bsec_write_debug_conf
                0x0000000000000000       0x24 /home/charles/linux/code/tfa/mp157_alientek/tf-a-stm32mp-2.2.r1-r0/tf-a-stm32mp-2.2.r1/../build/serialboot/bl2/bsec2.o
 .text.bsec_set_config
                0x0000000000000000       0x6c /home/charles/linux/code/tfa/mp157_alientek/tf-a-stm32mp-2.2.r1-r0/tf-a-stm32mp-2.2.r1/../build/serialboot/bl2/bsec2.o
 .text.bsec_permanent_lock_otp
                0x0000000000000000       0x90 /home/charles/linux/code/tfa/mp157_alientek/tf-a-stm32mp-2.2.r1-r0/tf-a-stm32mp-2.2.r1/../build/serialboot/bl2/bsec2.o
 .text.bsec_get_hw_conf
                0x0000000000000000       0x10 /home/charles/linux/code/tfa/mp157_alientek/tf-a-stm32mp-2.2.r1-r0/tf-a-stm32mp-2.2.r1/../build/serialboot/bl2/bsec2.o
 .text.bsec_get_magic_id
                0x0000000000000000       0x10 /home/charles/linux/code/tfa/mp157_alientek/tf-a-stm32mp-2.2.r1-r0/tf-a-stm32mp-2.2.r1/../build/serialboot/bl2/bsec2.o
 .text.bsec_set_sp_lock
                0x0000000000000000       0x38 /home/charles/linux/code/tfa/mp157_alientek/tf-a-stm32mp-2.2.r1-r0/tf-a-stm32mp-2.2.r1/../build/serialboot/bl2/bsec2.o
 .text.bsec_otp_lock
                0x0000000000000000       0x2c /home/charles/linux/code/tfa/mp157_alientek/tf-a-stm32mp-2.2.r1-r0/tf-a-stm32mp-2.2.r1/../build/serialboot/bl2/bsec2.o
 .text.bsec_check_nsec_access_rights
                0x0000000000000000        0x4 /home/charles/linux/code/tfa/mp157_alientek/tf-a-stm32mp-2.2.r1-r0/tf-a-stm32mp-2.2.r1/../build/serialboot/bl2/bsec2.o
 .text          0x0000000000000000        0x0 /home/charles/linux/code/tfa/mp157_alientek/tf-a-stm32mp-2.2.r1-r0/tf-a-stm32mp-2.2.r1/../build/serialboot/bl2/stm32mp_clkfunc.o
 .data          0x0000000000000000        0x0 /home/charles/linux/code/tfa/mp157_alientek/tf-a-stm32mp-2.2.r1-r0/tf-a-stm32mp-2.2.r1/../build/serialboot/bl2/stm32mp_clkfunc.o
 .bss           0x0000000000000000        0x0 /home/charles/linux/code/tfa/mp157_alientek/tf-a-stm32mp-2.2.r1-r0/tf-a-stm32mp-2.2.r1/../build/serialboot/bl2/stm32mp_clkfunc.o
 .text.fdt_rcc_read_uint32_default
                0x0000000000000000       0x1e /home/charles/linux/code/tfa/mp157_alientek/tf-a-stm32mp-2.2.r1-r0/tf-a-stm32mp-2.2.r1/../build/serialboot/bl2/stm32mp_clkfunc.o
 .text.fdt_rcc_enable_it
                0x0000000000000000       0x1c /home/charles/linux/code/tfa/mp157_alientek/tf-a-stm32mp-2.2.r1-r0/tf-a-stm32mp-2.2.r1/../build/serialboot/bl2/stm32mp_clkfunc.o
 .rodata.fdt_get_clock_id_by_name.str1.1
                0x0000000000000000        0xc /home/charles/linux/code/tfa/mp157_alientek/tf-a-stm32mp-2.2.r1-r0/tf-a-stm32mp-2.2.r1/../build/serialboot/bl2/stm32mp_clkfunc.o
 .text.fdt_get_clock_id_by_name
                0x0000000000000000       0x70 /home/charles/linux/code/tfa/mp157_alientek/tf-a-stm32mp-2.2.r1-r0/tf-a-stm32mp-2.2.r1/../build/serialboot/bl2/stm32mp_clkfunc.o
 .rodata.fdt_get_uart_clock_freq.str1.1
                0x0000000000000000       0x10 /home/charles/linux/code/tfa/mp157_alientek/tf-a-stm32mp-2.2.r1-r0/tf-a-stm32mp-2.2.r1/../build/serialboot/bl2/stm32mp_clkfunc.o
 .text.fdt_get_uart_clock_freq
                0x0000000000000000       0x30 /home/charles/linux/code/tfa/mp157_alientek/tf-a-stm32mp-2.2.r1-r0/tf-a-stm32mp-2.2.r1/../build/serialboot/bl2/stm32mp_clkfunc.o
 .text.stm32mp_stgen_restore_counter
                0x0000000000000000       0x48 /home/charles/linux/code/tfa/mp157_alientek/tf-a-stm32mp-2.2.r1-r0/tf-a-stm32mp-2.2.r1/../build/serialboot/bl2/stm32mp_clkfunc.o
 .text          0x0000000000000000        0x0 /home/charles/linux/code/tfa/mp157_alientek/tf-a-stm32mp-2.2.r1-r0/tf-a-stm32mp-2.2.r1/../build/serialboot/bl2/stm32mp1_clk.o
 .data          0x0000000000000000        0x0 /home/charles/linux/code/tfa/mp157_alientek/tf-a-stm32mp-2.2.r1-r0/tf-a-stm32mp-2.2.r1/../build/serialboot/bl2/stm32mp1_clk.o
 .bss           0x0000000000000000        0x0 /home/charles/linux/code/tfa/mp157_alientek/tf-a-stm32mp-2.2.r1-r0/tf-a-stm32mp-2.2.r1/../build/serialboot/bl2/stm32mp1_clk.o
 .text.stm32mp1_pll1_config_from_opp_khz
                0x0000000000000000      0x158 /home/charles/linux/code/tfa/mp157_alientek/tf-a-stm32mp-2.2.r1-r0/tf-a-stm32mp-2.2.r1/../build/serialboot/bl2/stm32mp1_clk.o
 .text.stm32mp1_rcc_is_secure
                0x0000000000000000        0xe /home/charles/linux/code/tfa/mp157_alientek/tf-a-stm32mp-2.2.r1-r0/tf-a-stm32mp-2.2.r1/../build/serialboot/bl2/stm32mp1_clk.o
 .text.stm32mp1_rcc_is_mckprot
                0x0000000000000000       0x14 /home/charles/linux/code/tfa/mp157_alientek/tf-a-stm32mp-2.2.r1-r0/tf-a-stm32mp-2.2.r1/../build/serialboot/bl2/stm32mp1_clk.o
 .text.stm32mp1_clk_force_disable
                0x0000000000000000        0x6 /home/charles/linux/code/tfa/mp157_alientek/tf-a-stm32mp-2.2.r1-r0/tf-a-stm32mp-2.2.r1/../build/serialboot/bl2/stm32mp1_clk.o
 .text.stm32mp_clk_is_enabled
                0x0000000000000000       0x40 /home/charles/linux/code/tfa/mp157_alientek/tf-a-stm32mp-2.2.r1-r0/tf-a-stm32mp-2.2.r1/../build/serialboot/bl2/stm32mp1_clk.o
 .text.stm32mp_clk_timer_get_rate
                0x0000000000000000       0x3c /home/charles/linux/code/tfa/mp157_alientek/tf-a-stm32mp-2.2.r1-r0/tf-a-stm32mp-2.2.r1/../build/serialboot/bl2/stm32mp1_clk.o
 .text.stm32mp1_rtc_get_read_twice
                0x0000000000000000       0x5e /home/charles/linux/code/tfa/mp157_alientek/tf-a-stm32mp-2.2.r1-r0/tf-a-stm32mp-2.2.r1/../build/serialboot/bl2/stm32mp1_clk.o
 .text.stm32mp1_round_opp_khz
                0x0000000000000000       0x38 /home/charles/linux/code/tfa/mp157_alientek/tf-a-stm32mp-2.2.r1-r0/tf-a-stm32mp-2.2.r1/../build/serialboot/bl2/stm32mp1_clk.o
 .rodata.stm32mp1_set_opp_khz.str1.1
                0x0000000000000000       0x24 /home/charles/linux/code/tfa/mp157_alientek/tf-a-stm32mp-2.2.r1-r0/tf-a-stm32mp-2.2.r1/../build/serialboot/bl2/stm32mp1_clk.o
 .text.stm32mp1_set_opp_khz
                0x0000000000000000       0x70 /home/charles/linux/code/tfa/mp157_alientek/tf-a-stm32mp-2.2.r1-r0/tf-a-stm32mp-2.2.r1/../build/serialboot/bl2/stm32mp1_clk.o
 .rodata.stm32mp1_clk_compute_all_pll1_settings.str1.1
                0x0000000000000000       0x32 /home/charles/linux/code/tfa/mp157_alientek/tf-a-stm32mp-2.2.r1-r0/tf-a-stm32mp-2.2.r1/../build/serialboot/bl2/stm32mp1_clk.o
 .text.stm32mp1_clk_compute_all_pll1_settings
                0x0000000000000000      0x130 /home/charles/linux/code/tfa/mp157_alientek/tf-a-stm32mp-2.2.r1-r0/tf-a-stm32mp-2.2.r1/../build/serialboot/bl2/stm32mp1_clk.o
 .text.stm32mp1_clk_lp_save_opp_pll1_settings
                0x0000000000000000       0x2c /home/charles/linux/code/tfa/mp157_alientek/tf-a-stm32mp-2.2.r1-r0/tf-a-stm32mp-2.2.r1/../build/serialboot/bl2/stm32mp1_clk.o
 .text.stm32mp1_clk_rcc2id
                0x0000000000000000       0x40 /home/charles/linux/code/tfa/mp157_alientek/tf-a-stm32mp-2.2.r1-r0/tf-a-stm32mp-2.2.r1/../build/serialboot/bl2/stm32mp1_clk.o
 .text.stm32mp1_register_clock_parents_secure
                0x0000000000000000        0x2 /home/charles/linux/code/tfa/mp157_alientek/tf-a-stm32mp-2.2.r1-r0/tf-a-stm32mp-2.2.r1/../build/serialboot/bl2/stm32mp1_clk.o
 .text.save_clock_pm_context
                0x0000000000000000       0x50 /home/charles/linux/code/tfa/mp157_alientek/tf-a-stm32mp-2.2.r1-r0/tf-a-stm32mp-2.2.r1/../build/serialboot/bl2/stm32mp1_clk.o
 .text.restore_clock_pm_context
                0x0000000000000000       0x50 /home/charles/linux/code/tfa/mp157_alientek/tf-a-stm32mp-2.2.r1-r0/tf-a-stm32mp-2.2.r1/../build/serialboot/bl2/stm32mp1_clk.o
 .text.stm32mp1_clock_suspend
                0x0000000000000000       0x98 /home/charles/linux/code/tfa/mp157_alientek/tf-a-stm32mp-2.2.r1-r0/tf-a-stm32mp-2.2.r1/../build/serialboot/bl2/stm32mp1_clk.o
 .text.stm32mp1_clock_resume
                0x0000000000000000       0xd4 /home/charles/linux/code/tfa/mp157_alientek/tf-a-stm32mp-2.2.r1-r0/tf-a-stm32mp-2.2.r1/../build/serialboot/bl2/stm32mp1_clk.o
 .text.stm32mp1_clock_stopmode_save
                0x0000000000000000       0x4c /home/charles/linux/code/tfa/mp157_alientek/tf-a-stm32mp-2.2.r1-r0/tf-a-stm32mp-2.2.r1/../build/serialboot/bl2/stm32mp1_clk.o
 .text.stm32mp1_clock_stopmode_resume
                0x0000000000000000       0x98 /home/charles/linux/code/tfa/mp157_alientek/tf-a-stm32mp-2.2.r1-r0/tf-a-stm32mp-2.2.r1/../build/serialboot/bl2/stm32mp1_clk.o
 .text.stm32mp1_dump_clocks_state
                0x0000000000000000        0x2 /home/charles/linux/code/tfa/mp157_alientek/tf-a-stm32mp-2.2.r1-r0/tf-a-stm32mp-2.2.r1/../build/serialboot/bl2/stm32mp1_clk.o
 .bss.mcudivr   0x0000000000000000        0x4 /home/charles/linux/code/tfa/mp157_alientek/tf-a-stm32mp-2.2.r1-r0/tf-a-stm32mp-2.2.r1/../build/serialboot/bl2/stm32mp1_clk.o
 .bss.mssckselr
                0x0000000000000000        0x4 /home/charles/linux/code/tfa/mp157_alientek/tf-a-stm32mp-2.2.r1-r0/tf-a-stm32mp-2.2.r1/../build/serialboot/bl2/stm32mp1_clk.o
 .bss.pll3cr    0x0000000000000000        0x4 /home/charles/linux/code/tfa/mp157_alientek/tf-a-stm32mp-2.2.r1-r0/tf-a-stm32mp-2.2.r1/../build/serialboot/bl2/stm32mp1_clk.o
 .bss.pll4cr    0x0000000000000000        0x4 /home/charles/linux/code/tfa/mp157_alientek/tf-a-stm32mp-2.2.r1-r0/tf-a-stm32mp-2.2.r1/../build/serialboot/bl2/stm32mp1_clk.o
 .data.backup_clock_cfg
                0x0000000000000000       0x38 /home/charles/linux/code/tfa/mp157_alientek/tf-a-stm32mp-2.2.r1-r0/tf-a-stm32mp-2.2.r1/../build/serialboot/bl2/stm32mp1_clk.o
 .data.backup_clock_sc_cfg
                0x0000000000000000       0x58 /home/charles/linux/code/tfa/mp157_alientek/tf-a-stm32mp-2.2.r1-r0/tf-a-stm32mp-2.2.r1/../build/serialboot/bl2/stm32mp1_clk.o
 .data.backup_mux0_cfg
                0x0000000000000000       0x88 /home/charles/linux/code/tfa/mp157_alientek/tf-a-stm32mp-2.2.r1-r0/tf-a-stm32mp-2.2.r1/../build/serialboot/bl2/stm32mp1_clk.o
 .data.backup_mux4_cfg
                0x0000000000000000        0x4 /home/charles/linux/code/tfa/mp157_alientek/tf-a-stm32mp-2.2.r1-r0/tf-a-stm32mp-2.2.r1/../build/serialboot/bl2/stm32mp1_clk.o
 .text          0x0000000000000000        0x0 /home/charles/linux/code/tfa/mp157_alientek/tf-a-stm32mp-2.2.r1-r0/tf-a-stm32mp-2.2.r1/../build/serialboot/bl2/stm32mp1_ddr_helpers.o
 .data          0x0000000000000000        0x0 /home/charles/linux/code/tfa/mp157_alientek/tf-a-stm32mp-2.2.r1-r0/tf-a-stm32mp-2.2.r1/../build/serialboot/bl2/stm32mp1_ddr_helpers.o
 .bss           0x0000000000000000        0x0 /home/charles/linux/code/tfa/mp157_alientek/tf-a-stm32mp-2.2.r1-r0/tf-a-stm32mp-2.2.r1/../build/serialboot/bl2/stm32mp1_ddr_helpers.o
 .text.do_sw_handshake
                0x0000000000000000       0x14 /home/charles/linux/code/tfa/mp157_alientek/tf-a-stm32mp-2.2.r1-r0/tf-a-stm32mp-2.2.r1/../build/serialboot/bl2/stm32mp1_ddr_helpers.o
 .text.do_sw_ack
                0x0000000000000000       0x5c /home/charles/linux/code/tfa/mp157_alientek/tf-a-stm32mp-2.2.r1-r0/tf-a-stm32mp-2.2.r1/../build/serialboot/bl2/stm32mp1_ddr_helpers.o
 .text.ddr_sw_self_refresh_exit
                0x0000000000000000      0x1f4 /home/charles/linux/code/tfa/mp157_alientek/tf-a-stm32mp-2.2.r1-r0/tf-a-stm32mp-2.2.r1/../build/serialboot/bl2/stm32mp1_ddr_helpers.o
 .text.ddr_standby_sr_entry
                0x0000000000000000      0x238 /home/charles/linux/code/tfa/mp157_alientek/tf-a-stm32mp-2.2.r1-r0/tf-a-stm32mp-2.2.r1/../build/serialboot/bl2/stm32mp1_ddr_helpers.o
 .text.ddr_save_sr_mode
                0x0000000000000000       0x10 /home/charles/linux/code/tfa/mp157_alientek/tf-a-stm32mp-2.2.r1-r0/tf-a-stm32mp-2.2.r1/../build/serialboot/bl2/stm32mp1_ddr_helpers.o
 .text.ddr_restore_sr_mode
                0x0000000000000000        0xc /home/charles/linux/code/tfa/mp157_alientek/tf-a-stm32mp-2.2.r1-r0/tf-a-stm32mp-2.2.r1/../build/serialboot/bl2/stm32mp1_ddr_helpers.o
 .text.ddr_is_nonsecured_area
                0x0000000000000000       0x4a /home/charles/linux/code/tfa/mp157_alientek/tf-a-stm32mp-2.2.r1-r0/tf-a-stm32mp-2.2.r1/../build/serialboot/bl2/stm32mp1_ddr_helpers.o
 .bss.saved_ddr_sr_mode
                0x0000000000000000        0x4 /home/charles/linux/code/tfa/mp157_alientek/tf-a-stm32mp-2.2.r1-r0/tf-a-stm32mp-2.2.r1/../build/serialboot/bl2/stm32mp1_ddr_helpers.o
 .text          0x0000000000000000        0x0 /home/charles/linux/code/tfa/mp157_alientek/tf-a-stm32mp-2.2.r1-r0/tf-a-stm32mp-2.2.r1/../build/serialboot/bl2/stm32_gpio.o
 .data          0x0000000000000000        0x0 /home/charles/linux/code/tfa/mp157_alientek/tf-a-stm32mp-2.2.r1-r0/tf-a-stm32mp-2.2.r1/../build/serialboot/bl2/stm32_gpio.o
 .bss           0x0000000000000000        0x0 /home/charles/linux/code/tfa/mp157_alientek/tf-a-stm32mp-2.2.r1-r0/tf-a-stm32mp-2.2.r1/../build/serialboot/bl2/stm32_gpio.o
 .text.set_gpio_secure_cfg
                0x0000000000000000       0x4c /home/charles/linux/code/tfa/mp157_alientek/tf-a-stm32mp-2.2.r1-r0/tf-a-stm32mp-2.2.r1/../build/serialboot/bl2/stm32_gpio.o
 .text          0x0000000000000000        0x0 /home/charles/linux/code/tfa/mp157_alientek/tf-a-stm32mp-2.2.r1-r0/tf-a-stm32mp-2.2.r1/../build/serialboot/bl2/stm32_i2c.o
 .data          0x0000000000000000        0x0 /home/charles/linux/code/tfa/mp157_alientek/tf-a-stm32mp-2.2.r1-r0/tf-a-stm32mp-2.2.r1/../build/serialboot/bl2/stm32_i2c.o
 .bss           0x0000000000000000        0x0 /home/charles/linux/code/tfa/mp157_alientek/tf-a-stm32mp-2.2.r1-r0/tf-a-stm32mp-2.2.r1/../build/serialboot/bl2/stm32_i2c.o
 .text.stm32_i2c_master_transmit
                0x0000000000000000       0x18 /home/charles/linux/code/tfa/mp157_alientek/tf-a-stm32mp-2.2.r1-r0/tf-a-stm32mp-2.2.r1/../build/serialboot/bl2/stm32_i2c.o
 .text.stm32_i2c_master_receive
                0x0000000000000000       0x14 /home/charles/linux/code/tfa/mp157_alientek/tf-a-stm32mp-2.2.r1-r0/tf-a-stm32mp-2.2.r1/../build/serialboot/bl2/stm32_i2c.o
 .text          0x0000000000000000        0x0 /home/charles/linux/code/tfa/mp157_alientek/tf-a-stm32mp-2.2.r1-r0/tf-a-stm32mp-2.2.r1/../build/serialboot/bl2/stm32_iwdg.o
 .data          0x0000000000000000        0x0 /home/charles/linux/code/tfa/mp157_alientek/tf-a-stm32mp-2.2.r1-r0/tf-a-stm32mp-2.2.r1/../build/serialboot/bl2/stm32_iwdg.o
 .bss           0x0000000000000000        0x0 /home/charles/linux/code/tfa/mp157_alientek/tf-a-stm32mp-2.2.r1-r0/tf-a-stm32mp-2.2.r1/../build/serialboot/bl2/stm32_iwdg.o
 .text          0x0000000000000000        0x0 /home/charles/linux/code/tfa/mp157_alientek/tf-a-stm32mp-2.2.r1-r0/tf-a-stm32mp-2.2.r1/../build/serialboot/bl2/stm32mp_pmic.o
 .data          0x0000000000000000        0x0 /home/charles/linux/code/tfa/mp157_alientek/tf-a-stm32mp-2.2.r1-r0/tf-a-stm32mp-2.2.r1/../build/serialboot/bl2/stm32mp_pmic.o
 .bss           0x0000000000000000        0x0 /home/charles/linux/code/tfa/mp157_alientek/tf-a-stm32mp-2.2.r1-r0/tf-a-stm32mp-2.2.r1/../build/serialboot/bl2/stm32mp_pmic.o
 .text.pmic_set_lp_config
                0x0000000000000000        0xa /home/charles/linux/code/tfa/mp157_alientek/tf-a-stm32mp-2.2.r1-r0/tf-a-stm32mp-2.2.r1/../build/serialboot/bl2/stm32mp_pmic.o
 .text.pmic_set_regulator_min_voltage
                0x0000000000000000       0x2e /home/charles/linux/code/tfa/mp157_alientek/tf-a-stm32mp-2.2.r1-r0/tf-a-stm32mp-2.2.r1/../build/serialboot/bl2/stm32mp_pmic.o
 .text          0x0000000000000000        0x0 /home/charles/linux/code/tfa/mp157_alientek/tf-a-stm32mp-2.2.r1-r0/tf-a-stm32mp-2.2.r1/../build/serialboot/bl2/stpmic1.o
 .data          0x0000000000000000        0x0 /home/charles/linux/code/tfa/mp157_alientek/tf-a-stm32mp-2.2.r1-r0/tf-a-stm32mp-2.2.r1/../build/serialboot/bl2/stpmic1.o
 .bss           0x0000000000000000        0x0 /home/charles/linux/code/tfa/mp157_alientek/tf-a-stm32mp-2.2.r1-r0/tf-a-stm32mp-2.2.r1/../build/serialboot/bl2/stpmic1.o
 .text.stpmic1_lp_copy_reg
                0x0000000000000000       0x26 /home/charles/linux/code/tfa/mp157_alientek/tf-a-stm32mp-2.2.r1-r0/tf-a-stm32mp-2.2.r1/../build/serialboot/bl2/stpmic1.o
 .text.stpmic1_powerctrl_on
                0x0000000000000000        0xa /home/charles/linux/code/tfa/mp157_alientek/tf-a-stm32mp-2.2.r1-r0/tf-a-stm32mp-2.2.r1/../build/serialboot/bl2/stpmic1.o
 .text.stpmic1_switch_off
                0x0000000000000000        0xa /home/charles/linux/code/tfa/mp157_alientek/tf-a-stm32mp-2.2.r1-r0/tf-a-stm32mp-2.2.r1/../build/serialboot/bl2/stpmic1.o
 .text.stpmic1_lp_reg_on_off
                0x0000000000000000       0x16 /home/charles/linux/code/tfa/mp157_alientek/tf-a-stm32mp-2.2.r1-r0/tf-a-stm32mp-2.2.r1/../build/serialboot/bl2/stpmic1.o
 .text.stpmic1_lp_set_mode
                0x0000000000000000       0x1a /home/charles/linux/code/tfa/mp157_alientek/tf-a-stm32mp-2.2.r1-r0/tf-a-stm32mp-2.2.r1/../build/serialboot/bl2/stpmic1.o
 .text.stpmic1_lp_set_voltage
                0x0000000000000000       0x5c /home/charles/linux/code/tfa/mp157_alientek/tf-a-stm32mp-2.2.r1-r0/tf-a-stm32mp-2.2.r1/../build/serialboot/bl2/stpmic1.o
 .text          0x0000000000000000        0x0 /home/charles/linux/code/tfa/mp157_alientek/tf-a-stm32mp-2.2.r1-r0/tf-a-stm32mp-2.2.r1/../build/serialboot/bl2/stm32mp_dummy_regulator.o
 .data          0x0000000000000000        0x0 /home/charles/linux/code/tfa/mp157_alientek/tf-a-stm32mp-2.2.r1-r0/tf-a-stm32mp-2.2.r1/../build/serialboot/bl2/stm32mp_dummy_regulator.o
 .bss           0x0000000000000000        0x0 /home/charles/linux/code/tfa/mp157_alientek/tf-a-stm32mp-2.2.r1-r0/tf-a-stm32mp-2.2.r1/../build/serialboot/bl2/stm32mp_dummy_regulator.o
 .text          0x0000000000000000        0x0 /home/charles/linux/code/tfa/mp157_alientek/tf-a-stm32mp-2.2.r1-r0/tf-a-stm32mp-2.2.r1/../build/serialboot/bl2/stm32mp_regulator.o
 .data          0x0000000000000000        0x0 /home/charles/linux/code/tfa/mp157_alientek/tf-a-stm32mp-2.2.r1-r0/tf-a-stm32mp-2.2.r1/../build/serialboot/bl2/stm32mp_regulator.o
 .bss           0x0000000000000000        0x0 /home/charles/linux/code/tfa/mp157_alientek/tf-a-stm32mp-2.2.r1-r0/tf-a-stm32mp-2.2.r1/../build/serialboot/bl2/stm32mp_regulator.o
 .text.plat_bind_regulator
                0x0000000000000000        0x6 /home/charles/linux/code/tfa/mp157_alientek/tf-a-stm32mp-2.2.r1-r0/tf-a-stm32mp-2.2.r1/../build/serialboot/bl2/stm32mp_regulator.o
 .text          0x0000000000000000        0x0 /home/charles/linux/code/tfa/mp157_alientek/tf-a-stm32mp-2.2.r1-r0/tf-a-stm32mp-2.2.r1/../build/serialboot/bl2/stm32mp1_reset.o
 .data          0x0000000000000000        0x0 /home/charles/linux/code/tfa/mp157_alientek/tf-a-stm32mp-2.2.r1-r0/tf-a-stm32mp-2.2.r1/../build/serialboot/bl2/stm32mp1_reset.o
 .bss           0x0000000000000000        0x0 /home/charles/linux/code/tfa/mp157_alientek/tf-a-stm32mp-2.2.r1-r0/tf-a-stm32mp-2.2.r1/../build/serialboot/bl2/stm32mp1_reset.o
 .text          0x0000000000000000        0x0 /home/charles/linux/code/tfa/mp157_alientek/tf-a-stm32mp-2.2.r1-r0/tf-a-stm32mp-2.2.r1/../build/serialboot/bl2/stm32mp_dt.o
 .data          0x0000000000000000        0x0 /home/charles/linux/code/tfa/mp157_alientek/tf-a-stm32mp-2.2.r1-r0/tf-a-stm32mp-2.2.r1/../build/serialboot/bl2/stm32mp_dt.o
 .bss           0x0000000000000000        0x0 /home/charles/linux/code/tfa/mp157_alientek/tf-a-stm32mp-2.2.r1-r0/tf-a-stm32mp-2.2.r1/../build/serialboot/bl2/stm32mp_dt.o
 .rodata.fdt_get_interrupt.str1.1
                0x0000000000000000       0x31 /home/charles/linux/code/tfa/mp157_alientek/tf-a-stm32mp-2.2.r1-r0/tf-a-stm32mp-2.2.r1/../build/serialboot/bl2/stm32mp_dt.o
 .text.fdt_get_interrupt
                0x0000000000000000       0x5c /home/charles/linux/code/tfa/mp157_alientek/tf-a-stm32mp-2.2.r1-r0/tf-a-stm32mp-2.2.r1/../build/serialboot/bl2/stm32mp_dt.o
 .text.dt_get_all_opp_freqvolt
                0x0000000000000000       0x94 /home/charles/linux/code/tfa/mp157_alientek/tf-a-stm32mp-2.2.r1-r0/tf-a-stm32mp-2.2.r1/../build/serialboot/bl2/stm32mp_dt.o
 .rodata.fdt_get_gpio_bank_pinctrl_node.str1.1
                0x0000000000000000       0x2a /home/charles/linux/code/tfa/mp157_alientek/tf-a-stm32mp-2.2.r1-r0/tf-a-stm32mp-2.2.r1/../build/serialboot/bl2/stm32mp_dt.o
 .text.fdt_get_gpio_bank_pinctrl_node
                0x0000000000000000       0x30 /home/charles/linux/code/tfa/mp157_alientek/tf-a-stm32mp-2.2.r1-r0/tf-a-stm32mp-2.2.r1/../build/serialboot/bl2/stm32mp_dt.o
 .rodata.fdt_get_gpioz_nbpins_from_dt.str1.1
                0x0000000000000000       0x17 /home/charles/linux/code/tfa/mp157_alientek/tf-a-stm32mp-2.2.r1-r0/tf-a-stm32mp-2.2.r1/../build/serialboot/bl2/stm32mp_dt.o
 .text.fdt_get_gpioz_nbpins_from_dt
                0x0000000000000000       0x9c /home/charles/linux/code/tfa/mp157_alientek/tf-a-stm32mp-2.2.r1-r0/tf-a-stm32mp-2.2.r1/../build/serialboot/bl2/stm32mp_dt.o
 .text          0x0000000000000000        0x0 /home/charles/linux/code/tfa/mp157_alientek/tf-a-stm32mp-2.2.r1-r0/tf-a-stm32mp-2.2.r1/../build/serialboot/bl2/stm32mp_shres_helpers.o
 .data          0x0000000000000000        0x0 /home/charles/linux/code/tfa/mp157_alientek/tf-a-stm32mp-2.2.r1-r0/tf-a-stm32mp-2.2.r1/../build/serialboot/bl2/stm32mp_shres_helpers.o
 .bss           0x0000000000000000        0x0 /home/charles/linux/code/tfa/mp157_alientek/tf-a-stm32mp-2.2.r1-r0/tf-a-stm32mp-2.2.r1/../build/serialboot/bl2/stm32mp_shres_helpers.o
 .text.stm32mp_mmio_clrsetbits_32_shregs
                0x0000000000000000       0x1e /home/charles/linux/code/tfa/mp157_alientek/tf-a-stm32mp-2.2.r1-r0/tf-a-stm32mp-2.2.r1/../build/serialboot/bl2/stm32mp_shres_helpers.o
 .text          0x0000000000000000        0x0 /home/charles/linux/code/tfa/mp157_alientek/tf-a-stm32mp-2.2.r1-r0/tf-a-stm32mp-2.2.r1/../build/serialboot/bl2/stm32mp1_context.o
 .data          0x0000000000000000        0x0 /home/charles/linux/code/tfa/mp157_alientek/tf-a-stm32mp-2.2.r1-r0/tf-a-stm32mp-2.2.r1/../build/serialboot/bl2/stm32mp1_context.o
 .bss           0x0000000000000000        0x0 /home/charles/linux/code/tfa/mp157_alientek/tf-a-stm32mp-2.2.r1-r0/tf-a-stm32mp-2.2.r1/../build/serialboot/bl2/stm32mp1_context.o
 .text.stm32_clean_context
                0x0000000000000000       0x1e /home/charles/linux/code/tfa/mp157_alientek/tf-a-stm32mp-2.2.r1-r0/tf-a-stm32mp-2.2.r1/../build/serialboot/bl2/stm32mp1_context.o
 .text.stm32mp1_pm_save_clock_cfg
                0x0000000000000000       0x38 /home/charles/linux/code/tfa/mp157_alientek/tf-a-stm32mp-2.2.r1-r0/tf-a-stm32mp-2.2.r1/../build/serialboot/bl2/stm32mp1_context.o
 .text.stm32mp1_pm_restore_clock_cfg
                0x0000000000000000       0x38 /home/charles/linux/code/tfa/mp157_alientek/tf-a-stm32mp-2.2.r1-r0/tf-a-stm32mp-2.2.r1/../build/serialboot/bl2/stm32mp1_context.o
 .text.stm32_save_context
                0x0000000000000000       0x7c /home/charles/linux/code/tfa/mp157_alientek/tf-a-stm32mp-2.2.r1-r0/tf-a-stm32mp-2.2.r1/../build/serialboot/bl2/stm32mp1_context.o
 .text.stm32_restore_context
                0x0000000000000000       0x84 /home/charles/linux/code/tfa/mp157_alientek/tf-a-stm32mp-2.2.r1-r0/tf-a-stm32mp-2.2.r1/../build/serialboot/bl2/stm32mp1_context.o
 .text.stm32_get_stgen_from_context
                0x0000000000000000       0x1c /home/charles/linux/code/tfa/mp157_alientek/tf-a-stm32mp-2.2.r1-r0/tf-a-stm32mp-2.2.r1/../build/serialboot/bl2/stm32mp1_context.o
 .text.stm32_are_pll1_settings_valid_in_context
                0x0000000000000000       0x2c /home/charles/linux/code/tfa/mp157_alientek/tf-a-stm32mp-2.2.r1-r0/tf-a-stm32mp-2.2.r1/../build/serialboot/bl2/stm32mp1_context.o
 .text.stm32_get_boot_interface
                0x0000000000000000       0x2c /home/charles/linux/code/tfa/mp157_alientek/tf-a-stm32mp-2.2.r1-r0/tf-a-stm32mp-2.2.r1/../build/serialboot/bl2/stm32mp1_context.o
 .text          0x0000000000000000        0x0 /home/charles/linux/code/tfa/mp157_alientek/tf-a-stm32mp-2.2.r1-r0/tf-a-stm32mp-2.2.r1/../build/serialboot/bl2/stm32mp1_dbgmcu.o
 .data          0x0000000000000000        0x0 /home/charles/linux/code/tfa/mp157_alientek/tf-a-stm32mp-2.2.r1-r0/tf-a-stm32mp-2.2.r1/../build/serialboot/bl2/stm32mp1_dbgmcu.o
 .bss           0x0000000000000000        0x0 /home/charles/linux/code/tfa/mp157_alientek/tf-a-stm32mp-2.2.r1-r0/tf-a-stm32mp-2.2.r1/../build/serialboot/bl2/stm32mp1_dbgmcu.o
 .text          0x0000000000000000        0x0 /home/charles/linux/code/tfa/mp157_alientek/tf-a-stm32mp-2.2.r1-r0/tf-a-stm32mp-2.2.r1/../build/serialboot/bl2/stm32mp1_security.o
 .data          0x0000000000000000        0x0 /home/charles/linux/code/tfa/mp157_alientek/tf-a-stm32mp-2.2.r1-r0/tf-a-stm32mp-2.2.r1/../build/serialboot/bl2/stm32mp1_security.o
 .bss           0x0000000000000000        0x0 /home/charles/linux/code/tfa/mp157_alientek/tf-a-stm32mp-2.2.r1-r0/tf-a-stm32mp-2.2.r1/../build/serialboot/bl2/stm32mp1_security.o
 .text.stm32mp1_security_setup
                0x0000000000000000       0x58 /home/charles/linux/code/tfa/mp157_alientek/tf-a-stm32mp-2.2.r1-r0/tf-a-stm32mp-2.2.r1/../build/serialboot/bl2/stm32mp1_security.o
 .text          0x0000000000000000        0x0 /home/charles/linux/code/tfa/mp157_alientek/tf-a-stm32mp-2.2.r1-r0/tf-a-stm32mp-2.2.r1/../build/serialboot/bl2/stm32mp1_syscfg.o
 .data          0x0000000000000000        0x0 /home/charles/linux/code/tfa/mp157_alientek/tf-a-stm32mp-2.2.r1-r0/tf-a-stm32mp-2.2.r1/../build/serialboot/bl2/stm32mp1_syscfg.o
 .bss           0x0000000000000000        0x0 /home/charles/linux/code/tfa/mp157_alientek/tf-a-stm32mp-2.2.r1-r0/tf-a-stm32mp-2.2.r1/../build/serialboot/bl2/stm32mp1_syscfg.o
 .text.stm32mp1_syscfg_disable_io_compensation
                0x0000000000000000       0x34 /home/charles/linux/code/tfa/mp157_alientek/tf-a-stm32mp-2.2.r1-r0/tf-a-stm32mp-2.2.r1/../build/serialboot/bl2/stm32mp1_syscfg.o
 .text          0x0000000000000000        0x0 /home/charles/linux/code/tfa/mp157_alientek/tf-a-stm32mp-2.2.r1-r0/tf-a-stm32mp-2.2.r1/../build/serialboot/bl2/spinlock.o
 .data          0x0000000000000000        0x0 /home/charles/linux/code/tfa/mp157_alientek/tf-a-stm32mp-2.2.r1-r0/tf-a-stm32mp-2.2.r1/../build/serialboot/bl2/spinlock.o
 .bss           0x0000000000000000        0x0 /home/charles/linux/code/tfa/mp157_alientek/tf-a-stm32mp-2.2.r1-r0/tf-a-stm32mp-2.2.r1/../build/serialboot/bl2/spinlock.o
 .text          0x0000000000000000        0x0 /home/charles/linux/code/tfa/mp157_alientek/tf-a-stm32mp-2.2.r1-r0/tf-a-stm32mp-2.2.r1/../build/serialboot/bl2/platform_up_stack.o
 .data          0x0000000000000000        0x0 /home/charles/linux/code/tfa/mp157_alientek/tf-a-stm32mp-2.2.r1-r0/tf-a-stm32mp-2.2.r1/../build/serialboot/bl2/platform_up_stack.o
 .bss           0x0000000000000000        0x0 /home/charles/linux/code/tfa/mp157_alientek/tf-a-stm32mp-2.2.r1-r0/tf-a-stm32mp-2.2.r1/../build/serialboot/bl2/platform_up_stack.o
 .text.asm.plat_get_my_stack
                0x0000000000000000        0xc /home/charles/linux/code/tfa/mp157_alientek/tf-a-stm32mp-2.2.r1-r0/tf-a-stm32mp-2.2.r1/../build/serialboot/bl2/platform_up_stack.o
 .text          0x0000000000000000        0x0 /home/charles/linux/code/tfa/mp157_alientek/tf-a-stm32mp-2.2.r1-r0/tf-a-stm32mp-2.2.r1/../build/serialboot/bl2/bl2_el3_entrypoint.o
 .data          0x0000000000000000        0x0 /home/charles/linux/code/tfa/mp157_alientek/tf-a-stm32mp-2.2.r1-r0/tf-a-stm32mp-2.2.r1/../build/serialboot/bl2/bl2_el3_entrypoint.o
 .bss           0x0000000000000000        0x0 /home/charles/linux/code/tfa/mp157_alientek/tf-a-stm32mp-2.2.r1-r0/tf-a-stm32mp-2.2.r1/../build/serialboot/bl2/bl2_el3_entrypoint.o
 .text          0x0000000000000000        0x0 /home/charles/linux/code/tfa/mp157_alientek/tf-a-stm32mp-2.2.r1-r0/tf-a-stm32mp-2.2.r1/../build/serialboot/bl2/bl2_el3_exceptions.o
 .data          0x0000000000000000        0x0 /home/charles/linux/code/tfa/mp157_alientek/tf-a-stm32mp-2.2.r1-r0/tf-a-stm32mp-2.2.r1/../build/serialboot/bl2/bl2_el3_exceptions.o
 .bss           0x0000000000000000        0x0 /home/charles/linux/code/tfa/mp157_alientek/tf-a-stm32mp-2.2.r1-r0/tf-a-stm32mp-2.2.r1/../build/serialboot/bl2/bl2_el3_exceptions.o
 .text          0x0000000000000000        0x0 /home/charles/linux/code/tfa/mp157_alientek/tf-a-stm32mp-2.2.r1-r0/tf-a-stm32mp-2.2.r1/../build/serialboot/bl2/cpu_helpers.o
 .data          0x0000000000000000        0x0 /home/charles/linux/code/tfa/mp157_alientek/tf-a-stm32mp-2.2.r1-r0/tf-a-stm32mp-2.2.r1/../build/serialboot/bl2/cpu_helpers.o
 .bss           0x0000000000000000        0x0 /home/charles/linux/code/tfa/mp157_alientek/tf-a-stm32mp-2.2.r1-r0/tf-a-stm32mp-2.2.r1/../build/serialboot/bl2/cpu_helpers.o
 .text.asm.cpu_get_rev_var
                0x0000000000000000       0x10 /home/charles/linux/code/tfa/mp157_alientek/tf-a-stm32mp-2.2.r1-r0/tf-a-stm32mp-2.2.r1/../build/serialboot/bl2/cpu_helpers.o
 .text.asm.cpu_rev_var_ls
                0x0000000000000000       0x10 /home/charles/linux/code/tfa/mp157_alientek/tf-a-stm32mp-2.2.r1-r0/tf-a-stm32mp-2.2.r1/../build/serialboot/bl2/cpu_helpers.o
 .text.asm.cpu_rev_var_hs
                0x0000000000000000       0x10 /home/charles/linux/code/tfa/mp157_alientek/tf-a-stm32mp-2.2.r1-r0/tf-a-stm32mp-2.2.r1/../build/serialboot/bl2/cpu_helpers.o
 .text          0x0000000000000000        0x0 /home/charles/linux/code/tfa/mp157_alientek/tf-a-stm32mp-2.2.r1-r0/tf-a-stm32mp-2.2.r1/../build/serialboot/bl2/debug.o
 .data          0x0000000000000000        0x0 /home/charles/linux/code/tfa/mp157_alientek/tf-a-stm32mp-2.2.r1-r0/tf-a-stm32mp-2.2.r1/../build/serialboot/bl2/debug.o
 .bss           0x0000000000000000        0x0 /home/charles/linux/code/tfa/mp157_alientek/tf-a-stm32mp-2.2.r1-r0/tf-a-stm32mp-2.2.r1/../build/serialboot/bl2/debug.o
 .text          0x0000000000000000        0x0 /home/charles/linux/code/tfa/mp157_alientek/tf-a-stm32mp-2.2.r1-r0/tf-a-stm32mp-2.2.r1/../build/serialboot/bl2/cache_helpers.o
 .data          0x0000000000000000        0x0 /home/charles/linux/code/tfa/mp157_alientek/tf-a-stm32mp-2.2.r1-r0/tf-a-stm32mp-2.2.r1/../build/serialboot/bl2/cache_helpers.o
 .bss           0x0000000000000000        0x0 /home/charles/linux/code/tfa/mp157_alientek/tf-a-stm32mp-2.2.r1-r0/tf-a-stm32mp-2.2.r1/../build/serialboot/bl2/cache_helpers.o
 .text.asm.do_dcsw_op
                0x0000000000000000       0x9c /home/charles/linux/code/tfa/mp157_alientek/tf-a-stm32mp-2.2.r1-r0/tf-a-stm32mp-2.2.r1/../build/serialboot/bl2/cache_helpers.o
 .text.asm.dcsw_op_louis
                0x0000000000000000       0x14 /home/charles/linux/code/tfa/mp157_alientek/tf-a-stm32mp-2.2.r1-r0/tf-a-stm32mp-2.2.r1/../build/serialboot/bl2/cache_helpers.o
 .text.asm.dcsw_op_all
                0x0000000000000000       0x14 /home/charles/linux/code/tfa/mp157_alientek/tf-a-stm32mp-2.2.r1-r0/tf-a-stm32mp-2.2.r1/../build/serialboot/bl2/cache_helpers.o
 .text.asm.dcsw_op_level1
                0x0000000000000000       0x10 /home/charles/linux/code/tfa/mp157_alientek/tf-a-stm32mp-2.2.r1-r0/tf-a-stm32mp-2.2.r1/../build/serialboot/bl2/cache_helpers.o
 .text.asm.dcsw_op_level2
                0x0000000000000000       0x10 /home/charles/linux/code/tfa/mp157_alientek/tf-a-stm32mp-2.2.r1-r0/tf-a-stm32mp-2.2.r1/../build/serialboot/bl2/cache_helpers.o
 .text.asm.dcsw_op_level3
                0x0000000000000000       0x10 /home/charles/linux/code/tfa/mp157_alientek/tf-a-stm32mp-2.2.r1-r0/tf-a-stm32mp-2.2.r1/../build/serialboot/bl2/cache_helpers.o
 .text          0x0000000000000000        0x0 /home/charles/linux/code/tfa/mp157_alientek/tf-a-stm32mp-2.2.r1-r0/tf-a-stm32mp-2.2.r1/../build/serialboot/bl2/misc_helpers.o
 .data          0x0000000000000000        0x0 /home/charles/linux/code/tfa/mp157_alientek/tf-a-stm32mp-2.2.r1-r0/tf-a-stm32mp-2.2.r1/../build/serialboot/bl2/misc_helpers.o
 .bss           0x0000000000000000        0x0 /home/charles/linux/code/tfa/mp157_alientek/tf-a-stm32mp-2.2.r1-r0/tf-a-stm32mp-2.2.r1/../build/serialboot/bl2/misc_helpers.o
 .text.asm.smc  0x0000000000000000        0x8 /home/charles/linux/code/tfa/mp157_alientek/tf-a-stm32mp-2.2.r1-r0/tf-a-stm32mp-2.2.r1/../build/serialboot/bl2/misc_helpers.o
 .text.asm.memcpy4
                0x0000000000000000       0x50 /home/charles/linux/code/tfa/mp157_alientek/tf-a-stm32mp-2.2.r1-r0/tf-a-stm32mp-2.2.r1/../build/serialboot/bl2/misc_helpers.o
 .rodata.str1.1
                0x0000000000000000       0x1b /home/charles/linux/code/tfa/mp157_alientek/tf-a-stm32mp-2.2.r1-r0/tf-a-stm32mp-2.2.r1/../build/serialboot/bl2/misc_helpers.o
 .text          0x0000000000000000        0x0 /home/charles/linux/code/tfa/mp157_alientek/tf-a-stm32mp-2.2.r1-r0/tf-a-stm32mp-2.2.r1/../build/serialboot/bl2/platform_helpers.o
 .data          0x0000000000000000        0x0 /home/charles/linux/code/tfa/mp157_alientek/tf-a-stm32mp-2.2.r1-r0/tf-a-stm32mp-2.2.r1/../build/serialboot/bl2/platform_helpers.o
 .bss           0x0000000000000000        0x0 /home/charles/linux/code/tfa/mp157_alientek/tf-a-stm32mp-2.2.r1-r0/tf-a-stm32mp-2.2.r1/../build/serialboot/bl2/platform_helpers.o
 .text.asm.plat_report_exception
                0x0000000000000000        0x4 /home/charles/linux/code/tfa/mp157_alientek/tf-a-stm32mp-2.2.r1-r0/tf-a-stm32mp-2.2.r1/../build/serialboot/bl2/platform_helpers.o
 .text.asm.plat_report_undef_inst
                0x0000000000000000        0x4 /home/charles/linux/code/tfa/mp157_alientek/tf-a-stm32mp-2.2.r1-r0/tf-a-stm32mp-2.2.r1/../build/serialboot/bl2/platform_helpers.o
 .text.asm.plat_report_prefetch_abort
                0x0000000000000000        0x4 /home/charles/linux/code/tfa/mp157_alientek/tf-a-stm32mp-2.2.r1-r0/tf-a-stm32mp-2.2.r1/../build/serialboot/bl2/platform_helpers.o
 .text.asm.plat_report_data_abort
                0x0000000000000000        0x4 /home/charles/linux/code/tfa/mp157_alientek/tf-a-stm32mp-2.2.r1-r0/tf-a-stm32mp-2.2.r1/../build/serialboot/bl2/platform_helpers.o
 .text.asm.plat_reset_handler
                0x0000000000000000        0x4 /home/charles/linux/code/tfa/mp157_alientek/tf-a-stm32mp-2.2.r1-r0/tf-a-stm32mp-2.2.r1/../build/serialboot/bl2/platform_helpers.o
 .text.asm.plat_disable_acp
                0x0000000000000000        0x4 /home/charles/linux/code/tfa/mp157_alientek/tf-a-stm32mp-2.2.r1-r0/tf-a-stm32mp-2.2.r1/../build/serialboot/bl2/platform_helpers.o
 .text.asm.platform_mem_init
                0x0000000000000000        0x4 /home/charles/linux/code/tfa/mp157_alientek/tf-a-stm32mp-2.2.r1-r0/tf-a-stm32mp-2.2.r1/../build/serialboot/bl2/platform_helpers.o
 .text.asm.bl1_plat_prepare_exit
                0x0000000000000000        0x4 /home/charles/linux/code/tfa/mp157_alientek/tf-a-stm32mp-2.2.r1-r0/tf-a-stm32mp-2.2.r1/../build/serialboot/bl2/platform_helpers.o
 .text.asm.plat_panic_handler
                0x0000000000000000        0x4 /home/charles/linux/code/tfa/mp157_alientek/tf-a-stm32mp-2.2.r1-r0/tf-a-stm32mp-2.2.r1/../build/serialboot/bl2/platform_helpers.o
 .debug_line    0x0000000000000000       0xd3 /home/charles/linux/code/tfa/mp157_alientek/tf-a-stm32mp-2.2.r1-r0/tf-a-stm32mp-2.2.r1/../build/serialboot/bl2/platform_helpers.o
 .debug_info    0x0000000000000000       0x22 /home/charles/linux/code/tfa/mp157_alientek/tf-a-stm32mp-2.2.r1-r0/tf-a-stm32mp-2.2.r1/../build/serialboot/bl2/platform_helpers.o
 .debug_abbrev  0x0000000000000000       0x12 /home/charles/linux/code/tfa/mp157_alientek/tf-a-stm32mp-2.2.r1-r0/tf-a-stm32mp-2.2.r1/../build/serialboot/bl2/platform_helpers.o
 .debug_aranges
                0x0000000000000000       0x60 /home/charles/linux/code/tfa/mp157_alientek/tf-a-stm32mp-2.2.r1-r0/tf-a-stm32mp-2.2.r1/../build/serialboot/bl2/platform_helpers.o
 .debug_str     0x0000000000000000       0x8c /home/charles/linux/code/tfa/mp157_alientek/tf-a-stm32mp-2.2.r1-r0/tf-a-stm32mp-2.2.r1/../build/serialboot/bl2/platform_helpers.o
 .debug_ranges  0x0000000000000000       0x58 /home/charles/linux/code/tfa/mp157_alientek/tf-a-stm32mp-2.2.r1-r0/tf-a-stm32mp-2.2.r1/../build/serialboot/bl2/platform_helpers.o
 .debug_frame   0x0000000000000000       0xa0 /home/charles/linux/code/tfa/mp157_alientek/tf-a-stm32mp-2.2.r1-r0/tf-a-stm32mp-2.2.r1/../build/serialboot/bl2/platform_helpers.o
 .ARM.attributes
                0x0000000000000000       0x27 /home/charles/linux/code/tfa/mp157_alientek/tf-a-stm32mp-2.2.r1-r0/tf-a-stm32mp-2.2.r1/../build/serialboot/bl2/platform_helpers.o
 .text          0x0000000000000000       0x24 /home/charles/linux/code/tfa/mp157_alientek/tf-a-stm32mp-2.2.r1-r0/tf-a-stm32mp-2.2.r1/../build/serialboot/bl2/aeabi_ldivmod.o
 .data          0x0000000000000000        0x0 /home/charles/linux/code/tfa/mp157_alientek/tf-a-stm32mp-2.2.r1-r0/tf-a-stm32mp-2.2.r1/../build/serialboot/bl2/aeabi_ldivmod.o
 .bss           0x0000000000000000        0x0 /home/charles/linux/code/tfa/mp157_alientek/tf-a-stm32mp-2.2.r1-r0/tf-a-stm32mp-2.2.r1/../build/serialboot/bl2/aeabi_ldivmod.o
 .debug_line    0x0000000000000000       0x66 /home/charles/linux/code/tfa/mp157_alientek/tf-a-stm32mp-2.2.r1-r0/tf-a-stm32mp-2.2.r1/../build/serialboot/bl2/aeabi_ldivmod.o
 .debug_info    0x0000000000000000       0x26 /home/charles/linux/code/tfa/mp157_alientek/tf-a-stm32mp-2.2.r1-r0/tf-a-stm32mp-2.2.r1/../build/serialboot/bl2/aeabi_ldivmod.o
 .debug_abbrev  0x0000000000000000       0x14 /home/charles/linux/code/tfa/mp157_alientek/tf-a-stm32mp-2.2.r1-r0/tf-a-stm32mp-2.2.r1/../build/serialboot/bl2/aeabi_ldivmod.o
 .debug_aranges
                0x0000000000000000       0x20 /home/charles/linux/code/tfa/mp157_alientek/tf-a-stm32mp-2.2.r1-r0/tf-a-stm32mp-2.2.r1/../build/serialboot/bl2/aeabi_ldivmod.o
 .debug_str     0x0000000000000000       0x92 /home/charles/linux/code/tfa/mp157_alientek/tf-a-stm32mp-2.2.r1-r0/tf-a-stm32mp-2.2.r1/../build/serialboot/bl2/aeabi_ldivmod.o
 .ARM.attributes
                0x0000000000000000       0x27 /home/charles/linux/code/tfa/mp157_alientek/tf-a-stm32mp-2.2.r1-r0/tf-a-stm32mp-2.2.r1/../build/serialboot/bl2/aeabi_ldivmod.o
 .data          0x0000000000000000        0x0 /home/charles/linux/code/tfa/mp157_alientek/tf-a-stm32mp-2.2.r1-r0/tf-a-stm32mp-2.2.r1/../build/serialboot/bl2/aeabi_uldivmod.o
 .bss           0x0000000000000000        0x0 /home/charles/linux/code/tfa/mp157_alientek/tf-a-stm32mp-2.2.r1-r0/tf-a-stm32mp-2.2.r1/../build/serialboot/bl2/aeabi_uldivmod.o
 .text          0x0000000000000000        0x0 /home/charles/linux/code/tfa/mp157_alientek/tf-a-stm32mp-2.2.r1-r0/tf-a-stm32mp-2.2.r1/../build/serialboot/bl2/stm32_console.o
 .data          0x0000000000000000        0x0 /home/charles/linux/code/tfa/mp157_alientek/tf-a-stm32mp-2.2.r1-r0/tf-a-stm32mp-2.2.r1/../build/serialboot/bl2/stm32_console.o
 .bss           0x0000000000000000        0x0 /home/charles/linux/code/tfa/mp157_alientek/tf-a-stm32mp-2.2.r1-r0/tf-a-stm32mp-2.2.r1/../build/serialboot/bl2/stm32_console.o
 .text.asm.console_stm32_core_getc
                0x0000000000000000        0x8 /home/charles/linux/code/tfa/mp157_alientek/tf-a-stm32mp-2.2.r1-r0/tf-a-stm32mp-2.2.r1/../build/serialboot/bl2/stm32_console.o
 .text          0x0000000000000000        0x0 /home/charles/linux/code/tfa/mp157_alientek/tf-a-stm32mp-2.2.r1-r0/tf-a-stm32mp-2.2.r1/../build/serialboot/bl2/enable_mmu.o
 .data          0x0000000000000000        0x0 /home/charles/linux/code/tfa/mp157_alientek/tf-a-stm32mp-2.2.r1-r0/tf-a-stm32mp-2.2.r1/../build/serialboot/bl2/enable_mmu.o
 .bss           0x0000000000000000        0x0 /home/charles/linux/code/tfa/mp157_alientek/tf-a-stm32mp-2.2.r1-r0/tf-a-stm32mp-2.2.r1/../build/serialboot/bl2/enable_mmu.o
 .text.asm.enable_mmu_direct_hyp
                0x0000000000000000       0x74 /home/charles/linux/code/tfa/mp157_alientek/tf-a-stm32mp-2.2.r1-r0/tf-a-stm32mp-2.2.r1/../build/serialboot/bl2/enable_mmu.o
 .text          0x0000000000000000        0x0 /home/charles/linux/code/tfa/mp157_alientek/tf-a-stm32mp-2.2.r1-r0/tf-a-stm32mp-2.2.r1/../build/serialboot/bl2/cortex_a7.o
 .data          0x0000000000000000        0x0 /home/charles/linux/code/tfa/mp157_alientek/tf-a-stm32mp-2.2.r1-r0/tf-a-stm32mp-2.2.r1/../build/serialboot/bl2/cortex_a7.o
 .bss           0x0000000000000000        0x0 /home/charles/linux/code/tfa/mp157_alientek/tf-a-stm32mp-2.2.r1-r0/tf-a-stm32mp-2.2.r1/../build/serialboot/bl2/cortex_a7.o
 .text.asm.cortex_a7_disable_smp
                0x0000000000000000       0x18 /home/charles/linux/code/tfa/mp157_alientek/tf-a-stm32mp-2.2.r1-r0/tf-a-stm32mp-2.2.r1/../build/serialboot/bl2/cortex_a7.o
 .text.asm.cortex_a7_core_pwr_dwn
                0x0000000000000000       0x30 /home/charles/linux/code/tfa/mp157_alientek/tf-a-stm32mp-2.2.r1-r0/tf-a-stm32mp-2.2.r1/../build/serialboot/bl2/cortex_a7.o
 .rodata.str1.1
                0x0000000000000000       0x1d /home/charles/linux/code/tfa/mp157_alientek/tf-a-stm32mp-2.2.r1-r0/tf-a-stm32mp-2.2.r1/../build/serialboot/bl2/cortex_a7.o
 .text.asm.cortex_a7_cluster_pwr_dwn
                0x0000000000000000       0x34 /home/charles/linux/code/tfa/mp157_alientek/tf-a-stm32mp-2.2.r1-r0/tf-a-stm32mp-2.2.r1/../build/serialboot/bl2/cortex_a7.o
 .text          0x0000000000000000        0x0 /home/charles/linux/code/tfa/mp157_alientek/tf-a-stm32mp-2.2.r1-r0/tf-a-stm32mp-2.2.r1/../build/serialboot/bl2/stm32mp1_helper.o
 .data          0x0000000000000000        0x0 /home/charles/linux/code/tfa/mp157_alientek/tf-a-stm32mp-2.2.r1-r0/tf-a-stm32mp-2.2.r1/../build/serialboot/bl2/stm32mp1_helper.o
 .bss           0x0000000000000000        0x0 /home/charles/linux/code/tfa/mp157_alientek/tf-a-stm32mp-2.2.r1-r0/tf-a-stm32mp-2.2.r1/../build/serialboot/bl2/stm32mp1_helper.o
 .text.asm.plat_stm32mp1_get_core_pos
                0x0000000000000000       0x10 /home/charles/linux/code/tfa/mp157_alientek/tf-a-stm32mp-2.2.r1-r0/tf-a-stm32mp-2.2.r1/../build/serialboot/bl2/stm32mp1_helper.o
 .text.asm.plat_my_core_pos
                0x0000000000000000        0x8 /home/charles/linux/code/tfa/mp157_alientek/tf-a-stm32mp-2.2.r1-r0/tf-a-stm32mp-2.2.r1/../build/serialboot/bl2/stm32mp1_helper.o
 .text.asm.wfi_svc_int_enable
                0x0000000000000000       0x44 /home/charles/linux/code/tfa/mp157_alientek/tf-a-stm32mp-2.2.r1-r0/tf-a-stm32mp-2.2.r1/../build/serialboot/bl2/stm32mp1_helper.o
 .text          0x0000000000000000        0x0 /home/charles/linux/code/tfa/mp157_alientek/tf-a-stm32mp-2.2.r1-r0/tf-a-stm32mp-2.2.r1/../build/serialboot/lib/libfdt.a(fdt.o)
 .data          0x0000000000000000        0x0 /home/charles/linux/code/tfa/mp157_alientek/tf-a-stm32mp-2.2.r1-r0/tf-a-stm32mp-2.2.r1/../build/serialboot/lib/libfdt.a(fdt.o)
 .bss           0x0000000000000000        0x0 /home/charles/linux/code/tfa/mp157_alientek/tf-a-stm32mp-2.2.r1-r0/tf-a-stm32mp-2.2.r1/../build/serialboot/lib/libfdt.a(fdt.o)
 .text.fdt_find_string_
                0x0000000000000000       0x30 /home/charles/linux/code/tfa/mp157_alientek/tf-a-stm32mp-2.2.r1-r0/tf-a-stm32mp-2.2.r1/../build/serialboot/lib/libfdt.a(fdt.o)
 .text.fdt_move
                0x0000000000000000       0x2e /home/charles/linux/code/tfa/mp157_alientek/tf-a-stm32mp-2.2.r1-r0/tf-a-stm32mp-2.2.r1/../build/serialboot/lib/libfdt.a(fdt.o)
 .text          0x0000000000000000        0x0 /home/charles/linux/code/tfa/mp157_alientek/tf-a-stm32mp-2.2.r1-r0/tf-a-stm32mp-2.2.r1/../build/serialboot/lib/libfdt.a(fdt_addresses.o)
 .data          0x0000000000000000        0x0 /home/charles/linux/code/tfa/mp157_alientek/tf-a-stm32mp-2.2.r1-r0/tf-a-stm32mp-2.2.r1/../build/serialboot/lib/libfdt.a(fdt_addresses.o)
 .bss           0x0000000000000000        0x0 /home/charles/linux/code/tfa/mp157_alientek/tf-a-stm32mp-2.2.r1-r0/tf-a-stm32mp-2.2.r1/../build/serialboot/lib/libfdt.a(fdt_addresses.o)
 .text          0x0000000000000000        0x0 /home/charles/linux/code/tfa/mp157_alientek/tf-a-stm32mp-2.2.r1-r0/tf-a-stm32mp-2.2.r1/../build/serialboot/lib/libfdt.a(fdt_ro.o)
 .data          0x0000000000000000        0x0 /home/charles/linux/code/tfa/mp157_alientek/tf-a-stm32mp-2.2.r1-r0/tf-a-stm32mp-2.2.r1/../build/serialboot/lib/libfdt.a(fdt_ro.o)
 .bss           0x0000000000000000        0x0 /home/charles/linux/code/tfa/mp157_alientek/tf-a-stm32mp-2.2.r1-r0/tf-a-stm32mp-2.2.r1/../build/serialboot/lib/libfdt.a(fdt_ro.o)
 .text.fdt64_to_cpu
                0x0000000000000000        0x8 /home/charles/linux/code/tfa/mp157_alientek/tf-a-stm32mp-2.2.r1-r0/tf-a-stm32mp-2.2.r1/../build/serialboot/lib/libfdt.a(fdt_ro.o)
 .text.fdt_get_mem_rsv
                0x0000000000000000       0x3e /home/charles/linux/code/tfa/mp157_alientek/tf-a-stm32mp-2.2.r1-r0/tf-a-stm32mp-2.2.r1/../build/serialboot/lib/libfdt.a(fdt_ro.o)
 .text.fdt_num_mem_rsv
                0x0000000000000000       0x28 /home/charles/linux/code/tfa/mp157_alientek/tf-a-stm32mp-2.2.r1-r0/tf-a-stm32mp-2.2.r1/../build/serialboot/lib/libfdt.a(fdt_ro.o)
 .text.fdt_get_property_by_offset
                0x0000000000000000       0x24 /home/charles/linux/code/tfa/mp157_alientek/tf-a-stm32mp-2.2.r1-r0/tf-a-stm32mp-2.2.r1/../build/serialboot/lib/libfdt.a(fdt_ro.o)
 .text.fdt_get_property_namelen
                0x0000000000000000       0x30 /home/charles/linux/code/tfa/mp157_alientek/tf-a-stm32mp-2.2.r1-r0/tf-a-stm32mp-2.2.r1/../build/serialboot/lib/libfdt.a(fdt_ro.o)
 .text.fdt_get_property
                0x0000000000000000       0x22 /home/charles/linux/code/tfa/mp157_alientek/tf-a-stm32mp-2.2.r1-r0/tf-a-stm32mp-2.2.r1/../build/serialboot/lib/libfdt.a(fdt_ro.o)
 .text.fdt_getprop_by_offset
                0x0000000000000000       0x48 /home/charles/linux/code/tfa/mp157_alientek/tf-a-stm32mp-2.2.r1-r0/tf-a-stm32mp-2.2.r1/../build/serialboot/lib/libfdt.a(fdt_ro.o)
 .text.fdt_get_max_phandle
                0x0000000000000000       0x42 /home/charles/linux/code/tfa/mp157_alientek/tf-a-stm32mp-2.2.r1-r0/tf-a-stm32mp-2.2.r1/../build/serialboot/lib/libfdt.a(fdt_ro.o)
 .text.fdt_get_alias
                0x0000000000000000       0x1a /home/charles/linux/code/tfa/mp157_alientek/tf-a-stm32mp-2.2.r1-r0/tf-a-stm32mp-2.2.r1/../build/serialboot/lib/libfdt.a(fdt_ro.o)
 .text.fdt_get_path
                0x0000000000000000       0xc4 /home/charles/linux/code/tfa/mp157_alientek/tf-a-stm32mp-2.2.r1-r0/tf-a-stm32mp-2.2.r1/../build/serialboot/lib/libfdt.a(fdt_ro.o)
 .text.fdt_node_offset_by_prop_value
                0x0000000000000000       0x58 /home/charles/linux/code/tfa/mp157_alientek/tf-a-stm32mp-2.2.r1-r0/tf-a-stm32mp-2.2.r1/../build/serialboot/lib/libfdt.a(fdt_ro.o)
 .text.fdt_stringlist_count
                0x0000000000000000       0x38 /home/charles/linux/code/tfa/mp157_alientek/tf-a-stm32mp-2.2.r1-r0/tf-a-stm32mp-2.2.r1/../build/serialboot/lib/libfdt.a(fdt_ro.o)
 .text.fdt_stringlist_get
                0x0000000000000000       0x60 /home/charles/linux/code/tfa/mp157_alientek/tf-a-stm32mp-2.2.r1-r0/tf-a-stm32mp-2.2.r1/../build/serialboot/lib/libfdt.a(fdt_ro.o)
 .text          0x0000000000000000        0x0 /home/charles/linux/code/tfa/mp157_alientek/tf-a-stm32mp-2.2.r1-r0/tf-a-stm32mp-2.2.r1/../build/serialboot/lib/libc.a(assert.o)
 .data          0x0000000000000000        0x0 /home/charles/linux/code/tfa/mp157_alientek/tf-a-stm32mp-2.2.r1-r0/tf-a-stm32mp-2.2.r1/../build/serialboot/lib/libc.a(assert.o)
 .bss           0x0000000000000000        0x0 /home/charles/linux/code/tfa/mp157_alientek/tf-a-stm32mp-2.2.r1-r0/tf-a-stm32mp-2.2.r1/../build/serialboot/lib/libc.a(assert.o)
 .text          0x0000000000000000        0x0 /home/charles/linux/code/tfa/mp157_alientek/tf-a-stm32mp-2.2.r1-r0/tf-a-stm32mp-2.2.r1/../build/serialboot/lib/libc.a(memchr.o)
 .data          0x0000000000000000        0x0 /home/charles/linux/code/tfa/mp157_alientek/tf-a-stm32mp-2.2.r1-r0/tf-a-stm32mp-2.2.r1/../build/serialboot/lib/libc.a(memchr.o)
 .bss           0x0000000000000000        0x0 /home/charles/linux/code/tfa/mp157_alientek/tf-a-stm32mp-2.2.r1-r0/tf-a-stm32mp-2.2.r1/../build/serialboot/lib/libc.a(memchr.o)
 .text          0x0000000000000000        0x0 /home/charles/linux/code/tfa/mp157_alientek/tf-a-stm32mp-2.2.r1-r0/tf-a-stm32mp-2.2.r1/../build/serialboot/lib/libc.a(memcmp.o)
 .data          0x0000000000000000        0x0 /home/charles/linux/code/tfa/mp157_alientek/tf-a-stm32mp-2.2.r1-r0/tf-a-stm32mp-2.2.r1/../build/serialboot/lib/libc.a(memcmp.o)
 .bss           0x0000000000000000        0x0 /home/charles/linux/code/tfa/mp157_alientek/tf-a-stm32mp-2.2.r1-r0/tf-a-stm32mp-2.2.r1/../build/serialboot/lib/libc.a(memcmp.o)
 .text          0x0000000000000000        0x0 /home/charles/linux/code/tfa/mp157_alientek/tf-a-stm32mp-2.2.r1-r0/tf-a-stm32mp-2.2.r1/../build/serialboot/lib/libc.a(memcpy.o)
 .data          0x0000000000000000        0x0 /home/charles/linux/code/tfa/mp157_alientek/tf-a-stm32mp-2.2.r1-r0/tf-a-stm32mp-2.2.r1/../build/serialboot/lib/libc.a(memcpy.o)
 .bss           0x0000000000000000        0x0 /home/charles/linux/code/tfa/mp157_alientek/tf-a-stm32mp-2.2.r1-r0/tf-a-stm32mp-2.2.r1/../build/serialboot/lib/libc.a(memcpy.o)
 .text          0x0000000000000000        0x0 /home/charles/linux/code/tfa/mp157_alientek/tf-a-stm32mp-2.2.r1-r0/tf-a-stm32mp-2.2.r1/../build/serialboot/lib/libc.a(memmove.o)
 .data          0x0000000000000000        0x0 /home/charles/linux/code/tfa/mp157_alientek/tf-a-stm32mp-2.2.r1-r0/tf-a-stm32mp-2.2.r1/../build/serialboot/lib/libc.a(memmove.o)
 .bss           0x0000000000000000        0x0 /home/charles/linux/code/tfa/mp157_alientek/tf-a-stm32mp-2.2.r1-r0/tf-a-stm32mp-2.2.r1/../build/serialboot/lib/libc.a(memmove.o)
 .text          0x0000000000000000        0x0 /home/charles/linux/code/tfa/mp157_alientek/tf-a-stm32mp-2.2.r1-r0/tf-a-stm32mp-2.2.r1/../build/serialboot/lib/libc.a(memset.o)
 .data          0x0000000000000000        0x0 /home/charles/linux/code/tfa/mp157_alientek/tf-a-stm32mp-2.2.r1-r0/tf-a-stm32mp-2.2.r1/../build/serialboot/lib/libc.a(memset.o)
 .bss           0x0000000000000000        0x0 /home/charles/linux/code/tfa/mp157_alientek/tf-a-stm32mp-2.2.r1-r0/tf-a-stm32mp-2.2.r1/../build/serialboot/lib/libc.a(memset.o)
 .text          0x0000000000000000        0x0 /home/charles/linux/code/tfa/mp157_alientek/tf-a-stm32mp-2.2.r1-r0/tf-a-stm32mp-2.2.r1/../build/serialboot/lib/libc.a(printf.o)
 .data          0x0000000000000000        0x0 /home/charles/linux/code/tfa/mp157_alientek/tf-a-stm32mp-2.2.r1-r0/tf-a-stm32mp-2.2.r1/../build/serialboot/lib/libc.a(printf.o)
 .bss           0x0000000000000000        0x0 /home/charles/linux/code/tfa/mp157_alientek/tf-a-stm32mp-2.2.r1-r0/tf-a-stm32mp-2.2.r1/../build/serialboot/lib/libc.a(printf.o)
 .text          0x0000000000000000        0x0 /home/charles/linux/code/tfa/mp157_alientek/tf-a-stm32mp-2.2.r1-r0/tf-a-stm32mp-2.2.r1/../build/serialboot/lib/libc.a(putchar.o)
 .data          0x0000000000000000        0x0 /home/charles/linux/code/tfa/mp157_alientek/tf-a-stm32mp-2.2.r1-r0/tf-a-stm32mp-2.2.r1/../build/serialboot/lib/libc.a(putchar.o)
 .bss           0x0000000000000000        0x0 /home/charles/linux/code/tfa/mp157_alientek/tf-a-stm32mp-2.2.r1-r0/tf-a-stm32mp-2.2.r1/../build/serialboot/lib/libc.a(putchar.o)
 .text          0x0000000000000000        0x0 /home/charles/linux/code/tfa/mp157_alientek/tf-a-stm32mp-2.2.r1-r0/tf-a-stm32mp-2.2.r1/../build/serialboot/lib/libc.a(snprintf.o)
 .data          0x0000000000000000        0x0 /home/charles/linux/code/tfa/mp157_alientek/tf-a-stm32mp-2.2.r1-r0/tf-a-stm32mp-2.2.r1/../build/serialboot/lib/libc.a(snprintf.o)
 .bss           0x0000000000000000        0x0 /home/charles/linux/code/tfa/mp157_alientek/tf-a-stm32mp-2.2.r1-r0/tf-a-stm32mp-2.2.r1/../build/serialboot/lib/libc.a(snprintf.o)
 .text          0x0000000000000000        0x0 /home/charles/linux/code/tfa/mp157_alientek/tf-a-stm32mp-2.2.r1-r0/tf-a-stm32mp-2.2.r1/../build/serialboot/lib/libc.a(strchr.o)
 .data          0x0000000000000000        0x0 /home/charles/linux/code/tfa/mp157_alientek/tf-a-stm32mp-2.2.r1-r0/tf-a-stm32mp-2.2.r1/../build/serialboot/lib/libc.a(strchr.o)
 .bss           0x0000000000000000        0x0 /home/charles/linux/code/tfa/mp157_alientek/tf-a-stm32mp-2.2.r1-r0/tf-a-stm32mp-2.2.r1/../build/serialboot/lib/libc.a(strchr.o)
 .text          0x0000000000000000        0x0 /home/charles/linux/code/tfa/mp157_alientek/tf-a-stm32mp-2.2.r1-r0/tf-a-stm32mp-2.2.r1/../build/serialboot/lib/libc.a(strcmp.o)
 .data          0x0000000000000000        0x0 /home/charles/linux/code/tfa/mp157_alientek/tf-a-stm32mp-2.2.r1-r0/tf-a-stm32mp-2.2.r1/../build/serialboot/lib/libc.a(strcmp.o)
 .bss           0x0000000000000000        0x0 /home/charles/linux/code/tfa/mp157_alientek/tf-a-stm32mp-2.2.r1-r0/tf-a-stm32mp-2.2.r1/../build/serialboot/lib/libc.a(strcmp.o)
 .text          0x0000000000000000        0x0 /home/charles/linux/code/tfa/mp157_alientek/tf-a-stm32mp-2.2.r1-r0/tf-a-stm32mp-2.2.r1/../build/serialboot/lib/libc.a(strlen.o)
 .data          0x0000000000000000        0x0 /home/charles/linux/code/tfa/mp157_alientek/tf-a-stm32mp-2.2.r1-r0/tf-a-stm32mp-2.2.r1/../build/serialboot/lib/libc.a(strlen.o)
 .bss           0x0000000000000000        0x0 /home/charles/linux/code/tfa/mp157_alientek/tf-a-stm32mp-2.2.r1-r0/tf-a-stm32mp-2.2.r1/../build/serialboot/lib/libc.a(strlen.o)
 .text          0x0000000000000000        0x0 /home/charles/linux/code/tfa/mp157_alientek/tf-a-stm32mp-2.2.r1-r0/tf-a-stm32mp-2.2.r1/../build/serialboot/lib/libc.a(strncmp.o)
 .data          0x0000000000000000        0x0 /home/charles/linux/code/tfa/mp157_alientek/tf-a-stm32mp-2.2.r1-r0/tf-a-stm32mp-2.2.r1/../build/serialboot/lib/libc.a(strncmp.o)
 .bss           0x0000000000000000        0x0 /home/charles/linux/code/tfa/mp157_alientek/tf-a-stm32mp-2.2.r1-r0/tf-a-stm32mp-2.2.r1/../build/serialboot/lib/libc.a(strncmp.o)
 .text          0x0000000000000000        0x0 /home/charles/linux/code/tfa/mp157_alientek/tf-a-stm32mp-2.2.r1-r0/tf-a-stm32mp-2.2.r1/../build/serialboot/lib/libc.a(strnlen.o)
 .data          0x0000000000000000        0x0 /home/charles/linux/code/tfa/mp157_alientek/tf-a-stm32mp-2.2.r1-r0/tf-a-stm32mp-2.2.r1/../build/serialboot/lib/libc.a(strnlen.o)
 .bss           0x0000000000000000        0x0 /home/charles/linux/code/tfa/mp157_alientek/tf-a-stm32mp-2.2.r1-r0/tf-a-stm32mp-2.2.r1/../build/serialboot/lib/libc.a(strnlen.o)
 .text          0x0000000000000000        0x0 /home/charles/linux/code/tfa/mp157_alientek/tf-a-stm32mp-2.2.r1-r0/tf-a-stm32mp-2.2.r1/../build/serialboot/lib/libc.a(strrchr.o)
 .data          0x0000000000000000        0x0 /home/charles/linux/code/tfa/mp157_alientek/tf-a-stm32mp-2.2.r1-r0/tf-a-stm32mp-2.2.r1/../build/serialboot/lib/libc.a(strrchr.o)
 .bss           0x0000000000000000        0x0 /home/charles/linux/code/tfa/mp157_alientek/tf-a-stm32mp-2.2.r1-r0/tf-a-stm32mp-2.2.r1/../build/serialboot/lib/libc.a(strrchr.o)

Memory Configuration

Name             Origin             Length             Attributes
RAM              0x000000002ffd6000 0x0000000000017000 xrw
*default*        0x0000000000000000 0xffffffffffffffff

Linker script and memory map

                0x000000002ffd6000                . = 0x2ffd6000
                0x0000000000000001                ASSERT ((. == ALIGN (0x1000)), BL2_BASE address is not aligned on a page boundary.)

ro              0x000000002ffd6000    0x11000
                0x000000002ffd6000                __RO_START__ = .
                0x000000002ffd6000                __TEXT_RESIDENT_START__ = .
 *bl2_el3_entrypoint.o(.text*)
 .text.asm.bl2_entrypoint
                0x000000002ffd6000      0x158 /home/charles/linux/code/tfa/mp157_alientek/tf-a-stm32mp-2.2.r1-r0/tf-a-stm32mp-2.2.r1/../build/serialboot/bl2/bl2_el3_entrypoint.o
                0x000000002ffd6000                bl2_entrypoint
 .text.asm.bl2_run_next_image
                0x000000002ffd6158       0x40 /home/charles/linux/code/tfa/mp157_alientek/tf-a-stm32mp-2.2.r1-r0/tf-a-stm32mp-2.2.r1/../build/serialboot/bl2/bl2_el3_entrypoint.o
                0x000000002ffd6158                bl2_run_next_image
 *(.text.asm.*)
 .text.asm.spin_lock
                0x000000002ffd6198       0x24 /home/charles/linux/code/tfa/mp157_alientek/tf-a-stm32mp-2.2.r1-r0/tf-a-stm32mp-2.2.r1/../build/serialboot/bl2/spinlock.o
                0x000000002ffd6198                spin_lock
 .text.asm.spin_unlock
                0x000000002ffd61bc       0x18 /home/charles/linux/code/tfa/mp157_alientek/tf-a-stm32mp-2.2.r1-r0/tf-a-stm32mp-2.2.r1/../build/serialboot/bl2/spinlock.o
                0x000000002ffd61bc                spin_unlock
 .text.asm.plat_set_my_stack
                0x000000002ffd61d4       0x10 /home/charles/linux/code/tfa/mp157_alientek/tf-a-stm32mp-2.2.r1-r0/tf-a-stm32mp-2.2.r1/../build/serialboot/bl2/platform_up_stack.o
                0x000000002ffd61d4                plat_set_my_stack
 .text.asm.reset_handler
                0x000000002ffd61e4       0x38 /home/charles/linux/code/tfa/mp157_alientek/tf-a-stm32mp-2.2.r1-r0/tf-a-stm32mp-2.2.r1/../build/serialboot/bl2/cpu_helpers.o
                0x000000002ffd61e4                reset_handler
 .text.asm.get_cpu_ops_ptr
                0x000000002ffd621c       0x44 /home/charles/linux/code/tfa/mp157_alientek/tf-a-stm32mp-2.2.r1-r0/tf-a-stm32mp-2.2.r1/../build/serialboot/bl2/cpu_helpers.o
                0x000000002ffd621c                get_cpu_ops_ptr
 .text.asm.do_panic
                0x000000002ffd6260       0x3c /home/charles/linux/code/tfa/mp157_alientek/tf-a-stm32mp-2.2.r1-r0/tf-a-stm32mp-2.2.r1/../build/serialboot/bl2/debug.o
                0x000000002ffd6260                do_panic
 .text.asm.report_exception
                0x000000002ffd629c       0x14 /home/charles/linux/code/tfa/mp157_alientek/tf-a-stm32mp-2.2.r1-r0/tf-a-stm32mp-2.2.r1/../build/serialboot/bl2/debug.o
                0x000000002ffd629c                report_exception
 .text.asm.report_undef_inst
                0x000000002ffd62b0       0x10 /home/charles/linux/code/tfa/mp157_alientek/tf-a-stm32mp-2.2.r1-r0/tf-a-stm32mp-2.2.r1/../build/serialboot/bl2/debug.o
                0x000000002ffd62b0                report_undef_inst
 .text.asm.report_prefetch_abort
                0x000000002ffd62c0       0x10 /home/charles/linux/code/tfa/mp157_alientek/tf-a-stm32mp-2.2.r1-r0/tf-a-stm32mp-2.2.r1/../build/serialboot/bl2/debug.o
                0x000000002ffd62c0                report_prefetch_abort
 .text.asm.report_data_abort
                0x000000002ffd62d0       0x10 /home/charles/linux/code/tfa/mp157_alientek/tf-a-stm32mp-2.2.r1-r0/tf-a-stm32mp-2.2.r1/../build/serialboot/bl2/debug.o
                0x000000002ffd62d0                report_data_abort
 .text.asm.asm_assert
                0x000000002ffd62e0       0x7c /home/charles/linux/code/tfa/mp157_alientek/tf-a-stm32mp-2.2.r1-r0/tf-a-stm32mp-2.2.r1/../build/serialboot/bl2/debug.o
                0x000000002ffd62e0                asm_assert
 .text.asm.asm_print_str
                0x000000002ffd635c       0x1c /home/charles/linux/code/tfa/mp157_alientek/tf-a-stm32mp-2.2.r1-r0/tf-a-stm32mp-2.2.r1/../build/serialboot/bl2/debug.o
                0x000000002ffd635c                asm_print_str
 .text.asm.asm_print_hex
                0x000000002ffd6378       0x34 /home/charles/linux/code/tfa/mp157_alientek/tf-a-stm32mp-2.2.r1-r0/tf-a-stm32mp-2.2.r1/../build/serialboot/bl2/debug.o
                0x000000002ffd6378                asm_print_hex
 .text.asm.flush_dcache_range
                0x000000002ffd63ac       0x3c /home/charles/linux/code/tfa/mp157_alientek/tf-a-stm32mp-2.2.r1-r0/tf-a-stm32mp-2.2.r1/../build/serialboot/bl2/cache_helpers.o
                0x000000002ffd63ac                flush_dcache_range
 .text.asm.clean_dcache_range
                0x000000002ffd63e8       0x3c /home/charles/linux/code/tfa/mp157_alientek/tf-a-stm32mp-2.2.r1-r0/tf-a-stm32mp-2.2.r1/../build/serialboot/bl2/cache_helpers.o
                0x000000002ffd63e8                clean_dcache_range
 .text.asm.inv_dcache_range
                0x000000002ffd6424       0x3c /home/charles/linux/code/tfa/mp157_alientek/tf-a-stm32mp-2.2.r1-r0/tf-a-stm32mp-2.2.r1/../build/serialboot/bl2/cache_helpers.o
                0x000000002ffd6424                inv_dcache_range
 .text.asm.zeromem
                0x000000002ffd6460       0x64 /home/charles/linux/code/tfa/mp157_alientek/tf-a-stm32mp-2.2.r1-r0/tf-a-stm32mp-2.2.r1/../build/serialboot/bl2/misc_helpers.o
                0x000000002ffd6460                zeromem
                0x000000002ffd6460                zero_normalmem
 .text.asm.disable_mmu_secure
                0x000000002ffd64c4       0x1c /home/charles/linux/code/tfa/mp157_alientek/tf-a-stm32mp-2.2.r1-r0/tf-a-stm32mp-2.2.r1/../build/serialboot/bl2/misc_helpers.o
                0x000000002ffd64c4                disable_mmu_secure
 .text.asm.disable_mmu_icache_secure
                0x000000002ffd64e0        0xc /home/charles/linux/code/tfa/mp157_alientek/tf-a-stm32mp-2.2.r1-r0/tf-a-stm32mp-2.2.r1/../build/serialboot/bl2/misc_helpers.o
                0x000000002ffd64e0                disable_mmu_icache_secure
 .text.asm.console_stm32_core_init
                0x000000002ffd64ec       0x7c /home/charles/linux/code/tfa/mp157_alientek/tf-a-stm32mp-2.2.r1-r0/tf-a-stm32mp-2.2.r1/../build/serialboot/bl2/stm32_console.o
                0x000000002ffd64ec                console_stm32_core_init
 .text.asm.console_stm32_register
                0x000000002ffd6568       0x58 /home/charles/linux/code/tfa/mp157_alientek/tf-a-stm32mp-2.2.r1-r0/tf-a-stm32mp-2.2.r1/../build/serialboot/bl2/stm32_console.o
                0x000000002ffd6568                console_stm32_register
 .text.asm.console_stm32_core_putc
                0x000000002ffd65c0       0x48 /home/charles/linux/code/tfa/mp157_alientek/tf-a-stm32mp-2.2.r1-r0/tf-a-stm32mp-2.2.r1/../build/serialboot/bl2/stm32_console.o
                0x000000002ffd65c0                console_stm32_core_putc
 .text.asm.console_stm32_putc
                0x000000002ffd6608       0x20 /home/charles/linux/code/tfa/mp157_alientek/tf-a-stm32mp-2.2.r1-r0/tf-a-stm32mp-2.2.r1/../build/serialboot/bl2/stm32_console.o
                0x000000002ffd6608                console_stm32_putc
 .text.asm.console_stm32_core_flush
                0x000000002ffd6628       0x30 /home/charles/linux/code/tfa/mp157_alientek/tf-a-stm32mp-2.2.r1-r0/tf-a-stm32mp-2.2.r1/../build/serialboot/bl2/stm32_console.o
                0x000000002ffd6628                console_stm32_core_flush
 .text.asm.console_stm32_flush
                0x000000002ffd6658       0x20 /home/charles/linux/code/tfa/mp157_alientek/tf-a-stm32mp-2.2.r1-r0/tf-a-stm32mp-2.2.r1/../build/serialboot/bl2/stm32_console.o
                0x000000002ffd6658                console_stm32_flush
 .text.asm.enable_mmu_direct_svc_mon
                0x000000002ffd6678       0x80 /home/charles/linux/code/tfa/mp157_alientek/tf-a-stm32mp-2.2.r1-r0/tf-a-stm32mp-2.2.r1/../build/serialboot/bl2/enable_mmu.o
                0x000000002ffd6678                enable_mmu_direct_svc_mon
 .text.asm.cortex_a7_enable_smp
                0x000000002ffd66f8       0x14 /home/charles/linux/code/tfa/mp157_alientek/tf-a-stm32mp-2.2.r1-r0/tf-a-stm32mp-2.2.r1/../build/serialboot/bl2/cortex_a7.o
 .text.asm.cortex_a7_reset_func
                0x000000002ffd670c        0x4 /home/charles/linux/code/tfa/mp157_alientek/tf-a-stm32mp-2.2.r1-r0/tf-a-stm32mp-2.2.r1/../build/serialboot/bl2/cortex_a7.o
 .text.asm.platform_mem_init
                0x000000002ffd6710        0x4 /home/charles/linux/code/tfa/mp157_alientek/tf-a-stm32mp-2.2.r1-r0/tf-a-stm32mp-2.2.r1/../build/serialboot/bl2/stm32mp1_helper.o
                0x000000002ffd6710                platform_mem_init
 .text.asm.plat_report_exception
                0x000000002ffd6714       0x74 /home/charles/linux/code/tfa/mp157_alientek/tf-a-stm32mp-2.2.r1-r0/tf-a-stm32mp-2.2.r1/../build/serialboot/bl2/stm32mp1_helper.o
                0x000000002ffd6714                plat_report_exception
 .text.asm.plat_report_undef_inst
                0x000000002ffd6788       0x30 /home/charles/linux/code/tfa/mp157_alientek/tf-a-stm32mp-2.2.r1-r0/tf-a-stm32mp-2.2.r1/../build/serialboot/bl2/stm32mp1_helper.o
                0x000000002ffd6788                plat_report_undef_inst
 .text.asm.plat_report_prefetch_abort
                0x000000002ffd67b8       0x58 /home/charles/linux/code/tfa/mp157_alientek/tf-a-stm32mp-2.2.r1-r0/tf-a-stm32mp-2.2.r1/../build/serialboot/bl2/stm32mp1_helper.o
                0x000000002ffd67b8                plat_report_prefetch_abort
 .text.asm.plat_report_data_abort
                0x000000002ffd6810       0x58 /home/charles/linux/code/tfa/mp157_alientek/tf-a-stm32mp-2.2.r1-r0/tf-a-stm32mp-2.2.r1/../build/serialboot/bl2/stm32mp1_helper.o
                0x000000002ffd6810                plat_report_data_abort
 .text.asm.plat_reset_handler
                0x000000002ffd6868        0x4 /home/charles/linux/code/tfa/mp157_alientek/tf-a-stm32mp-2.2.r1-r0/tf-a-stm32mp-2.2.r1/../build/serialboot/bl2/stm32mp1_helper.o
                0x000000002ffd6868                plat_reset_handler
 .text.asm.plat_get_my_entrypoint
                0x000000002ffd686c        0x8 /home/charles/linux/code/tfa/mp157_alientek/tf-a-stm32mp-2.2.r1-r0/tf-a-stm32mp-2.2.r1/../build/serialboot/bl2/stm32mp1_helper.o
                0x000000002ffd686c                plat_get_my_entrypoint
 .text.asm.plat_secondary_cold_boot_setup
                0x000000002ffd6874        0x4 /home/charles/linux/code/tfa/mp157_alientek/tf-a-stm32mp-2.2.r1-r0/tf-a-stm32mp-2.2.r1/../build/serialboot/bl2/stm32mp1_helper.o
                0x000000002ffd6874                plat_secondary_cold_boot_setup
 .text.asm.plat_is_my_cpu_primary
                0x000000002ffd6878       0x20 /home/charles/linux/code/tfa/mp157_alientek/tf-a-stm32mp-2.2.r1-r0/tf-a-stm32mp-2.2.r1/../build/serialboot/bl2/stm32mp1_helper.o
                0x000000002ffd6878                plat_is_my_cpu_primary
 .text.asm.plat_crash_console_init
                0x000000002ffd6898       0xac /home/charles/linux/code/tfa/mp157_alientek/tf-a-stm32mp-2.2.r1-r0/tf-a-stm32mp-2.2.r1/../build/serialboot/bl2/stm32mp1_helper.o
                0x000000002ffd6898                plat_crash_console_init
 .text.asm.plat_crash_console_flush
                0x000000002ffd6944        0xc /home/charles/linux/code/tfa/mp157_alientek/tf-a-stm32mp-2.2.r1-r0/tf-a-stm32mp-2.2.r1/../build/serialboot/bl2/stm32mp1_helper.o
                0x000000002ffd6944                plat_crash_console_flush
 .text.asm.plat_crash_console_putc
                0x000000002ffd6950        0xc /home/charles/linux/code/tfa/mp157_alientek/tf-a-stm32mp-2.2.r1-r0/tf-a-stm32mp-2.2.r1/../build/serialboot/bl2/stm32mp1_helper.o
                0x000000002ffd6950                plat_crash_console_putc
 .text.asm.plat_panic_handler
                0x000000002ffd695c       0x14 /home/charles/linux/code/tfa/mp157_alientek/tf-a-stm32mp-2.2.r1-r0/tf-a-stm32mp-2.2.r1/../build/serialboot/bl2/stm32mp1_helper.o
                0x000000002ffd695c                plat_panic_handler
                0x000000002ffd6970                __TEXT_RESIDENT_END__ = .
 *(.text*)
 .text.device_type_block
                0x000000002ffd6970        0x4 /home/charles/linux/code/tfa/mp157_alientek/tf-a-stm32mp-2.2.r1-r0/tf-a-stm32mp-2.2.r1/../build/serialboot/bl2/io_block.o
                0x000000002ffd6970                device_type_block
 .text.block_close
                0x000000002ffd6974        0x8 /home/charles/linux/code/tfa/mp157_alientek/tf-a-stm32mp-2.2.r1-r0/tf-a-stm32mp-2.2.r1/../build/serialboot/bl2/io_block.o
 .text.block_write
                0x000000002ffd697c      0x120 /home/charles/linux/code/tfa/mp157_alientek/tf-a-stm32mp-2.2.r1-r0/tf-a-stm32mp-2.2.r1/../build/serialboot/bl2/io_block.o
 .text.block_read
                0x000000002ffd6a9c       0xf4 /home/charles/linux/code/tfa/mp157_alientek/tf-a-stm32mp-2.2.r1-r0/tf-a-stm32mp-2.2.r1/../build/serialboot/bl2/io_block.o
 .text.block_dev_open
                0x000000002ffd6b90       0x78 /home/charles/linux/code/tfa/mp157_alientek/tf-a-stm32mp-2.2.r1-r0/tf-a-stm32mp-2.2.r1/../build/serialboot/bl2/io_block.o
 .text.block_seek
                0x000000002ffd6c08       0x60 /home/charles/linux/code/tfa/mp157_alientek/tf-a-stm32mp-2.2.r1-r0/tf-a-stm32mp-2.2.r1/../build/serialboot/bl2/io_block.o
 .text.block_open
                0x000000002ffd6c68       0x4c /home/charles/linux/code/tfa/mp157_alientek/tf-a-stm32mp-2.2.r1-r0/tf-a-stm32mp-2.2.r1/../build/serialboot/bl2/io_block.o
 .text.block_dev_close
                0x000000002ffd6cb4       0x48 /home/charles/linux/code/tfa/mp157_alientek/tf-a-stm32mp-2.2.r1-r0/tf-a-stm32mp-2.2.r1/../build/serialboot/bl2/io_block.o
 .text.register_io_dev_block
                0x000000002ffd6cfc       0x2c /home/charles/linux/code/tfa/mp157_alientek/tf-a-stm32mp-2.2.r1-r0/tf-a-stm32mp-2.2.r1/../build/serialboot/bl2/io_block.o
                0x000000002ffd6cfc                register_io_dev_block
 .text.device_type_dummy
                0x000000002ffd6d28        0x4 /home/charles/linux/code/tfa/mp157_alientek/tf-a-stm32mp-2.2.r1-r0/tf-a-stm32mp-2.2.r1/../build/serialboot/bl2/io_dummy.o
 .text.dummy_dev_close
                0x000000002ffd6d2c        0x4 /home/charles/linux/code/tfa/mp157_alientek/tf-a-stm32mp-2.2.r1-r0/tf-a-stm32mp-2.2.r1/../build/serialboot/bl2/io_dummy.o
 .text.dummy_dev_open
                0x000000002ffd6d30       0x1c /home/charles/linux/code/tfa/mp157_alientek/tf-a-stm32mp-2.2.r1-r0/tf-a-stm32mp-2.2.r1/../build/serialboot/bl2/io_dummy.o
 .text.dummy_block_close
                0x000000002ffd6d4c       0x20 /home/charles/linux/code/tfa/mp157_alientek/tf-a-stm32mp-2.2.r1-r0/tf-a-stm32mp-2.2.r1/../build/serialboot/bl2/io_dummy.o
 .text.dummy_block_read
                0x000000002ffd6d6c       0x18 /home/charles/linux/code/tfa/mp157_alientek/tf-a-stm32mp-2.2.r1-r0/tf-a-stm32mp-2.2.r1/../build/serialboot/bl2/io_dummy.o
 .text.dummy_block_len
                0x000000002ffd6d84       0x20 /home/charles/linux/code/tfa/mp157_alientek/tf-a-stm32mp-2.2.r1-r0/tf-a-stm32mp-2.2.r1/../build/serialboot/bl2/io_dummy.o
 .text.dummy_block_open
                0x000000002ffd6da4       0x3c /home/charles/linux/code/tfa/mp157_alientek/tf-a-stm32mp-2.2.r1-r0/tf-a-stm32mp-2.2.r1/../build/serialboot/bl2/io_dummy.o
 .text.register_io_dev_dummy
                0x000000002ffd6de0       0x28 /home/charles/linux/code/tfa/mp157_alientek/tf-a-stm32mp-2.2.r1-r0/tf-a-stm32mp-2.2.r1/../build/serialboot/bl2/io_dummy.o
                0x000000002ffd6de0                register_io_dev_dummy
 .text.device_type_mtd
                0x000000002ffd6e08        0x4 /home/charles/linux/code/tfa/mp157_alientek/tf-a-stm32mp-2.2.r1-r0/tf-a-stm32mp-2.2.r1/../build/serialboot/bl2/io_mtd.o
                0x000000002ffd6e08                device_type_mtd
 .text.mtd_close
                0x000000002ffd6e0c        0x8 /home/charles/linux/code/tfa/mp157_alientek/tf-a-stm32mp-2.2.r1-r0/tf-a-stm32mp-2.2.r1/../build/serialboot/bl2/io_mtd.o
 .text.mtd_read
                0x000000002ffd6e14       0x84 /home/charles/linux/code/tfa/mp157_alientek/tf-a-stm32mp-2.2.r1-r0/tf-a-stm32mp-2.2.r1/../build/serialboot/bl2/io_mtd.o
 .text.mtd_seek
                0x000000002ffd6e98       0x74 /home/charles/linux/code/tfa/mp157_alientek/tf-a-stm32mp-2.2.r1-r0/tf-a-stm32mp-2.2.r1/../build/serialboot/bl2/io_mtd.o
 .text.mtd_open
                0x000000002ffd6f0c       0x24 /home/charles/linux/code/tfa/mp157_alientek/tf-a-stm32mp-2.2.r1-r0/tf-a-stm32mp-2.2.r1/../build/serialboot/bl2/io_mtd.o
 .text.mtd_dev_close
                0x000000002ffd6f30       0x2c /home/charles/linux/code/tfa/mp157_alientek/tf-a-stm32mp-2.2.r1-r0/tf-a-stm32mp-2.2.r1/../build/serialboot/bl2/io_mtd.o
 .text.mtd_dev_open
                0x000000002ffd6f5c       0x50 /home/charles/linux/code/tfa/mp157_alientek/tf-a-stm32mp-2.2.r1-r0/tf-a-stm32mp-2.2.r1/../build/serialboot/bl2/io_mtd.o
 .text.register_io_dev_mtd
                0x000000002ffd6fac       0x1c /home/charles/linux/code/tfa/mp157_alientek/tf-a-stm32mp-2.2.r1-r0/tf-a-stm32mp-2.2.r1/../build/serialboot/bl2/io_mtd.o
                0x000000002ffd6fac                register_io_dev_mtd
 .text.is_valid_dev
                0x000000002ffd6fc8       0x18 /home/charles/linux/code/tfa/mp157_alientek/tf-a-stm32mp-2.2.r1-r0/tf-a-stm32mp-2.2.r1/../build/serialboot/bl2/io_storage.o
 .text.is_valid_entity
                0x000000002ffd6fe0       0x12 /home/charles/linux/code/tfa/mp157_alientek/tf-a-stm32mp-2.2.r1-r0/tf-a-stm32mp-2.2.r1/../build/serialboot/bl2/io_storage.o
 *fill*         0x000000002ffd6ff2        0x2 
 .text.free_entity
                0x000000002ffd6ff4       0x44 /home/charles/linux/code/tfa/mp157_alientek/tf-a-stm32mp-2.2.r1-r0/tf-a-stm32mp-2.2.r1/../build/serialboot/bl2/io_storage.o
 .text.io_register_device
                0x000000002ffd7038       0x28 /home/charles/linux/code/tfa/mp157_alientek/tf-a-stm32mp-2.2.r1-r0/tf-a-stm32mp-2.2.r1/../build/serialboot/bl2/io_storage.o
                0x000000002ffd7038                io_register_device
 .text.io_dev_open
                0x000000002ffd7060       0x28 /home/charles/linux/code/tfa/mp157_alientek/tf-a-stm32mp-2.2.r1-r0/tf-a-stm32mp-2.2.r1/../build/serialboot/bl2/io_storage.o
                0x000000002ffd7060                io_dev_open
 .text.io_dev_init
                0x000000002ffd7088       0x34 /home/charles/linux/code/tfa/mp157_alientek/tf-a-stm32mp-2.2.r1-r0/tf-a-stm32mp-2.2.r1/../build/serialboot/bl2/io_storage.o
                0x000000002ffd7088                io_dev_init
 .text.io_dev_close
                0x000000002ffd70bc       0x30 /home/charles/linux/code/tfa/mp157_alientek/tf-a-stm32mp-2.2.r1-r0/tf-a-stm32mp-2.2.r1/../build/serialboot/bl2/io_storage.o
                0x000000002ffd70bc                io_dev_close
 .text.io_open  0x000000002ffd70ec       0x98 /home/charles/linux/code/tfa/mp157_alientek/tf-a-stm32mp-2.2.r1-r0/tf-a-stm32mp-2.2.r1/../build/serialboot/bl2/io_storage.o
                0x000000002ffd70ec                io_open
 .text.io_seek  0x000000002ffd7184       0x4c /home/charles/linux/code/tfa/mp157_alientek/tf-a-stm32mp-2.2.r1-r0/tf-a-stm32mp-2.2.r1/../build/serialboot/bl2/io_storage.o
                0x000000002ffd7184                io_seek
 .text.io_size  0x000000002ffd71d0       0x34 /home/charles/linux/code/tfa/mp157_alientek/tf-a-stm32mp-2.2.r1-r0/tf-a-stm32mp-2.2.r1/../build/serialboot/bl2/io_storage.o
                0x000000002ffd71d0                io_size
 .text.io_read  0x000000002ffd7204       0x48 /home/charles/linux/code/tfa/mp157_alientek/tf-a-stm32mp-2.2.r1-r0/tf-a-stm32mp-2.2.r1/../build/serialboot/bl2/io_storage.o
                0x000000002ffd7204                io_read
 .text.io_close
                0x000000002ffd724c       0x30 /home/charles/linux/code/tfa/mp157_alientek/tf-a-stm32mp-2.2.r1-r0/tf-a-stm32mp-2.2.r1/../build/serialboot/bl2/io_storage.o
                0x000000002ffd724c                io_close
 .text.hash_write_data
                0x000000002ffd727c       0x68 /home/charles/linux/code/tfa/mp157_alientek/tf-a-stm32mp-2.2.r1-r0/tf-a-stm32mp-2.2.r1/../build/serialboot/bl2/stm32_hash.o
 .text.stm32_hash_update
                0x000000002ffd72e4       0xb0 /home/charles/linux/code/tfa/mp157_alientek/tf-a-stm32mp-2.2.r1-r0/tf-a-stm32mp-2.2.r1/../build/serialboot/bl2/stm32_hash.o
                0x000000002ffd72e4                stm32_hash_update
 .text.stm32_hash_final
                0x000000002ffd7394      0x100 /home/charles/linux/code/tfa/mp157_alientek/tf-a-stm32mp-2.2.r1-r0/tf-a-stm32mp-2.2.r1/../build/serialboot/bl2/stm32_hash.o
                0x000000002ffd7394                stm32_hash_final
 .text.stm32_hash_final_update
                0x000000002ffd7494       0x16 /home/charles/linux/code/tfa/mp157_alientek/tf-a-stm32mp-2.2.r1-r0/tf-a-stm32mp-2.2.r1/../build/serialboot/bl2/stm32_hash.o
                0x000000002ffd7494                stm32_hash_final_update
 *fill*         0x000000002ffd74aa        0x2 
 .text.stm32_hash_init
                0x000000002ffd74ac       0x5c /home/charles/linux/code/tfa/mp157_alientek/tf-a-stm32mp-2.2.r1-r0/tf-a-stm32mp-2.2.r1/../build/serialboot/bl2/stm32_hash.o
                0x000000002ffd74ac                stm32_hash_init
 .text.stm32_hash_register
                0x000000002ffd7508       0x88 /home/charles/linux/code/tfa/mp157_alientek/tf-a-stm32mp-2.2.r1-r0/tf-a-stm32mp-2.2.r1/../build/serialboot/bl2/stm32_hash.o
                0x000000002ffd7508                stm32_hash_register
 .text.device_type_stm32image
                0x000000002ffd7590        0x4 /home/charles/linux/code/tfa/mp157_alientek/tf-a-stm32mp-2.2.r1-r0/tf-a-stm32mp-2.2.r1/../build/serialboot/bl2/io_stm32image.o
 .text.stm32image_dev_close
                0x000000002ffd7594       0x1c /home/charles/linux/code/tfa/mp157_alientek/tf-a-stm32mp-2.2.r1-r0/tf-a-stm32mp-2.2.r1/../build/serialboot/bl2/io_stm32image.o
 .text.stm32image_partition_close
                0x000000002ffd75b0        0xc /home/charles/linux/code/tfa/mp157_alientek/tf-a-stm32mp-2.2.r1-r0/tf-a-stm32mp-2.2.r1/../build/serialboot/bl2/io_stm32image.o
 .text.stm32image_dev_init
                0x000000002ffd75bc       0x44 /home/charles/linux/code/tfa/mp157_alientek/tf-a-stm32mp-2.2.r1-r0/tf-a-stm32mp-2.2.r1/../build/serialboot/bl2/io_stm32image.o
 .text.stm32image_partition_read
                0x000000002ffd7600       0xfc /home/charles/linux/code/tfa/mp157_alientek/tf-a-stm32mp-2.2.r1-r0/tf-a-stm32mp-2.2.r1/../build/serialboot/bl2/io_stm32image.o
 .text.stm32image_partition_size
                0x000000002ffd76fc       0xec /home/charles/linux/code/tfa/mp157_alientek/tf-a-stm32mp-2.2.r1-r0/tf-a-stm32mp-2.2.r1/../build/serialboot/bl2/io_stm32image.o
 .text.stm32image_dev_open
                0x000000002ffd77e8       0x48 /home/charles/linux/code/tfa/mp157_alientek/tf-a-stm32mp-2.2.r1-r0/tf-a-stm32mp-2.2.r1/../build/serialboot/bl2/io_stm32image.o
 .text.stm32image_partition_open
                0x000000002ffd7830       0x50 /home/charles/linux/code/tfa/mp157_alientek/tf-a-stm32mp-2.2.r1-r0/tf-a-stm32mp-2.2.r1/../build/serialboot/bl2/io_stm32image.o
 .text.register_io_dev_stm32image
                0x000000002ffd7880       0x2c /home/charles/linux/code/tfa/mp157_alientek/tf-a-stm32mp-2.2.r1-r0/tf-a-stm32mp-2.2.r1/../build/serialboot/bl2/io_stm32image.o
                0x000000002ffd7880                register_io_dev_stm32image
 .text.boot_mmc
                0x000000002ffd78ac      0x140 /home/charles/linux/code/tfa/mp157_alientek/tf-a-stm32mp-2.2.r1-r0/tf-a-stm32mp-2.2.r1/../build/serialboot/bl2/bl2_io_storage.o
 .text.open_storage
                0x000000002ffd79ec       0x10 /home/charles/linux/code/tfa/mp157_alientek/tf-a-stm32mp-2.2.r1-r0/tf-a-stm32mp-2.2.r1/../build/serialboot/bl2/bl2_io_storage.o
 .text.open_image
                0x000000002ffd79fc       0x10 /home/charles/linux/code/tfa/mp157_alientek/tf-a-stm32mp-2.2.r1-r0/tf-a-stm32mp-2.2.r1/../build/serialboot/bl2/bl2_io_storage.o
 .text.open_dummy
                0x000000002ffd7a0c       0x10 /home/charles/linux/code/tfa/mp157_alientek/tf-a-stm32mp-2.2.r1-r0/tf-a-stm32mp-2.2.r1/../build/serialboot/bl2/bl2_io_storage.o
 .text.stm32mp_io_setup
                0x000000002ffd7a1c      0x290 /home/charles/linux/code/tfa/mp157_alientek/tf-a-stm32mp-2.2.r1-r0/tf-a-stm32mp-2.2.r1/../build/serialboot/bl2/bl2_io_storage.o
                0x000000002ffd7a1c                stm32mp_io_setup
 .text.plat_get_image_source
                0x000000002ffd7cac       0x40 /home/charles/linux/code/tfa/mp157_alientek/tf-a-stm32mp-2.2.r1-r0/tf-a-stm32mp-2.2.r1/../build/serialboot/bl2/bl2_io_storage.o
                0x000000002ffd7cac                plat_get_image_source
 .text.plat_try_next_boot_source
                0x000000002ffd7cec       0x84 /home/charles/linux/code/tfa/mp157_alientek/tf-a-stm32mp-2.2.r1-r0/tf-a-stm32mp-2.2.r1/../build/serialboot/bl2/bl2_io_storage.o
                0x000000002ffd7cec                plat_try_next_boot_source
 .text.get_boot_device
                0x000000002ffd7d70        0x4 /home/charles/linux/code/tfa/mp157_alientek/tf-a-stm32mp-2.2.r1-r0/tf-a-stm32mp-2.2.r1/../build/serialboot/bl2/bl2_plat_setup.o
                0x000000002ffd7d70                get_boot_device
 .text.bl2_el3_early_platform_setup
                0x000000002ffd7d74        0x4 /home/charles/linux/code/tfa/mp157_alientek/tf-a-stm32mp-2.2.r1-r0/tf-a-stm32mp-2.2.r1/../build/serialboot/bl2/bl2_plat_setup.o
                0x000000002ffd7d74                bl2_el3_early_platform_setup
 .text.bl2_platform_setup
                0x000000002ffd7d78       0x9c /home/charles/linux/code/tfa/mp157_alientek/tf-a-stm32mp-2.2.r1-r0/tf-a-stm32mp-2.2.r1/../build/serialboot/bl2/bl2_plat_setup.o
                0x000000002ffd7d78                bl2_platform_setup
 .text.bl2_el3_plat_arch_setup
                0x000000002ffd7e14      0x434 /home/charles/linux/code/tfa/mp157_alientek/tf-a-stm32mp-2.2.r1-r0/tf-a-stm32mp-2.2.r1/../build/serialboot/bl2/bl2_plat_setup.o
                0x000000002ffd7e14                bl2_el3_plat_arch_setup
 .text.bl2_plat_handle_post_image_load
                0x000000002ffd8248       0x30 /home/charles/linux/code/tfa/mp157_alientek/tf-a-stm32mp-2.2.r1-r0/tf-a-stm32mp-2.2.r1/../build/serialboot/bl2/bl2_plat_setup.o
                0x000000002ffd8248                bl2_plat_handle_post_image_load
 .text.auth_get_param.isra.0
                0x000000002ffd8278       0x3e /home/charles/linux/code/tfa/mp157_alientek/tf-a-stm32mp-2.2.r1-r0/tf-a-stm32mp-2.2.r1/../build/serialboot/bl2/auth_mod.o
 .text.plat_set_nv_ctr2
                0x000000002ffd82b6        0x6 /home/charles/linux/code/tfa/mp157_alientek/tf-a-stm32mp-2.2.r1-r0/tf-a-stm32mp-2.2.r1/../build/serialboot/bl2/auth_mod.o
                0x000000002ffd82b6                plat_set_nv_ctr2
 .text.auth_mod_get_parent_id
                0x000000002ffd82bc       0x40 /home/charles/linux/code/tfa/mp157_alientek/tf-a-stm32mp-2.2.r1-r0/tf-a-stm32mp-2.2.r1/../build/serialboot/bl2/auth_mod.o
                0x000000002ffd82bc                auth_mod_get_parent_id
 .text.auth_mod_init
                0x000000002ffd82fc       0x28 /home/charles/linux/code/tfa/mp157_alientek/tf-a-stm32mp-2.2.r1-r0/tf-a-stm32mp-2.2.r1/../build/serialboot/bl2/auth_mod.o
                0x000000002ffd82fc                auth_mod_init
 .text.auth_mod_verify_img
                0x000000002ffd8324      0x284 /home/charles/linux/code/tfa/mp157_alientek/tf-a-stm32mp-2.2.r1-r0/tf-a-stm32mp-2.2.r1/../build/serialboot/bl2/auth_mod.o
                0x000000002ffd8324                auth_mod_verify_img
 .text.crypto_mod_init
                0x000000002ffd85a8       0x44 /home/charles/linux/code/tfa/mp157_alientek/tf-a-stm32mp-2.2.r1-r0/tf-a-stm32mp-2.2.r1/../build/serialboot/bl2/crypto_mod.o
                0x000000002ffd85a8                crypto_mod_init
 .text.crypto_mod_verify_signature
                0x000000002ffd85ec       0x6c /home/charles/linux/code/tfa/mp157_alientek/tf-a-stm32mp-2.2.r1-r0/tf-a-stm32mp-2.2.r1/../build/serialboot/bl2/crypto_mod.o
                0x000000002ffd85ec                crypto_mod_verify_signature
 .text.crypto_mod_verify_hash
                0x000000002ffd8658       0x38 /home/charles/linux/code/tfa/mp157_alientek/tf-a-stm32mp-2.2.r1-r0/tf-a-stm32mp-2.2.r1/../build/serialboot/bl2/crypto_mod.o
                0x000000002ffd8658                crypto_mod_verify_hash
 .text.img_parser_init
                0x000000002ffd8690       0x94 /home/charles/linux/code/tfa/mp157_alientek/tf-a-stm32mp-2.2.r1-r0/tf-a-stm32mp-2.2.r1/../build/serialboot/bl2/img_parser_mod.o
                0x000000002ffd8690                img_parser_init
 .text.img_parser_check_integrity
                0x000000002ffd8724       0x48 /home/charles/linux/code/tfa/mp157_alientek/tf-a-stm32mp-2.2.r1-r0/tf-a-stm32mp-2.2.r1/../build/serialboot/bl2/img_parser_mod.o
                0x000000002ffd8724                img_parser_check_integrity
 .text.img_parser_get_auth_param
                0x000000002ffd876c       0x78 /home/charles/linux/code/tfa/mp157_alientek/tf-a-stm32mp-2.2.r1-r0/tf-a-stm32mp-2.2.r1/../build/serialboot/bl2/img_parser_mod.o
                0x000000002ffd876c                img_parser_get_auth_param
 .text.crypto_verify_hash
                0x000000002ffd87e4       0x46 /home/charles/linux/code/tfa/mp157_alientek/tf-a-stm32mp-2.2.r1-r0/tf-a-stm32mp-2.2.r1/../build/serialboot/bl2/stm32mp_crypto_lib.o
 *fill*         0x000000002ffd882a        0x2 
 .text.crypto_verify_signature
                0x000000002ffd882c      0x100 /home/charles/linux/code/tfa/mp157_alientek/tf-a-stm32mp-2.2.r1-r0/tf-a-stm32mp-2.2.r1/../build/serialboot/bl2/stm32mp_crypto_lib.o
 .text.crypto_lib_init
                0x000000002ffd892c       0x60 /home/charles/linux/code/tfa/mp157_alientek/tf-a-stm32mp-2.2.r1-r0/tf-a-stm32mp-2.2.r1/../build/serialboot/bl2/stm32mp_crypto_lib.o
 .text.img_lib_init
                0x000000002ffd898c        0x2 /home/charles/linux/code/tfa/mp157_alientek/tf-a-stm32mp-2.2.r1-r0/tf-a-stm32mp-2.2.r1/../build/serialboot/bl2/stm32mp_img_parser_lib.o
 .text.img_get_auth_param
                0x000000002ffd898e       0x74 /home/charles/linux/code/tfa/mp157_alientek/tf-a-stm32mp-2.2.r1-r0/tf-a-stm32mp-2.2.r1/../build/serialboot/bl2/stm32mp_img_parser_lib.o
 .text.img_check_integrity
                0x000000002ffd8a02       0x12 /home/charles/linux/code/tfa/mp157_alientek/tf-a-stm32mp-2.2.r1-r0/tf-a-stm32mp-2.2.r1/../build/serialboot/bl2/stm32mp_img_parser_lib.o
 .text.plat_get_rotpk_info
                0x000000002ffd8a14       0x8c /home/charles/linux/code/tfa/mp157_alientek/tf-a-stm32mp-2.2.r1-r0/tf-a-stm32mp-2.2.r1/../build/serialboot/bl2/stm32mp_trusted_boot.o
                0x000000002ffd8a14                plat_get_rotpk_info
 .text.plat_get_nv_ctr
                0x000000002ffd8aa0       0x1c /home/charles/linux/code/tfa/mp157_alientek/tf-a-stm32mp-2.2.r1-r0/tf-a-stm32mp-2.2.r1/../build/serialboot/bl2/stm32mp_trusted_boot.o
                0x000000002ffd8aa0                plat_get_nv_ctr
 .text.plat_set_nv_ctr
                0x000000002ffd8abc        0x6 /home/charles/linux/code/tfa/mp157_alientek/tf-a-stm32mp-2.2.r1-r0/tf-a-stm32mp-2.2.r1/../build/serialboot/bl2/stm32mp_trusted_boot.o
                0x000000002ffd8abc                plat_set_nv_ctr
 *fill*         0x000000002ffd8ac2        0x2 
 .text.mmc_send_cmd
                0x000000002ffd8ac4       0x44 /home/charles/linux/code/tfa/mp157_alientek/tf-a-stm32mp-2.2.r1-r0/tf-a-stm32mp-2.2.r1/../build/serialboot/bl2/mmc.o
 .text.mmc_device_state
                0x000000002ffd8b08       0x44 /home/charles/linux/code/tfa/mp157_alientek/tf-a-stm32mp-2.2.r1-r0/tf-a-stm32mp-2.2.r1/../build/serialboot/bl2/mmc.o
 .text.mmc_reset_to_idle
                0x000000002ffd8b4c       0x1c /home/charles/linux/code/tfa/mp157_alientek/tf-a-stm32mp-2.2.r1-r0/tf-a-stm32mp-2.2.r1/../build/serialboot/bl2/mmc.o
 .text.mmc_set_ext_csd
                0x000000002ffd8b68       0x34 /home/charles/linux/code/tfa/mp157_alientek/tf-a-stm32mp-2.2.r1-r0/tf-a-stm32mp-2.2.r1/../build/serialboot/bl2/mmc.o
 .text.sd_switch.constprop.0
                0x000000002ffd8b9c       0x48 /home/charles/linux/code/tfa/mp157_alientek/tf-a-stm32mp-2.2.r1-r0/tf-a-stm32mp-2.2.r1/../build/serialboot/bl2/mmc.o
 .text.mmc_read_blocks
                0x000000002ffd8be4       0xc8 /home/charles/linux/code/tfa/mp157_alientek/tf-a-stm32mp-2.2.r1-r0/tf-a-stm32mp-2.2.r1/../build/serialboot/bl2/mmc.o
                0x000000002ffd8be4                mmc_read_blocks
 .text.mmc_init
                0x000000002ffd8cac      0x4fc /home/charles/linux/code/tfa/mp157_alientek/tf-a-stm32mp-2.2.r1-r0/tf-a-stm32mp-2.2.r1/../build/serialboot/bl2/mmc.o
                0x000000002ffd8cac                mmc_init
 .text.parse_gpt_entry
                0x000000002ffd91a8       0x9c /home/charles/linux/code/tfa/mp157_alientek/tf-a-stm32mp-2.2.r1-r0/tf-a-stm32mp-2.2.r1/../build/serialboot/bl2/gpt.o
                0x000000002ffd91a8                parse_gpt_entry
 .text.load_partition_table
                0x000000002ffd9244      0x1f0 /home/charles/linux/code/tfa/mp157_alientek/tf-a-stm32mp-2.2.r1-r0/tf-a-stm32mp-2.2.r1/../build/serialboot/bl2/partition.o
                0x000000002ffd9244                load_partition_table
 .text.get_partition_entry
                0x000000002ffd9434       0x40 /home/charles/linux/code/tfa/mp157_alientek/tf-a-stm32mp-2.2.r1-r0/tf-a-stm32mp-2.2.r1/../build/serialboot/bl2/partition.o
                0x000000002ffd9434                get_partition_entry
 .text.partition_init
                0x000000002ffd9474        0x4 /home/charles/linux/code/tfa/mp157_alientek/tf-a-stm32mp-2.2.r1-r0/tf-a-stm32mp-2.2.r1/../build/serialboot/bl2/partition.o
                0x000000002ffd9474                partition_init
 .text.device_type_mmc
                0x000000002ffd9478        0x4 /home/charles/linux/code/tfa/mp157_alientek/tf-a-stm32mp-2.2.r1-r0/tf-a-stm32mp-2.2.r1/../build/serialboot/bl2/io_mmc.o
 .text.mmc_dev_init
                0x000000002ffd947c        0x4 /home/charles/linux/code/tfa/mp157_alientek/tf-a-stm32mp-2.2.r1-r0/tf-a-stm32mp-2.2.r1/../build/serialboot/bl2/io_mmc.o
 .text.mmc_block_open
                0x000000002ffd9480       0x10 /home/charles/linux/code/tfa/mp157_alientek/tf-a-stm32mp-2.2.r1-r0/tf-a-stm32mp-2.2.r1/../build/serialboot/bl2/io_mmc.o
 .text.mmc_block_seek
                0x000000002ffd9490       0x14 /home/charles/linux/code/tfa/mp157_alientek/tf-a-stm32mp-2.2.r1-r0/tf-a-stm32mp-2.2.r1/../build/serialboot/bl2/io_mmc.o
 .text.mmc_block_close
                0x000000002ffd94a4        0x4 /home/charles/linux/code/tfa/mp157_alientek/tf-a-stm32mp-2.2.r1-r0/tf-a-stm32mp-2.2.r1/../build/serialboot/bl2/io_mmc.o
 .text.mmc_block_read
                0x000000002ffd94a8       0x7c /home/charles/linux/code/tfa/mp157_alientek/tf-a-stm32mp-2.2.r1-r0/tf-a-stm32mp-2.2.r1/../build/serialboot/bl2/io_mmc.o
 .text.mmc_dev_open
                0x000000002ffd9524       0x1c /home/charles/linux/code/tfa/mp157_alientek/tf-a-stm32mp-2.2.r1-r0/tf-a-stm32mp-2.2.r1/../build/serialboot/bl2/io_mmc.o
 .text.mmc_dev_close
                0x000000002ffd9540        0x4 /home/charles/linux/code/tfa/mp157_alientek/tf-a-stm32mp-2.2.r1-r0/tf-a-stm32mp-2.2.r1/../build/serialboot/bl2/io_mmc.o
 .text.register_io_dev_mmc
                0x000000002ffd9544       0x28 /home/charles/linux/code/tfa/mp157_alientek/tf-a-stm32mp-2.2.r1-r0/tf-a-stm32mp-2.2.r1/../build/serialboot/bl2/io_mmc.o
                0x000000002ffd9544                register_io_dev_mmc
 .text.stm32_sdmmc2_write
                0x000000002ffd956c        0x4 /home/charles/linux/code/tfa/mp157_alientek/tf-a-stm32mp-2.2.r1-r0/tf-a-stm32mp-2.2.r1/../build/serialboot/bl2/stm32_sdmmc2.o
 .text.dump_registers
                0x000000002ffd9570       0xc4 /home/charles/linux/code/tfa/mp157_alientek/tf-a-stm32mp-2.2.r1-r0/tf-a-stm32mp-2.2.r1/../build/serialboot/bl2/stm32_sdmmc2.o
 .text.stm32_sdmmc2_set_ios
                0x000000002ffd9634       0x7c /home/charles/linux/code/tfa/mp157_alientek/tf-a-stm32mp-2.2.r1-r0/tf-a-stm32mp-2.2.r1/../build/serialboot/bl2/stm32_sdmmc2.o
 .text.stm32_sdmmc2_init
                0x000000002ffd96b0       0x94 /home/charles/linux/code/tfa/mp157_alientek/tf-a-stm32mp-2.2.r1-r0/tf-a-stm32mp-2.2.r1/../build/serialboot/bl2/stm32_sdmmc2.o
 .text.stm32_sdmmc2_send_cmd
                0x000000002ffd9744      0x2b4 /home/charles/linux/code/tfa/mp157_alientek/tf-a-stm32mp-2.2.r1-r0/tf-a-stm32mp-2.2.r1/../build/serialboot/bl2/stm32_sdmmc2.o
 .text.stm32_sdmmc2_stop_transfer
                0x000000002ffd99f8       0x20 /home/charles/linux/code/tfa/mp157_alientek/tf-a-stm32mp-2.2.r1-r0/tf-a-stm32mp-2.2.r1/../build/serialboot/bl2/stm32_sdmmc2.o
 .text.stm32_sdmmc2_read
                0x000000002ffd9a18      0x12c /home/charles/linux/code/tfa/mp157_alientek/tf-a-stm32mp-2.2.r1-r0/tf-a-stm32mp-2.2.r1/../build/serialboot/bl2/stm32_sdmmc2.o
 .text.plat_sdmmc2_use_dma
                0x000000002ffd9b44        0x4 /home/charles/linux/code/tfa/mp157_alientek/tf-a-stm32mp-2.2.r1-r0/tf-a-stm32mp-2.2.r1/../build/serialboot/bl2/stm32_sdmmc2.o
                0x000000002ffd9b44                plat_sdmmc2_use_dma
 .text.stm32_sdmmc2_prepare
                0x000000002ffd9b48       0xb4 /home/charles/linux/code/tfa/mp157_alientek/tf-a-stm32mp-2.2.r1-r0/tf-a-stm32mp-2.2.r1/../build/serialboot/bl2/stm32_sdmmc2.o
 .text.stm32_sdmmc2_mmc_get_device_size
                0x000000002ffd9bfc       0x10 /home/charles/linux/code/tfa/mp157_alientek/tf-a-stm32mp-2.2.r1-r0/tf-a-stm32mp-2.2.r1/../build/serialboot/bl2/stm32_sdmmc2.o
                0x000000002ffd9bfc                stm32_sdmmc2_mmc_get_device_size
 .text.stm32_sdmmc2_mmc_init
                0x000000002ffd9c0c      0x1c4 /home/charles/linux/code/tfa/mp157_alientek/tf-a-stm32mp-2.2.r1-r0/tf-a-stm32mp-2.2.r1/../build/serialboot/bl2/stm32_sdmmc2.o
                0x000000002ffd9c0c                stm32_sdmmc2_mmc_init
 .text.nand_send_addr
                0x000000002ffd9dd0       0x38 /home/charles/linux/code/tfa/mp157_alientek/tf-a-stm32mp-2.2.r1-r0/tf-a-stm32mp-2.2.r1/../build/serialboot/bl2/raw_nand.o
 .text.nand_send_cmd
                0x000000002ffd9e08       0x2c /home/charles/linux/code/tfa/mp157_alientek/tf-a-stm32mp-2.2.r1-r0/tf-a-stm32mp-2.2.r1/../build/serialboot/bl2/raw_nand.o
 .text.nand_read_data
                0x000000002ffd9e34       0x40 /home/charles/linux/code/tfa/mp157_alientek/tf-a-stm32mp-2.2.r1-r0/tf-a-stm32mp-2.2.r1/../build/serialboot/bl2/raw_nand.o
 .text.nand_send_wait
                0x000000002ffd9e74       0x34 /home/charles/linux/code/tfa/mp157_alientek/tf-a-stm32mp-2.2.r1-r0/tf-a-stm32mp-2.2.r1/../build/serialboot/bl2/raw_nand.o
 .text.nand_read_param_page
                0x000000002ffd9ea8       0xf8 /home/charles/linux/code/tfa/mp157_alientek/tf-a-stm32mp-2.2.r1-r0/tf-a-stm32mp-2.2.r1/../build/serialboot/bl2/raw_nand.o
 .text.nand_change_read_column_cmd
                0x000000002ffd9fa0       0x58 /home/charles/linux/code/tfa/mp157_alientek/tf-a-stm32mp-2.2.r1-r0/tf-a-stm32mp-2.2.r1/../build/serialboot/bl2/raw_nand.o
                0x000000002ffd9fa0                nand_change_read_column_cmd
 .text.nand_read_page_cmd
                0x000000002ffd9ff8       0x98 /home/charles/linux/code/tfa/mp157_alientek/tf-a-stm32mp-2.2.r1-r0/tf-a-stm32mp-2.2.r1/../build/serialboot/bl2/raw_nand.o
                0x000000002ffd9ff8                nand_read_page_cmd
 .text.nand_mtd_read_page_raw
                0x000000002ffda090       0x14 /home/charles/linux/code/tfa/mp157_alientek/tf-a-stm32mp-2.2.r1-r0/tf-a-stm32mp-2.2.r1/../build/serialboot/bl2/raw_nand.o
 .text.nand_mtd_block_is_bad
                0x000000002ffda0a4       0x60 /home/charles/linux/code/tfa/mp157_alientek/tf-a-stm32mp-2.2.r1-r0/tf-a-stm32mp-2.2.r1/../build/serialboot/bl2/raw_nand.o
 .text.nand_wait_ready
                0x000000002ffda104       0x7c /home/charles/linux/code/tfa/mp157_alientek/tf-a-stm32mp-2.2.r1-r0/tf-a-stm32mp-2.2.r1/../build/serialboot/bl2/raw_nand.o
                0x000000002ffda104                nand_wait_ready
 .text.nand_raw_ctrl_init
                0x000000002ffda180        0xc /home/charles/linux/code/tfa/mp157_alientek/tf-a-stm32mp-2.2.r1-r0/tf-a-stm32mp-2.2.r1/../build/serialboot/bl2/raw_nand.o
                0x000000002ffda180                nand_raw_ctrl_init
 .text.nand_raw_init
                0x000000002ffda18c       0xf0 /home/charles/linux/code/tfa/mp157_alientek/tf-a-stm32mp-2.2.r1-r0/tf-a-stm32mp-2.2.r1/../build/serialboot/bl2/raw_nand.o
                0x000000002ffda18c                nand_raw_init
 .text.fdt32_to_cpu
                0x000000002ffda27c        0x4 /home/charles/linux/code/tfa/mp157_alientek/tf-a-stm32mp-2.2.r1-r0/tf-a-stm32mp-2.2.r1/../build/serialboot/bl2/stm32_fmc2_nand.o
 .text.stm32_fmc2_set_buswidth_16
                0x000000002ffda280       0x20 /home/charles/linux/code/tfa/mp157_alientek/tf-a-stm32mp-2.2.r1-r0/tf-a-stm32mp-2.2.r1/../build/serialboot/bl2/stm32_fmc2_nand.o
 .text.stm32_fmc2_set_ecc
                0x000000002ffda2a0       0x20 /home/charles/linux/code/tfa/mp157_alientek/tf-a-stm32mp-2.2.r1-r0/tf-a-stm32mp-2.2.r1/../build/serialboot/bl2/stm32_fmc2_nand.o
 .text.stm32_fmc2_setup
                0x000000002ffda2c0       0x6c /home/charles/linux/code/tfa/mp157_alientek/tf-a-stm32mp-2.2.r1-r0/tf-a-stm32mp-2.2.r1/../build/serialboot/bl2/stm32_fmc2_nand.o
 .text.stm32_fmc2_exec
                0x000000002ffda32c      0x170 /home/charles/linux/code/tfa/mp157_alientek/tf-a-stm32mp-2.2.r1-r0/tf-a-stm32mp-2.2.r1/../build/serialboot/bl2/stm32_fmc2_nand.o
 .text.stm32_fmc2_read_page
                0x000000002ffda49c      0x2f4 /home/charles/linux/code/tfa/mp157_alientek/tf-a-stm32mp-2.2.r1-r0/tf-a-stm32mp-2.2.r1/../build/serialboot/bl2/stm32_fmc2_nand.o
 .text.stm32_fmc2_init
                0x000000002ffda790      0x3d8 /home/charles/linux/code/tfa/mp157_alientek/tf-a-stm32mp-2.2.r1-r0/tf-a-stm32mp-2.2.r1/../build/serialboot/bl2/stm32_fmc2_nand.o
                0x000000002ffda790                stm32_fmc2_init
 .text.spi_nand_reg
                0x000000002ffdab68       0x4a /home/charles/linux/code/tfa/mp157_alientek/tf-a-stm32mp-2.2.r1-r0/tf-a-stm32mp-2.2.r1/../build/serialboot/bl2/spi_nand.o
 *fill*         0x000000002ffdabb2        0x2 
 .text.spi_nand_load_page
                0x000000002ffdabb4       0x54 /home/charles/linux/code/tfa/mp157_alientek/tf-a-stm32mp-2.2.r1-r0/tf-a-stm32mp-2.2.r1/../build/serialboot/bl2/spi_nand.o
 .text.spi_nand_read_from_cache
                0x000000002ffdac08       0x50 /home/charles/linux/code/tfa/mp157_alientek/tf-a-stm32mp-2.2.r1-r0/tf-a-stm32mp-2.2.r1/../build/serialboot/bl2/spi_nand.o
 .text.spi_nand_update_cfg
                0x000000002ffdac58       0x38 /home/charles/linux/code/tfa/mp157_alientek/tf-a-stm32mp-2.2.r1-r0/tf-a-stm32mp-2.2.r1/../build/serialboot/bl2/spi_nand.o
 .text.spi_nand_wait_ready
                0x000000002ffdac90       0x58 /home/charles/linux/code/tfa/mp157_alientek/tf-a-stm32mp-2.2.r1-r0/tf-a-stm32mp-2.2.r1/../build/serialboot/bl2/spi_nand.o
 .text.spi_nand_mtd_read_page
                0x000000002ffdace8       0x4c /home/charles/linux/code/tfa/mp157_alientek/tf-a-stm32mp-2.2.r1-r0/tf-a-stm32mp-2.2.r1/../build/serialboot/bl2/spi_nand.o
 .text.spi_nand_mtd_block_is_bad
                0x000000002ffdad34       0x60 /home/charles/linux/code/tfa/mp157_alientek/tf-a-stm32mp-2.2.r1-r0/tf-a-stm32mp-2.2.r1/../build/serialboot/bl2/spi_nand.o
 .text.spi_nand_init
                0x000000002ffdad94       0xf8 /home/charles/linux/code/tfa/mp157_alientek/tf-a-stm32mp-2.2.r1-r0/tf-a-stm32mp-2.2.r1/../build/serialboot/bl2/spi_nand.o
                0x000000002ffdad94                spi_nand_init
 .text.spi_nor_reg
                0x000000002ffdae8c       0x32 /home/charles/linux/code/tfa/mp157_alientek/tf-a-stm32mp-2.2.r1-r0/tf-a-stm32mp-2.2.r1/../build/serialboot/bl2/spi_nor.o
 .text.spi_nor_write_en
                0x000000002ffdaebe        0xc /home/charles/linux/code/tfa/mp157_alientek/tf-a-stm32mp-2.2.r1-r0/tf-a-stm32mp-2.2.r1/../build/serialboot/bl2/spi_nor.o
 .text.spi_nor_read_sr
                0x000000002ffdaeca        0xc /home/charles/linux/code/tfa/mp157_alientek/tf-a-stm32mp-2.2.r1-r0/tf-a-stm32mp-2.2.r1/../build/serialboot/bl2/spi_nor.o
 *fill*         0x000000002ffdaed6        0x2 
 .text.spi_nor_clean_bar
                0x000000002ffdaed8       0x30 /home/charles/linux/code/tfa/mp157_alientek/tf-a-stm32mp-2.2.r1-r0/tf-a-stm32mp-2.2.r1/../build/serialboot/bl2/spi_nor.o
 .text.spi_nor_wait_ready
                0x000000002ffdaf08       0x74 /home/charles/linux/code/tfa/mp157_alientek/tf-a-stm32mp-2.2.r1-r0/tf-a-stm32mp-2.2.r1/../build/serialboot/bl2/spi_nor.o
 .text.spi_nor_read
                0x000000002ffdaf7c       0xb4 /home/charles/linux/code/tfa/mp157_alientek/tf-a-stm32mp-2.2.r1-r0/tf-a-stm32mp-2.2.r1/../build/serialboot/bl2/spi_nor.o
                0x000000002ffdaf7c                spi_nor_read
 .text.spi_nor_init
                0x000000002ffdb030      0x18c /home/charles/linux/code/tfa/mp157_alientek/tf-a-stm32mp-2.2.r1-r0/tf-a-stm32mp-2.2.r1/../build/serialboot/bl2/spi_nor.o
                0x000000002ffdb030                spi_nor_init
 .text.fdt32_to_cpu
                0x000000002ffdb1bc        0x4 /home/charles/linux/code/tfa/mp157_alientek/tf-a-stm32mp-2.2.r1-r0/tf-a-stm32mp-2.2.r1/../build/serialboot/bl2/spi_mem.o
 .text.spi_mem_check_buswidth_req
                0x000000002ffdb1c0       0x40 /home/charles/linux/code/tfa/mp157_alientek/tf-a-stm32mp-2.2.r1-r0/tf-a-stm32mp-2.2.r1/../build/serialboot/bl2/spi_mem.o
 .text.spi_mem_exec_op
                0x000000002ffdb200       0x7c /home/charles/linux/code/tfa/mp157_alientek/tf-a-stm32mp-2.2.r1-r0/tf-a-stm32mp-2.2.r1/../build/serialboot/bl2/spi_mem.o
                0x000000002ffdb200                spi_mem_exec_op
 .text.spi_mem_init_slave
                0x000000002ffdb27c      0x1d8 /home/charles/linux/code/tfa/mp157_alientek/tf-a-stm32mp-2.2.r1-r0/tf-a-stm32mp-2.2.r1/../build/serialboot/bl2/spi_mem.o
                0x000000002ffdb27c                spi_mem_init_slave
 .text.stm32_qspi_read_fifo
                0x000000002ffdb454        0x6 /home/charles/linux/code/tfa/mp157_alientek/tf-a-stm32mp-2.2.r1-r0/tf-a-stm32mp-2.2.r1/../build/serialboot/bl2/stm32_qspi.o
 .text.stm32_qspi_write_fifo
                0x000000002ffdb45a        0x6 /home/charles/linux/code/tfa/mp157_alientek/tf-a-stm32mp-2.2.r1-r0/tf-a-stm32mp-2.2.r1/../build/serialboot/bl2/stm32_qspi.o
 .text.stm32_qspi_claim_bus
                0x000000002ffdb460       0x28 /home/charles/linux/code/tfa/mp157_alientek/tf-a-stm32mp-2.2.r1-r0/tf-a-stm32mp-2.2.r1/../build/serialboot/bl2/stm32_qspi.o
 .text.stm32_qspi_release_bus
                0x000000002ffdb488       0x14 /home/charles/linux/code/tfa/mp157_alientek/tf-a-stm32mp-2.2.r1-r0/tf-a-stm32mp-2.2.r1/../build/serialboot/bl2/stm32_qspi.o
 .text.stm32_qspi_wait_for_not_busy
                0x000000002ffdb49c       0x58 /home/charles/linux/code/tfa/mp157_alientek/tf-a-stm32mp-2.2.r1-r0/tf-a-stm32mp-2.2.r1/../build/serialboot/bl2/stm32_qspi.o
 .text.stm32_qspi_set_mode
                0x000000002ffdb4f4       0x3c /home/charles/linux/code/tfa/mp157_alientek/tf-a-stm32mp-2.2.r1-r0/tf-a-stm32mp-2.2.r1/../build/serialboot/bl2/stm32_qspi.o
 .text.stm32_qspi_set_speed
                0x000000002ffdb530       0x74 /home/charles/linux/code/tfa/mp157_alientek/tf-a-stm32mp-2.2.r1-r0/tf-a-stm32mp-2.2.r1/../build/serialboot/bl2/stm32_qspi.o
 .text.stm32_qspi_exec_op
                0x000000002ffdb5a4      0x240 /home/charles/linux/code/tfa/mp157_alientek/tf-a-stm32mp-2.2.r1-r0/tf-a-stm32mp-2.2.r1/../build/serialboot/bl2/stm32_qspi.o
 .text.stm32_qspi_init
                0x000000002ffdb7e4       0xcc /home/charles/linux/code/tfa/mp157_alientek/tf-a-stm32mp-2.2.r1-r0/tf-a-stm32mp-2.2.r1/../build/serialboot/bl2/stm32_qspi.o
                0x000000002ffdb7e4                stm32_qspi_init
 .text.nand_read
                0x000000002ffdb8b0      0x118 /home/charles/linux/code/tfa/mp157_alientek/tf-a-stm32mp-2.2.r1-r0/tf-a-stm32mp-2.2.r1/../build/serialboot/bl2/core.o
                0x000000002ffdb8b0                nand_read
 .text.get_nand_device
                0x000000002ffdb9c8        0x8 /home/charles/linux/code/tfa/mp157_alientek/tf-a-stm32mp-2.2.r1-r0/tf-a-stm32mp-2.2.r1/../build/serialboot/bl2/core.o
                0x000000002ffdb9c8                get_nand_device
 .text.get_data_from_otp
                0x000000002ffdb9d0       0xe0 /home/charles/linux/code/tfa/mp157_alientek/tf-a-stm32mp-2.2.r1-r0/tf-a-stm32mp-2.2.r1/../build/serialboot/bl2/stm32mp1_boot_device.o
 .text.plat_get_raw_nand_data
                0x000000002ffdbab0       0x10 /home/charles/linux/code/tfa/mp157_alientek/tf-a-stm32mp-2.2.r1-r0/tf-a-stm32mp-2.2.r1/../build/serialboot/bl2/stm32mp1_boot_device.o
                0x000000002ffdbab0                plat_get_raw_nand_data
 .text.plat_get_spi_nand_data
                0x000000002ffdbac0       0x32 /home/charles/linux/code/tfa/mp157_alientek/tf-a-stm32mp-2.2.r1-r0/tf-a-stm32mp-2.2.r1/../build/serialboot/bl2/stm32mp1_boot_device.o
                0x000000002ffdbac0                plat_get_spi_nand_data
 .text.plat_get_nor_data
                0x000000002ffdbaf2       0x2c /home/charles/linux/code/tfa/mp157_alientek/tf-a-stm32mp-2.2.r1-r0/tf-a-stm32mp-2.2.r1/../build/serialboot/bl2/stm32mp1_boot_device.o
                0x000000002ffdbaf2                plat_get_nor_data
 *fill*         0x000000002ffdbb1e        0x2 
 .text.set_reg  0x000000002ffdbb20       0x54 /home/charles/linux/code/tfa/mp157_alientek/tf-a-stm32mp-2.2.r1-r0/tf-a-stm32mp-2.2.r1/../build/serialboot/bl2/stm32mp1_ddr.o
 .text.board_ddr_power_init
                0x000000002ffdbb74       0x1a /home/charles/linux/code/tfa/mp157_alientek/tf-a-stm32mp-2.2.r1-r0/tf-a-stm32mp-2.2.r1/../build/serialboot/bl2/stm32mp1_ddr.o
 .text.stm32mp1_mode_register_write.isra.0
                0x000000002ffdbb8e       0x22 /home/charles/linux/code/tfa/mp157_alientek/tf-a-stm32mp-2.2.r1-r0/tf-a-stm32mp-2.2.r1/../build/serialboot/bl2/stm32mp1_ddr.o
 .text.stm32mp1_wait_sw_done_ack
                0x000000002ffdbbb0       0x54 /home/charles/linux/code/tfa/mp157_alientek/tf-a-stm32mp-2.2.r1-r0/tf-a-stm32mp-2.2.r1/../build/serialboot/bl2/stm32mp1_ddr.o
 .text.stm32mp1_wait_operating_mode.isra.0
                0x000000002ffdbc04       0x6c /home/charles/linux/code/tfa/mp157_alientek/tf-a-stm32mp-2.2.r1-r0/tf-a-stm32mp-2.2.r1/../build/serialboot/bl2/stm32mp1_ddr.o
 .text.stm32mp1_ddrphy_idone_wait
                0x000000002ffdbc70       0x64 /home/charles/linux/code/tfa/mp157_alientek/tf-a-stm32mp-2.2.r1-r0/tf-a-stm32mp-2.2.r1/../build/serialboot/bl2/stm32mp1_ddr.o
 .text.stm32mp1_ddr_init
                0x000000002ffdbcd4      0x4e0 /home/charles/linux/code/tfa/mp157_alientek/tf-a-stm32mp-2.2.r1-r0/tf-a-stm32mp-2.2.r1/../build/serialboot/bl2/stm32mp1_ddr.o
                0x000000002ffdbcd4                stm32mp1_ddr_init
 .text.stm32mp1_ddr_setup
                0x000000002ffdc1b4      0x36c /home/charles/linux/code/tfa/mp157_alientek/tf-a-stm32mp-2.2.r1-r0/tf-a-stm32mp-2.2.r1/../build/serialboot/bl2/stm32mp1_ram.o
 .text.stm32mp1_ddr_clk_enable
                0x000000002ffdc520       0x44 /home/charles/linux/code/tfa/mp157_alientek/tf-a-stm32mp-2.2.r1-r0/tf-a-stm32mp-2.2.r1/../build/serialboot/bl2/stm32mp1_ram.o
                0x000000002ffdc520                stm32mp1_ddr_clk_enable
 .text.stm32mp1_ddr_probe
                0x000000002ffdc564       0x3c /home/charles/linux/code/tfa/mp157_alientek/tf-a-stm32mp-2.2.r1-r0/tf-a-stm32mp-2.2.r1/../build/serialboot/bl2/stm32mp1_ram.o
                0x000000002ffdc564                stm32mp1_ddr_probe
 .text.flush_bl_params_desc_args
                0x000000002ffdc5a0       0x34 /home/charles/linux/code/tfa/mp157_alientek/tf-a-stm32mp-2.2.r1-r0/tf-a-stm32mp-2.2.r1/../build/serialboot/bl2/desc_image_load.o
                0x000000002ffdc5a0                flush_bl_params_desc_args
 .text.flush_bl_params_desc
                0x000000002ffdc5d4       0x1c /home/charles/linux/code/tfa/mp157_alientek/tf-a-stm32mp-2.2.r1-r0/tf-a-stm32mp-2.2.r1/../build/serialboot/bl2/desc_image_load.o
                0x000000002ffdc5d4                flush_bl_params_desc
 .text.get_bl_params_node_index
                0x000000002ffdc5f0       0x40 /home/charles/linux/code/tfa/mp157_alientek/tf-a-stm32mp-2.2.r1-r0/tf-a-stm32mp-2.2.r1/../build/serialboot/bl2/desc_image_load.o
                0x000000002ffdc5f0                get_bl_params_node_index
 .text.get_bl_mem_params_node
                0x000000002ffdc630       0x30 /home/charles/linux/code/tfa/mp157_alientek/tf-a-stm32mp-2.2.r1-r0/tf-a-stm32mp-2.2.r1/../build/serialboot/bl2/desc_image_load.o
                0x000000002ffdc630                get_bl_mem_params_node
 .text.get_bl_load_info_from_mem_params_desc
                0x000000002ffdc660       0x54 /home/charles/linux/code/tfa/mp157_alientek/tf-a-stm32mp-2.2.r1-r0/tf-a-stm32mp-2.2.r1/../build/serialboot/bl2/desc_image_load.o
                0x000000002ffdc660                get_bl_load_info_from_mem_params_desc
 .text.get_next_bl_params_from_mem_params_desc
                0x000000002ffdc6b4       0xc0 /home/charles/linux/code/tfa/mp157_alientek/tf-a-stm32mp-2.2.r1-r0/tf-a-stm32mp-2.2.r1/../build/serialboot/bl2/desc_image_load.o
                0x000000002ffdc6b4                get_next_bl_params_from_mem_params_desc
 .text.plat_flush_next_bl_params
                0x000000002ffdc774        0x4 /home/charles/linux/code/tfa/mp157_alientek/tf-a-stm32mp-2.2.r1-r0/tf-a-stm32mp-2.2.r1/../build/serialboot/bl2/plat_image_load.o
                0x000000002ffdc774                plat_flush_next_bl_params
 .text.plat_get_bl_image_load_info
                0x000000002ffdc778       0x80 /home/charles/linux/code/tfa/mp157_alientek/tf-a-stm32mp-2.2.r1-r0/tf-a-stm32mp-2.2.r1/../build/serialboot/bl2/plat_image_load.o
                0x000000002ffdc778                plat_get_bl_image_load_info
 .text.plat_get_next_bl_params
                0x000000002ffdc7f8        0x4 /home/charles/linux/code/tfa/mp157_alientek/tf-a-stm32mp-2.2.r1-r0/tf-a-stm32mp-2.2.r1/../build/serialboot/bl2/plat_image_load.o
                0x000000002ffdc7f8                plat_get_next_bl_params
 .text.bl2_load_images
                0x000000002ffdc7fc      0x110 /home/charles/linux/code/tfa/mp157_alientek/tf-a-stm32mp-2.2.r1-r0/tf-a-stm32mp-2.2.r1/../build/serialboot/bl2/bl2_image_load_v2.o
                0x000000002ffdc7fc                bl2_load_images
 .text.bl2_el3_setup
                0x000000002ffdc90c        0xe /home/charles/linux/code/tfa/mp157_alientek/tf-a-stm32mp-2.2.r1-r0/tf-a-stm32mp-2.2.r1/../build/serialboot/bl2/bl2_main.o
                0x000000002ffdc90c                bl2_el3_setup
 *fill*         0x000000002ffdc91a        0x2 
 .text.bl2_main
                0x000000002ffdc91c       0x50 /home/charles/linux/code/tfa/mp157_alientek/tf-a-stm32mp-2.2.r1-r0/tf-a-stm32mp-2.2.r1/../build/serialboot/bl2/bl2_main.o
                0x000000002ffdc91c                bl2_main
 .text.bl2_arch_setup
                0x000000002ffdc96c        0x2 /home/charles/linux/code/tfa/mp157_alientek/tf-a-stm32mp-2.2.r1-r0/tf-a-stm32mp-2.2.r1/../build/serialboot/bl2/bl2_arch_setup.o
                0x000000002ffdc96c                bl2_arch_setup
 *fill*         0x000000002ffdc96e        0x2 
 .text.load_auth_image_internal
                0x000000002ffdc970      0x138 /home/charles/linux/code/tfa/mp157_alientek/tf-a-stm32mp-2.2.r1-r0/tf-a-stm32mp-2.2.r1/../build/serialboot/bl2/bl_common.o
 .text.load_auth_image
                0x000000002ffdcaa8       0x22 /home/charles/linux/code/tfa/mp157_alientek/tf-a-stm32mp-2.2.r1-r0/tf-a-stm32mp-2.2.r1/../build/serialboot/bl2/bl_common.o
                0x000000002ffdcaa8                load_auth_image
 *fill*         0x000000002ffdcaca        0x2 
 .text.print_entry_point_info
                0x000000002ffdcacc       0x20 /home/charles/linux/code/tfa/mp157_alientek/tf-a-stm32mp-2.2.r1-r0/tf-a-stm32mp-2.2.r1/../build/serialboot/bl2/bl_common.o
                0x000000002ffdcacc                print_entry_point_info
 .text.tf_log   0x000000002ffdcaec       0x5c /home/charles/linux/code/tfa/mp157_alientek/tf-a-stm32mp-2.2.r1-r0/tf-a-stm32mp-2.2.r1/../build/serialboot/bl2/tf_log.o
                0x000000002ffdcaec                tf_log
 .text.console_is_registered
                0x000000002ffdcb48       0x2c /home/charles/linux/code/tfa/mp157_alientek/tf-a-stm32mp-2.2.r1-r0/tf-a-stm32mp-2.2.r1/../build/serialboot/bl2/multi_console.o
                0x000000002ffdcb48                console_is_registered
 .text.console_register
                0x000000002ffdcb74       0x40 /home/charles/linux/code/tfa/mp157_alientek/tf-a-stm32mp-2.2.r1-r0/tf-a-stm32mp-2.2.r1/../build/serialboot/bl2/multi_console.o
                0x000000002ffdcb74                console_register
 .text.console_set_scope
                0x000000002ffdcbb4       0x1c /home/charles/linux/code/tfa/mp157_alientek/tf-a-stm32mp-2.2.r1-r0/tf-a-stm32mp-2.2.r1/../build/serialboot/bl2/multi_console.o
                0x000000002ffdcbb4                console_set_scope
 .text.console_putc
                0x000000002ffdcbd0       0x58 /home/charles/linux/code/tfa/mp157_alientek/tf-a-stm32mp-2.2.r1-r0/tf-a-stm32mp-2.2.r1/../build/serialboot/bl2/multi_console.o
                0x000000002ffdcbd0                console_putc
 .text.console_flush
                0x000000002ffdcc28       0x40 /home/charles/linux/code/tfa/mp157_alientek/tf-a-stm32mp-2.2.r1-r0/tf-a-stm32mp-2.2.r1/../build/serialboot/bl2/multi_console.o
                0x000000002ffdcc28                console_flush
 .text.bl2_el3_plat_prepare_exit
                0x000000002ffdcc68        0x2 /home/charles/linux/code/tfa/mp157_alientek/tf-a-stm32mp-2.2.r1-r0/tf-a-stm32mp-2.2.r1/../build/serialboot/bl2/plat_bl_common.o
                0x000000002ffdcc68                bl2_el3_plat_prepare_exit
 .text.plat_error_handler
                0x000000002ffdcc6a        0x4 /home/charles/linux/code/tfa/mp157_alientek/tf-a-stm32mp-2.2.r1-r0/tf-a-stm32mp-2.2.r1/../build/serialboot/bl2/plat_bl_common.o
                0x000000002ffdcc6a                plat_error_handler
 .text.bl2_plat_preload_setup
                0x000000002ffdcc6e        0x2 /home/charles/linux/code/tfa/mp157_alientek/tf-a-stm32mp-2.2.r1-r0/tf-a-stm32mp-2.2.r1/../build/serialboot/bl2/plat_bl_common.o
                0x000000002ffdcc6e                bl2_plat_preload_setup
 .text.bl2_plat_handle_pre_image_load
                0x000000002ffdcc70        0x4 /home/charles/linux/code/tfa/mp157_alientek/tf-a-stm32mp-2.2.r1-r0/tf-a-stm32mp-2.2.r1/../build/serialboot/bl2/plat_bl_common.o
                0x000000002ffdcc70                bl2_plat_handle_pre_image_load
 .text.plat_log_get_prefix
                0x000000002ffdcc74       0x24 /home/charles/linux/code/tfa/mp157_alientek/tf-a-stm32mp-2.2.r1-r0/tf-a-stm32mp-2.2.r1/../build/serialboot/bl2/plat_log_common.o
                0x000000002ffdcc74                plat_log_get_prefix
 .text.__popcountsi2
                0x000000002ffdcc98       0x2a /home/charles/linux/code/tfa/mp157_alientek/tf-a-stm32mp-2.2.r1-r0/tf-a-stm32mp-2.2.r1/../build/serialboot/bl2/popcountsi2.o
                0x000000002ffdcc98                __popcountsi2
 .text.__ctzdi2
                0x000000002ffdccc2       0x20 /home/charles/linux/code/tfa/mp157_alientek/tf-a-stm32mp-2.2.r1-r0/tf-a-stm32mp-2.2.r1/../build/serialboot/bl2/ctzdi2.o
                0x000000002ffdccc2                __ctzdi2
 .text.__udivmoddi4
                0x000000002ffdcce2      0x19e /home/charles/linux/code/tfa/mp157_alientek/tf-a-stm32mp-2.2.r1-r0/tf-a-stm32mp-2.2.r1/../build/serialboot/bl2/udivmoddi4.o
                0x000000002ffdcce2                __udivmoddi4
 .text.plat_get_syscnt_freq2
                0x000000002ffdce80        0x6 /home/charles/linux/code/tfa/mp157_alientek/tf-a-stm32mp-2.2.r1-r0/tf-a-stm32mp-2.2.r1/../build/serialboot/bl2/stm32mp_common.o
                0x000000002ffdce80                plat_get_syscnt_freq2
 *fill*         0x000000002ffdce86        0x2 
 .text.stm32mp_save_boot_ctx_address
                0x000000002ffdce88        0xc /home/charles/linux/code/tfa/mp157_alientek/tf-a-stm32mp-2.2.r1-r0/tf-a-stm32mp-2.2.r1/../build/serialboot/bl2/stm32mp_common.o
                0x000000002ffdce88                stm32mp_save_boot_ctx_address
 .text.stm32mp_get_boot_ctx_address
                0x000000002ffdce94        0xc /home/charles/linux/code/tfa/mp157_alientek/tf-a-stm32mp-2.2.r1-r0/tf-a-stm32mp-2.2.r1/../build/serialboot/bl2/stm32mp_common.o
                0x000000002ffdce94                stm32mp_get_boot_ctx_address
 .text.stm32mp_ddrctrl_base
                0x000000002ffdcea0        0x8 /home/charles/linux/code/tfa/mp157_alientek/tf-a-stm32mp-2.2.r1-r0/tf-a-stm32mp-2.2.r1/../build/serialboot/bl2/stm32mp_common.o
                0x000000002ffdcea0                stm32mp_ddrctrl_base
 .text.stm32mp_ddrphyc_base
                0x000000002ffdcea8        0x8 /home/charles/linux/code/tfa/mp157_alientek/tf-a-stm32mp-2.2.r1-r0/tf-a-stm32mp-2.2.r1/../build/serialboot/bl2/stm32mp_common.o
                0x000000002ffdcea8                stm32mp_ddrphyc_base
 .text.stm32mp_pwr_base
                0x000000002ffdceb0        0x8 /home/charles/linux/code/tfa/mp157_alientek/tf-a-stm32mp-2.2.r1-r0/tf-a-stm32mp-2.2.r1/../build/serialboot/bl2/stm32mp_common.o
                0x000000002ffdceb0                stm32mp_pwr_base
 .text.stm32mp_rcc_base
                0x000000002ffdceb8        0x6 /home/charles/linux/code/tfa/mp157_alientek/tf-a-stm32mp-2.2.r1-r0/tf-a-stm32mp-2.2.r1/../build/serialboot/bl2/stm32mp_common.o
                0x000000002ffdceb8                stm32mp_rcc_base
 .text.stm32mp_lock_available
                0x000000002ffdcebe       0x10 /home/charles/linux/code/tfa/mp157_alientek/tf-a-stm32mp-2.2.r1-r0/tf-a-stm32mp-2.2.r1/../build/serialboot/bl2/stm32mp_common.o
                0x000000002ffdcebe                stm32mp_lock_available
 *fill*         0x000000002ffdcece        0x2 
 .text.stm32_get_gpio_bank_base
                0x000000002ffdced0       0x28 /home/charles/linux/code/tfa/mp157_alientek/tf-a-stm32mp-2.2.r1-r0/tf-a-stm32mp-2.2.r1/../build/serialboot/bl2/stm32mp_common.o
                0x000000002ffdced0                stm32_get_gpio_bank_base
 .text.stm32_get_gpio_bank_offset
                0x000000002ffdcef8       0x20 /home/charles/linux/code/tfa/mp157_alientek/tf-a-stm32mp-2.2.r1-r0/tf-a-stm32mp-2.2.r1/../build/serialboot/bl2/stm32mp_common.o
                0x000000002ffdcef8                stm32_get_gpio_bank_offset
 .text.stm32mp_check_header
                0x000000002ffdcf18       0xc0 /home/charles/linux/code/tfa/mp157_alientek/tf-a-stm32mp-2.2.r1-r0/tf-a-stm32mp-2.2.r1/../build/serialboot/bl2/stm32mp_common.o
                0x000000002ffdcf18                stm32mp_check_header
 .text.stm32mp_get_cpu_supply_name
                0x000000002ffdcfd8       0x2e /home/charles/linux/code/tfa/mp157_alientek/tf-a-stm32mp-2.2.r1-r0/tf-a-stm32mp-2.2.r1/../build/serialboot/bl2/stm32mp_common.o
                0x000000002ffdcfd8                stm32mp_get_cpu_supply_name
 *fill*         0x000000002ffdd006        0x2 
 .text.stm32mp_save_loaded_header
                0x000000002ffdd008       0x1c /home/charles/linux/code/tfa/mp157_alientek/tf-a-stm32mp-2.2.r1-r0/tf-a-stm32mp-2.2.r1/../build/serialboot/bl2/stm32mp_common.o
                0x000000002ffdd008                stm32mp_save_loaded_header
 .text.stm32mp_delete_loaded_header
                0x000000002ffdd024       0x1c /home/charles/linux/code/tfa/mp157_alientek/tf-a-stm32mp-2.2.r1-r0/tf-a-stm32mp-2.2.r1/../build/serialboot/bl2/stm32mp_common.o
                0x000000002ffdd024                stm32mp_delete_loaded_header
 .text.stm32mp_get_loaded_header
                0x000000002ffdd040       0x1c /home/charles/linux/code/tfa/mp157_alientek/tf-a-stm32mp-2.2.r1-r0/tf-a-stm32mp-2.2.r1/../build/serialboot/bl2/stm32mp_common.o
                0x000000002ffdd040                stm32mp_get_loaded_header
 .text.configure_mmu
                0x000000002ffdd05c       0x1c /home/charles/linux/code/tfa/mp157_alientek/tf-a-stm32mp-2.2.r1-r0/tf-a-stm32mp-2.2.r1/../build/serialboot/bl2/stm32mp1_private.o
                0x000000002ffdd05c                configure_mmu
 .text.stm32_get_gpio_bank_clock
                0x000000002ffdd078       0x20 /home/charles/linux/code/tfa/mp157_alientek/tf-a-stm32mp-2.2.r1-r0/tf-a-stm32mp-2.2.r1/../build/serialboot/bl2/stm32mp1_private.o
                0x000000002ffdd078                stm32_get_gpio_bank_clock
 .text.stm32_get_otp_index
                0x000000002ffdd098       0x28 /home/charles/linux/code/tfa/mp157_alientek/tf-a-stm32mp-2.2.r1-r0/tf-a-stm32mp-2.2.r1/../build/serialboot/bl2/stm32mp1_private.o
                0x000000002ffdd098                stm32_get_otp_index
 .text.stm32_get_otp_value_from_idx
                0x000000002ffdd0c0       0x30 /home/charles/linux/code/tfa/mp157_alientek/tf-a-stm32mp-2.2.r1-r0/tf-a-stm32mp-2.2.r1/../build/serialboot/bl2/stm32mp1_private.o
                0x000000002ffdd0c0                stm32_get_otp_value_from_idx
 .text.stm32_get_otp_value
                0x000000002ffdd0f0       0x48 /home/charles/linux/code/tfa/mp157_alientek/tf-a-stm32mp-2.2.r1-r0/tf-a-stm32mp-2.2.r1/../build/serialboot/bl2/stm32mp1_private.o
                0x000000002ffdd0f0                stm32_get_otp_value
 .text.get_part_number
                0x000000002ffdd138       0x4c /home/charles/linux/code/tfa/mp157_alientek/tf-a-stm32mp-2.2.r1-r0/tf-a-stm32mp-2.2.r1/../build/serialboot/bl2/stm32mp1_private.o
 .text.stm32mp_supports_cpu_opp
                0x000000002ffdd184       0x40 /home/charles/linux/code/tfa/mp157_alientek/tf-a-stm32mp-2.2.r1-r0/tf-a-stm32mp-2.2.r1/../build/serialboot/bl2/stm32mp1_private.o
                0x000000002ffdd184                stm32mp_supports_cpu_opp
 .text.stm32mp_print_cpuinfo
                0x000000002ffdd1c4      0x15c /home/charles/linux/code/tfa/mp157_alientek/tf-a-stm32mp-2.2.r1-r0/tf-a-stm32mp-2.2.r1/../build/serialboot/bl2/stm32mp1_private.o
                0x000000002ffdd1c4                stm32mp_print_cpuinfo
 .text.stm32mp_print_boardinfo
                0x000000002ffdd320       0x4c /home/charles/linux/code/tfa/mp157_alientek/tf-a-stm32mp-2.2.r1-r0/tf-a-stm32mp-2.2.r1/../build/serialboot/bl2/stm32mp1_private.o
                0x000000002ffdd320                stm32mp_print_boardinfo
 .text.stm32mp_is_closed_device
                0x000000002ffdd36c       0x24 /home/charles/linux/code/tfa/mp157_alientek/tf-a-stm32mp-2.2.r1-r0/tf-a-stm32mp-2.2.r1/../build/serialboot/bl2/stm32mp1_private.o
                0x000000002ffdd36c                stm32mp_is_closed_device
 .text.stm32mp_is_auth_supported
                0x000000002ffdd390       0x40 /home/charles/linux/code/tfa/mp157_alientek/tf-a-stm32mp-2.2.r1-r0/tf-a-stm32mp-2.2.r1/../build/serialboot/bl2/stm32mp1_private.o
                0x000000002ffdd390                stm32mp_is_auth_supported
 .text.stm32_iwdg_get_instance
                0x000000002ffdd3d0       0x28 /home/charles/linux/code/tfa/mp157_alientek/tf-a-stm32mp-2.2.r1-r0/tf-a-stm32mp-2.2.r1/../build/serialboot/bl2/stm32mp1_private.o
                0x000000002ffdd3d0                stm32_iwdg_get_instance
 .text.stm32_iwdg_get_otp_config
                0x000000002ffdd3f8       0x50 /home/charles/linux/code/tfa/mp157_alientek/tf-a-stm32mp-2.2.r1-r0/tf-a-stm32mp-2.2.r1/../build/serialboot/bl2/stm32mp1_private.o
                0x000000002ffdd3f8                stm32_iwdg_get_otp_config
 .text.stm32_iwdg_shadow_update
                0x000000002ffdd448       0x74 /home/charles/linux/code/tfa/mp157_alientek/tf-a-stm32mp-2.2.r1-r0/tf-a-stm32mp-2.2.r1/../build/serialboot/bl2/stm32mp1_private.o
                0x000000002ffdd448                stm32_iwdg_shadow_update
 .text.plat_bind_regulator
                0x000000002ffdd4bc       0x50 /home/charles/linux/code/tfa/mp157_alientek/tf-a-stm32mp-2.2.r1-r0/tf-a-stm32mp-2.2.r1/../build/serialboot/bl2/stm32mp1_private.o
                0x000000002ffdd4bc                plat_bind_regulator
 .text.xlat_arch_get_max_supported_pa
                0x000000002ffdd50c        0x8 /home/charles/linux/code/tfa/mp157_alientek/tf-a-stm32mp-2.2.r1-r0/tf-a-stm32mp-2.2.r1/../build/serialboot/bl2/xlat_tables_arch.o
                0x000000002ffdd50c                xlat_arch_get_max_supported_pa
 .text.xlat_get_min_virt_addr_space_size
                0x000000002ffdd514        0x6 /home/charles/linux/code/tfa/mp157_alientek/tf-a-stm32mp-2.2.r1-r0/tf-a-stm32mp-2.2.r1/../build/serialboot/bl2/xlat_tables_arch.o
                0x000000002ffdd514                xlat_get_min_virt_addr_space_size
 .text.is_dcache_enabled
                0x000000002ffdd51a       0x1c /home/charles/linux/code/tfa/mp157_alientek/tf-a-stm32mp-2.2.r1-r0/tf-a-stm32mp-2.2.r1/../build/serialboot/bl2/xlat_tables_arch.o
                0x000000002ffdd51a                is_dcache_enabled
 *fill*         0x000000002ffdd536        0x2 
 .text.xlat_arch_regime_get_xn_desc
                0x000000002ffdd538       0x28 /home/charles/linux/code/tfa/mp157_alientek/tf-a-stm32mp-2.2.r1-r0/tf-a-stm32mp-2.2.r1/../build/serialboot/bl2/xlat_tables_arch.o
                0x000000002ffdd538                xlat_arch_regime_get_xn_desc
 .text.xlat_arch_tlbi_va
                0x000000002ffdd560       0x30 /home/charles/linux/code/tfa/mp157_alientek/tf-a-stm32mp-2.2.r1-r0/tf-a-stm32mp-2.2.r1/../build/serialboot/bl2/xlat_tables_arch.o
                0x000000002ffdd560                xlat_arch_tlbi_va
 .text.xlat_arch_tlbi_va_sync
                0x000000002ffdd590       0x10 /home/charles/linux/code/tfa/mp157_alientek/tf-a-stm32mp-2.2.r1-r0/tf-a-stm32mp-2.2.r1/../build/serialboot/bl2/xlat_tables_arch.o
                0x000000002ffdd590                xlat_arch_tlbi_va_sync
 .text.xlat_arch_current_el
                0x000000002ffdd5a0       0x3c /home/charles/linux/code/tfa/mp157_alientek/tf-a-stm32mp-2.2.r1-r0/tf-a-stm32mp-2.2.r1/../build/serialboot/bl2/xlat_tables_arch.o
                0x000000002ffdd5a0                xlat_arch_current_el
 .text.is_mmu_enabled_ctx
                0x000000002ffdd5dc       0x40 /home/charles/linux/code/tfa/mp157_alientek/tf-a-stm32mp-2.2.r1-r0/tf-a-stm32mp-2.2.r1/../build/serialboot/bl2/xlat_tables_arch.o
                0x000000002ffdd5dc                is_mmu_enabled_ctx
 .text.setup_mmu_cfg
                0x000000002ffdd61c       0xac /home/charles/linux/code/tfa/mp157_alientek/tf-a-stm32mp-2.2.r1-r0/tf-a-stm32mp-2.2.r1/../build/serialboot/bl2/xlat_tables_arch.o
                0x000000002ffdd61c                setup_mmu_cfg
 .text.mmap_add_region
                0x000000002ffdd6c8       0x28 /home/charles/linux/code/tfa/mp157_alientek/tf-a-stm32mp-2.2.r1-r0/tf-a-stm32mp-2.2.r1/../build/serialboot/bl2/xlat_tables_context.o
                0x000000002ffdd6c8                mmap_add_region
 .text.mmap_add
                0x000000002ffdd6f0        0xc /home/charles/linux/code/tfa/mp157_alientek/tf-a-stm32mp-2.2.r1-r0/tf-a-stm32mp-2.2.r1/../build/serialboot/bl2/xlat_tables_context.o
                0x000000002ffdd6f0                mmap_add
 .text.mmap_add_dynamic_region
                0x000000002ffdd6fc       0x28 /home/charles/linux/code/tfa/mp157_alientek/tf-a-stm32mp-2.2.r1-r0/tf-a-stm32mp-2.2.r1/../build/serialboot/bl2/xlat_tables_context.o
                0x000000002ffdd6fc                mmap_add_dynamic_region
 .text.mmap_remove_dynamic_region
                0x000000002ffdd724       0x10 /home/charles/linux/code/tfa/mp157_alientek/tf-a-stm32mp-2.2.r1-r0/tf-a-stm32mp-2.2.r1/../build/serialboot/bl2/xlat_tables_context.o
                0x000000002ffdd724                mmap_remove_dynamic_region
 .text.init_xlat_tables
                0x000000002ffdd734       0x3c /home/charles/linux/code/tfa/mp157_alientek/tf-a-stm32mp-2.2.r1-r0/tf-a-stm32mp-2.2.r1/../build/serialboot/bl2/xlat_tables_context.o
                0x000000002ffdd734                init_xlat_tables
 .text.enable_mmu_svc_mon
                0x000000002ffdd770       0x34 /home/charles/linux/code/tfa/mp157_alientek/tf-a-stm32mp-2.2.r1-r0/tf-a-stm32mp-2.2.r1/../build/serialboot/bl2/xlat_tables_context.o
                0x000000002ffdd770                enable_mmu_svc_mon
 .text.mmap_add_region_check
                0x000000002ffdd7a4      0x158 /home/charles/linux/code/tfa/mp157_alientek/tf-a-stm32mp-2.2.r1-r0/tf-a-stm32mp-2.2.r1/../build/serialboot/bl2/xlat_tables_core.o
 .text.xlat_clean_dcache_range
                0x000000002ffdd8fc       0x1a /home/charles/linux/code/tfa/mp157_alientek/tf-a-stm32mp-2.2.r1-r0/tf-a-stm32mp-2.2.r1/../build/serialboot/bl2/xlat_tables_core.o
 *fill*         0x000000002ffdd916        0x2 
 .text.xlat_table_get_index
                0x000000002ffdd918       0x28 /home/charles/linux/code/tfa/mp157_alientek/tf-a-stm32mp-2.2.r1-r0/tf-a-stm32mp-2.2.r1/../build/serialboot/bl2/xlat_tables_core.o
 .text.xlat_tables_unmap_region
                0x000000002ffdd940      0x158 /home/charles/linux/code/tfa/mp157_alientek/tf-a-stm32mp-2.2.r1-r0/tf-a-stm32mp-2.2.r1/../build/serialboot/bl2/xlat_tables_core.o
 .text.xlat_desc
                0x000000002ffdda98       0xb4 /home/charles/linux/code/tfa/mp157_alientek/tf-a-stm32mp-2.2.r1-r0/tf-a-stm32mp-2.2.r1/../build/serialboot/bl2/xlat_tables_core.o
                0x000000002ffdda98                xlat_desc
 .text.xlat_tables_map_region
                0x000000002ffddb4c      0x1b4 /home/charles/linux/code/tfa/mp157_alientek/tf-a-stm32mp-2.2.r1-r0/tf-a-stm32mp-2.2.r1/../build/serialboot/bl2/xlat_tables_core.o
 .text.mmap_add_region_ctx
                0x000000002ffddd00       0xf0 /home/charles/linux/code/tfa/mp157_alientek/tf-a-stm32mp-2.2.r1-r0/tf-a-stm32mp-2.2.r1/../build/serialboot/bl2/xlat_tables_core.o
                0x000000002ffddd00                mmap_add_region_ctx
 .text.mmap_add_ctx
                0x000000002ffdddf0       0x18 /home/charles/linux/code/tfa/mp157_alientek/tf-a-stm32mp-2.2.r1-r0/tf-a-stm32mp-2.2.r1/../build/serialboot/bl2/xlat_tables_core.o
                0x000000002ffdddf0                mmap_add_ctx
 .text.mmap_add_dynamic_region_ctx
                0x000000002ffdde08      0x168 /home/charles/linux/code/tfa/mp157_alientek/tf-a-stm32mp-2.2.r1-r0/tf-a-stm32mp-2.2.r1/../build/serialboot/bl2/xlat_tables_core.o
                0x000000002ffdde08                mmap_add_dynamic_region_ctx
 .text.mmap_remove_dynamic_region_ctx
                0x000000002ffddf70      0x10c /home/charles/linux/code/tfa/mp157_alientek/tf-a-stm32mp-2.2.r1-r0/tf-a-stm32mp-2.2.r1/../build/serialboot/bl2/xlat_tables_core.o
                0x000000002ffddf70                mmap_remove_dynamic_region_ctx
 .text.init_xlat_tables_ctx
                0x000000002ffde07c      0x154 /home/charles/linux/code/tfa/mp157_alientek/tf-a-stm32mp-2.2.r1-r0/tf-a-stm32mp-2.2.r1/../build/serialboot/bl2/xlat_tables_core.o
                0x000000002ffde07c                init_xlat_tables_ctx
 .text.xlat_mmap_print
                0x000000002ffde1d0        0x2 /home/charles/linux/code/tfa/mp157_alientek/tf-a-stm32mp-2.2.r1-r0/tf-a-stm32mp-2.2.r1/../build/serialboot/bl2/xlat_tables_utils.o
                0x000000002ffde1d0                xlat_mmap_print
 .text.xlat_tables_print
                0x000000002ffde1d2        0x2 /home/charles/linux/code/tfa/mp157_alientek/tf-a-stm32mp-2.2.r1-r0/tf-a-stm32mp-2.2.r1/../build/serialboot/bl2/xlat_tables_utils.o
                0x000000002ffde1d2                xlat_tables_print
 .text.tzc400_set_action
                0x000000002ffde1d4       0x24 /home/charles/linux/code/tfa/mp157_alientek/tf-a-stm32mp-2.2.r1-r0/tf-a-stm32mp-2.2.r1/../build/serialboot/bl2/tzc400.o
                0x000000002ffde1d4                tzc400_set_action
 .text.tzc400_init
                0x000000002ffde1f8       0x5c /home/charles/linux/code/tfa/mp157_alientek/tf-a-stm32mp-2.2.r1-r0/tf-a-stm32mp-2.2.r1/../build/serialboot/bl2/tzc400.o
                0x000000002ffde1f8                tzc400_init
 .text.tzc400_configure_region
                0x000000002ffde254       0xbc /home/charles/linux/code/tfa/mp157_alientek/tf-a-stm32mp-2.2.r1-r0/tf-a-stm32mp-2.2.r1/../build/serialboot/bl2/tzc400.o
                0x000000002ffde254                tzc400_configure_region
 .text.tzc400_enable_filters
                0x000000002ffde310       0x68 /home/charles/linux/code/tfa/mp157_alientek/tf-a-stm32mp-2.2.r1-r0/tf-a-stm32mp-2.2.r1/../build/serialboot/bl2/tzc400.o
                0x000000002ffde310                tzc400_enable_filters
 .text.tzc400_disable_filters
                0x000000002ffde378       0x4c /home/charles/linux/code/tfa/mp157_alientek/tf-a-stm32mp-2.2.r1-r0/tf-a-stm32mp-2.2.r1/../build/serialboot/bl2/tzc400.o
                0x000000002ffde378                tzc400_disable_filters
 .text.udelay   0x000000002ffde3c4       0x5c /home/charles/linux/code/tfa/mp157_alientek/tf-a-stm32mp-2.2.r1-r0/tf-a-stm32mp-2.2.r1/../build/serialboot/bl2/delay_timer.o
                0x000000002ffde3c4                udelay
 .text.mdelay   0x000000002ffde420        0xa /home/charles/linux/code/tfa/mp157_alientek/tf-a-stm32mp-2.2.r1-r0/tf-a-stm32mp-2.2.r1/../build/serialboot/bl2/delay_timer.o
                0x000000002ffde420                mdelay
 *fill*         0x000000002ffde42a        0x2 
 .text.timer_init
                0x000000002ffde42c       0x28 /home/charles/linux/code/tfa/mp157_alientek/tf-a-stm32mp-2.2.r1-r0/tf-a-stm32mp-2.2.r1/../build/serialboot/bl2/delay_timer.o
                0x000000002ffde42c                timer_init
 .text.get_timer_value
                0x000000002ffde454        0x8 /home/charles/linux/code/tfa/mp157_alientek/tf-a-stm32mp-2.2.r1-r0/tf-a-stm32mp-2.2.r1/../build/serialboot/bl2/generic_delay_timer.o
 .text.generic_delay_timer_init_args
                0x000000002ffde45c       0x18 /home/charles/linux/code/tfa/mp157_alientek/tf-a-stm32mp-2.2.r1-r0/tf-a-stm32mp-2.2.r1/../build/serialboot/bl2/generic_delay_timer.o
                0x000000002ffde45c                generic_delay_timer_init_args
 .text.generic_delay_timer_init
                0x000000002ffde474       0x44 /home/charles/linux/code/tfa/mp157_alientek/tf-a-stm32mp-2.2.r1-r0/tf-a-stm32mp-2.2.r1/../build/serialboot/bl2/generic_delay_timer.o
                0x000000002ffde474                generic_delay_timer_init
 .text.bsec_lock
                0x000000002ffde4b8       0x18 /home/charles/linux/code/tfa/mp157_alientek/tf-a-stm32mp-2.2.r1-r0/tf-a-stm32mp-2.2.r1/../build/serialboot/bl2/bsec2.o
 .text.bsec_unlock
                0x000000002ffde4d0       0x18 /home/charles/linux/code/tfa/mp157_alientek/tf-a-stm32mp-2.2.r1-r0/tf-a-stm32mp-2.2.r1/../build/serialboot/bl2/bsec2.o
 .text.otp_bank_offset
                0x000000002ffde4e8       0x18 /home/charles/linux/code/tfa/mp157_alientek/tf-a-stm32mp-2.2.r1-r0/tf-a-stm32mp-2.2.r1/../build/serialboot/bl2/bsec2.o
 .text.bsec_check_error
                0x000000002ffde500       0x34 /home/charles/linux/code/tfa/mp157_alientek/tf-a-stm32mp-2.2.r1-r0/tf-a-stm32mp-2.2.r1/../build/serialboot/bl2/bsec2.o
 .text.bsec_find_otp_name_in_dt
                0x000000002ffde534      0x104 /home/charles/linux/code/tfa/mp157_alientek/tf-a-stm32mp-2.2.r1-r0/tf-a-stm32mp-2.2.r1/../build/serialboot/bl2/bsec2.o
                0x000000002ffde534                bsec_find_otp_name_in_dt
 .text.bsec_read_otp
                0x000000002ffde638       0x20 /home/charles/linux/code/tfa/mp157_alientek/tf-a-stm32mp-2.2.r1-r0/tf-a-stm32mp-2.2.r1/../build/serialboot/bl2/bsec2.o
                0x000000002ffde638                bsec_read_otp
 .text.bsec_read_debug_conf
                0x000000002ffde658        0xc /home/charles/linux/code/tfa/mp157_alientek/tf-a-stm32mp-2.2.r1-r0/tf-a-stm32mp-2.2.r1/../build/serialboot/bl2/bsec2.o
                0x000000002ffde658                bsec_read_debug_conf
 .text.bsec_get_status
                0x000000002ffde664        0xc /home/charles/linux/code/tfa/mp157_alientek/tf-a-stm32mp-2.2.r1-r0/tf-a-stm32mp-2.2.r1/../build/serialboot/bl2/bsec2.o
                0x000000002ffde664                bsec_get_status
 .text.bsec_power_safmem
                0x000000002ffde670       0x64 /home/charles/linux/code/tfa/mp157_alientek/tf-a-stm32mp-2.2.r1-r0/tf-a-stm32mp-2.2.r1/../build/serialboot/bl2/bsec2.o
 .text.bsec_get_version
                0x000000002ffde6d4       0x10 /home/charles/linux/code/tfa/mp157_alientek/tf-a-stm32mp-2.2.r1-r0/tf-a-stm32mp-2.2.r1/../build/serialboot/bl2/bsec2.o
                0x000000002ffde6d4                bsec_get_version
 .text.bsec_get_id
                0x000000002ffde6e4       0x10 /home/charles/linux/code/tfa/mp157_alientek/tf-a-stm32mp-2.2.r1-r0/tf-a-stm32mp-2.2.r1/../build/serialboot/bl2/bsec2.o
                0x000000002ffde6e4                bsec_get_id
 .text.bsec_probe
                0x000000002ffde6f4       0x50 /home/charles/linux/code/tfa/mp157_alientek/tf-a-stm32mp-2.2.r1-r0/tf-a-stm32mp-2.2.r1/../build/serialboot/bl2/bsec2.o
                0x000000002ffde6f4                bsec_probe
 .text.bsec_set_sr_lock
                0x000000002ffde744       0x38 /home/charles/linux/code/tfa/mp157_alientek/tf-a-stm32mp-2.2.r1-r0/tf-a-stm32mp-2.2.r1/../build/serialboot/bl2/bsec2.o
                0x000000002ffde744                bsec_set_sr_lock
 .text.bsec_read_sr_lock
                0x000000002ffde77c       0x38 /home/charles/linux/code/tfa/mp157_alientek/tf-a-stm32mp-2.2.r1-r0/tf-a-stm32mp-2.2.r1/../build/serialboot/bl2/bsec2.o
                0x000000002ffde77c                bsec_read_sr_lock
 .text.bsec_shadow_register
                0x000000002ffde7b4       0x7c /home/charles/linux/code/tfa/mp157_alientek/tf-a-stm32mp-2.2.r1-r0/tf-a-stm32mp-2.2.r1/../build/serialboot/bl2/bsec2.o
                0x000000002ffde7b4                bsec_shadow_register
 .text.bsec_set_sw_lock
                0x000000002ffde830       0x38 /home/charles/linux/code/tfa/mp157_alientek/tf-a-stm32mp-2.2.r1-r0/tf-a-stm32mp-2.2.r1/../build/serialboot/bl2/bsec2.o
                0x000000002ffde830                bsec_set_sw_lock
 .text.bsec_read_sw_lock
                0x000000002ffde868       0x38 /home/charles/linux/code/tfa/mp157_alientek/tf-a-stm32mp-2.2.r1-r0/tf-a-stm32mp-2.2.r1/../build/serialboot/bl2/bsec2.o
                0x000000002ffde868                bsec_read_sw_lock
 .text.bsec_write_otp
                0x000000002ffde8a0       0x44 /home/charles/linux/code/tfa/mp157_alientek/tf-a-stm32mp-2.2.r1-r0/tf-a-stm32mp-2.2.r1/../build/serialboot/bl2/bsec2.o
                0x000000002ffde8a0                bsec_write_otp
 .text.bsec_read_sp_lock
                0x000000002ffde8e4       0x38 /home/charles/linux/code/tfa/mp157_alientek/tf-a-stm32mp-2.2.r1-r0/tf-a-stm32mp-2.2.r1/../build/serialboot/bl2/bsec2.o
                0x000000002ffde8e4                bsec_read_sp_lock
 .text.bsec_read_permanent_lock
                0x000000002ffde91c       0x38 /home/charles/linux/code/tfa/mp157_alientek/tf-a-stm32mp-2.2.r1-r0/tf-a-stm32mp-2.2.r1/../build/serialboot/bl2/bsec2.o
                0x000000002ffde91c                bsec_read_permanent_lock
 .text.bsec_program_otp
                0x000000002ffde954       0xe0 /home/charles/linux/code/tfa/mp157_alientek/tf-a-stm32mp-2.2.r1-r0/tf-a-stm32mp-2.2.r1/../build/serialboot/bl2/bsec2.o
                0x000000002ffde954                bsec_program_otp
 .text.bsec_shadow_read_otp
                0x000000002ffdea34       0x3c /home/charles/linux/code/tfa/mp157_alientek/tf-a-stm32mp-2.2.r1-r0/tf-a-stm32mp-2.2.r1/../build/serialboot/bl2/bsec2.o
                0x000000002ffdea34                bsec_shadow_read_otp
 .text.fdt_osc_read_freq
                0x000000002ffdea70       0xa0 /home/charles/linux/code/tfa/mp157_alientek/tf-a-stm32mp-2.2.r1-r0/tf-a-stm32mp-2.2.r1/../build/serialboot/bl2/stm32mp_clkfunc.o
                0x000000002ffdea70                fdt_osc_read_freq
 .text.fdt_osc_read_bool
                0x000000002ffdeb10       0x74 /home/charles/linux/code/tfa/mp157_alientek/tf-a-stm32mp-2.2.r1-r0/tf-a-stm32mp-2.2.r1/../build/serialboot/bl2/stm32mp_clkfunc.o
                0x000000002ffdeb10                fdt_osc_read_bool
 .text.fdt_osc_read_uint32_default
                0x000000002ffdeb84       0x74 /home/charles/linux/code/tfa/mp157_alientek/tf-a-stm32mp-2.2.r1-r0/tf-a-stm32mp-2.2.r1/../build/serialboot/bl2/stm32mp_clkfunc.o
                0x000000002ffdeb84                fdt_osc_read_uint32_default
 .text.fdt_get_rcc_node
                0x000000002ffdebf8        0xc /home/charles/linux/code/tfa/mp157_alientek/tf-a-stm32mp-2.2.r1-r0/tf-a-stm32mp-2.2.r1/../build/serialboot/bl2/stm32mp_clkfunc.o
                0x000000002ffdebf8                fdt_get_rcc_node
 .text.fdt_rcc_read_uint32_array
                0x000000002ffdec04       0x24 /home/charles/linux/code/tfa/mp157_alientek/tf-a-stm32mp-2.2.r1-r0/tf-a-stm32mp-2.2.r1/../build/serialboot/bl2/stm32mp_clkfunc.o
                0x000000002ffdec04                fdt_rcc_read_uint32_array
 .text.fdt_rcc_subnode_offset
                0x000000002ffdec28       0x30 /home/charles/linux/code/tfa/mp157_alientek/tf-a-stm32mp-2.2.r1-r0/tf-a-stm32mp-2.2.r1/../build/serialboot/bl2/stm32mp_clkfunc.o
                0x000000002ffdec28                fdt_rcc_subnode_offset
 .text.fdt_rcc_read_prop
                0x000000002ffdec58       0x30 /home/charles/linux/code/tfa/mp157_alientek/tf-a-stm32mp-2.2.r1-r0/tf-a-stm32mp-2.2.r1/../build/serialboot/bl2/stm32mp_clkfunc.o
                0x000000002ffdec58                fdt_rcc_read_prop
 .text.fdt_get_rcc_secure_status
                0x000000002ffdec88       0x18 /home/charles/linux/code/tfa/mp157_alientek/tf-a-stm32mp-2.2.r1-r0/tf-a-stm32mp-2.2.r1/../build/serialboot/bl2/stm32mp_clkfunc.o
                0x000000002ffdec88                fdt_get_rcc_secure_status
 .text.fdt_get_clock_id
                0x000000002ffdeca0       0x48 /home/charles/linux/code/tfa/mp157_alientek/tf-a-stm32mp-2.2.r1-r0/tf-a-stm32mp-2.2.r1/../build/serialboot/bl2/stm32mp_clkfunc.o
                0x000000002ffdeca0                fdt_get_clock_id
 .text.fdt_is_pll1_predefined
                0x000000002ffdece8       0x14 /home/charles/linux/code/tfa/mp157_alientek/tf-a-stm32mp-2.2.r1-r0/tf-a-stm32mp-2.2.r1/../build/serialboot/bl2/stm32mp_clkfunc.o
                0x000000002ffdece8                fdt_is_pll1_predefined
 .text.stm32mp_stgen_get_counter
                0x000000002ffdecfc       0x10 /home/charles/linux/code/tfa/mp157_alientek/tf-a-stm32mp-2.2.r1-r0/tf-a-stm32mp-2.2.r1/../build/serialboot/bl2/stm32mp_clkfunc.o
                0x000000002ffdecfc                stm32mp_stgen_get_counter
 .text.stm32mp_stgen_config
                0x000000002ffded0c       0x54 /home/charles/linux/code/tfa/mp157_alientek/tf-a-stm32mp-2.2.r1-r0/tf-a-stm32mp-2.2.r1/../build/serialboot/bl2/stm32mp_clkfunc.o
                0x000000002ffded0c                stm32mp_stgen_config
 .text.clock_is_always_on
                0x000000002ffded60       0x1c /home/charles/linux/code/tfa/mp157_alientek/tf-a-stm32mp-2.2.r1-r0/tf-a-stm32mp-2.2.r1/../build/serialboot/bl2/stm32mp1_clk.o
 .text.stm32mp1_read_pll_freq
                0x000000002ffded7c       0xb8 /home/charles/linux/code/tfa/mp157_alientek/tf-a-stm32mp-2.2.r1-r0/tf-a-stm32mp-2.2.r1/../build/serialboot/bl2/stm32mp1_clk.o
 .text.get_clock_rate
                0x000000002ffdee34      0x198 /home/charles/linux/code/tfa/mp157_alientek/tf-a-stm32mp-2.2.r1-r0/tf-a-stm32mp-2.2.r1/../build/serialboot/bl2/stm32mp1_clk.o
 .text.stm32mp1_pll_compute_pllxcfgr1
                0x000000002ffdefcc       0x8c /home/charles/linux/code/tfa/mp157_alientek/tf-a-stm32mp-2.2.r1-r0/tf-a-stm32mp-2.2.r1/../build/serialboot/bl2/stm32mp1_clk.o
 .text.stm32mp1_pll_start
                0x000000002ffdf058       0x24 /home/charles/linux/code/tfa/mp157_alientek/tf-a-stm32mp-2.2.r1-r0/tf-a-stm32mp-2.2.r1/../build/serialboot/bl2/stm32mp1_clk.o
 .text.stm32mp1_mco_csg
                0x000000002ffdf07c       0x3a /home/charles/linux/code/tfa/mp157_alientek/tf-a-stm32mp-2.2.r1-r0/tf-a-stm32mp-2.2.r1/../build/serialboot/bl2/stm32mp1_clk.o
 .text.stm32mp1_clk_lock
                0x000000002ffdf0b6       0x16 /home/charles/linux/code/tfa/mp157_alientek/tf-a-stm32mp-2.2.r1-r0/tf-a-stm32mp-2.2.r1/../build/serialboot/bl2/stm32mp1_clk.o
 .text.stm32mp1_clk_unlock
                0x000000002ffdf0cc       0x16 /home/charles/linux/code/tfa/mp157_alientek/tf-a-stm32mp-2.2.r1-r0/tf-a-stm32mp-2.2.r1/../build/serialboot/bl2/stm32mp1_clk.o
 *fill*         0x000000002ffdf0e2        0x2 
 .text.stm32mp1_pll_stop
                0x000000002ffdf0e4       0x80 /home/charles/linux/code/tfa/mp157_alientek/tf-a-stm32mp-2.2.r1-r0/tf-a-stm32mp-2.2.r1/../build/serialboot/bl2/stm32mp1_clk.o
 .text.__clk_enable
                0x000000002ffdf164       0x22 /home/charles/linux/code/tfa/mp157_alientek/tf-a-stm32mp-2.2.r1-r0/tf-a-stm32mp-2.2.r1/../build/serialboot/bl2/stm32mp1_clk.o
 .text.__clk_disable
                0x000000002ffdf186       0x24 /home/charles/linux/code/tfa/mp157_alientek/tf-a-stm32mp-2.2.r1-r0/tf-a-stm32mp-2.2.r1/../build/serialboot/bl2/stm32mp1_clk.o
 *fill*         0x000000002ffdf1aa        0x2 
 .text.stm32mp1_check_pll_conf
                0x000000002ffdf1ac      0x114 /home/charles/linux/code/tfa/mp157_alientek/tf-a-stm32mp-2.2.r1-r0/tf-a-stm32mp-2.2.r1/../build/serialboot/bl2/stm32mp1_clk.o
 .text.stm32mp1_clk_get_gated_id
                0x000000002ffdf2c0       0x34 /home/charles/linux/code/tfa/mp157_alientek/tf-a-stm32mp-2.2.r1-r0/tf-a-stm32mp-2.2.r1/../build/serialboot/bl2/stm32mp1_clk.o
 .text.stm32mp1_clk_get_parent
                0x000000002ffdf2f4       0x78 /home/charles/linux/code/tfa/mp157_alientek/tf-a-stm32mp-2.2.r1-r0/tf-a-stm32mp-2.2.r1/../build/serialboot/bl2/stm32mp1_clk.o
 .text.__stm32mp1_clk_enable
                0x000000002ffdf36c       0x78 /home/charles/linux/code/tfa/mp157_alientek/tf-a-stm32mp-2.2.r1-r0/tf-a-stm32mp-2.2.r1/../build/serialboot/bl2/stm32mp1_clk.o
 .text.__stm32mp1_clk_disable
                0x000000002ffdf3e4       0x74 /home/charles/linux/code/tfa/mp157_alientek/tf-a-stm32mp-2.2.r1-r0/tf-a-stm32mp-2.2.r1/../build/serialboot/bl2/stm32mp1_clk.o
 .text.stm32mp1_pkcs_config
                0x000000002ffdf458       0x26 /home/charles/linux/code/tfa/mp157_alientek/tf-a-stm32mp-2.2.r1-r0/tf-a-stm32mp-2.2.r1/../build/serialboot/bl2/stm32mp1_clk.o
 *fill*         0x000000002ffdf47e        0x2 
 .text.stm32mp1_set_clkdiv
                0x000000002ffdf480       0x6c /home/charles/linux/code/tfa/mp157_alientek/tf-a-stm32mp-2.2.r1-r0/tf-a-stm32mp-2.2.r1/../build/serialboot/bl2/stm32mp1_clk.o
 .text.stm32mp1_osc_wait
                0x000000002ffdf4ec       0x84 /home/charles/linux/code/tfa/mp157_alientek/tf-a-stm32mp-2.2.r1-r0/tf-a-stm32mp-2.2.r1/../build/serialboot/bl2/stm32mp1_clk.o
 .text.stm32mp1_set_clksrc
                0x000000002ffdf570       0x80 /home/charles/linux/code/tfa/mp157_alientek/tf-a-stm32mp-2.2.r1-r0/tf-a-stm32mp-2.2.r1/../build/serialboot/bl2/stm32mp1_clk.o
 .text.stm32mp1_pll_output
                0x000000002ffdf5f0       0x88 /home/charles/linux/code/tfa/mp157_alientek/tf-a-stm32mp-2.2.r1-r0/tf-a-stm32mp-2.2.r1/../build/serialboot/bl2/stm32mp1_clk.o
 .text.stm32mp1_pll_config_output
                0x000000002ffdf678       0x34 /home/charles/linux/code/tfa/mp157_alientek/tf-a-stm32mp-2.2.r1-r0/tf-a-stm32mp-2.2.r1/../build/serialboot/bl2/stm32mp1_clk.o
 .text.stm32mp1_pll_config
                0x000000002ffdf6ac       0x50 /home/charles/linux/code/tfa/mp157_alientek/tf-a-stm32mp-2.2.r1-r0/tf-a-stm32mp-2.2.r1/../build/serialboot/bl2/stm32mp1_clk.o
 .text.stm32mp1_clk_rcc_regs_lock
                0x000000002ffdf6fc        0xc /home/charles/linux/code/tfa/mp157_alientek/tf-a-stm32mp-2.2.r1-r0/tf-a-stm32mp-2.2.r1/../build/serialboot/bl2/stm32mp1_clk.o
                0x000000002ffdf6fc                stm32mp1_clk_rcc_regs_lock
 .text.stm32mp1_clk_rcc_regs_unlock
                0x000000002ffdf708        0xc /home/charles/linux/code/tfa/mp157_alientek/tf-a-stm32mp-2.2.r1-r0/tf-a-stm32mp-2.2.r1/../build/serialboot/bl2/stm32mp1_clk.o
                0x000000002ffdf708                stm32mp1_clk_rcc_regs_unlock
 .text.stm32mp_clk_enable
                0x000000002ffdf714        0x6 /home/charles/linux/code/tfa/mp157_alientek/tf-a-stm32mp-2.2.r1-r0/tf-a-stm32mp-2.2.r1/../build/serialboot/bl2/stm32mp1_clk.o
                0x000000002ffdf714                stm32mp_clk_enable
 .text.stm32mp_clk_disable
                0x000000002ffdf71a        0x6 /home/charles/linux/code/tfa/mp157_alientek/tf-a-stm32mp-2.2.r1-r0/tf-a-stm32mp-2.2.r1/../build/serialboot/bl2/stm32mp1_clk.o
                0x000000002ffdf71a                stm32mp_clk_disable
 .text.stm32mp1_clk_force_enable
                0x000000002ffdf720        0x6 /home/charles/linux/code/tfa/mp157_alientek/tf-a-stm32mp-2.2.r1-r0/tf-a-stm32mp-2.2.r1/../build/serialboot/bl2/stm32mp1_clk.o
                0x000000002ffdf720                stm32mp1_clk_force_enable
 .text.stm32mp_clk_get_rate
                0x000000002ffdf726       0x16 /home/charles/linux/code/tfa/mp157_alientek/tf-a-stm32mp-2.2.r1-r0/tf-a-stm32mp-2.2.r1/../build/serialboot/bl2/stm32mp1_clk.o
                0x000000002ffdf726                stm32mp_clk_get_rate
 *fill*         0x000000002ffdf73c        0x4 
 .text.clk_get_pll1_settings.part.0
                0x000000002ffdf740      0x21c /home/charles/linux/code/tfa/mp157_alientek/tf-a-stm32mp-2.2.r1-r0/tf-a-stm32mp-2.2.r1/../build/serialboot/bl2/stm32mp1_clk.o
 .text.stm32mp1_clk_get_maxfreq_opp
                0x000000002ffdf95c       0x54 /home/charles/linux/code/tfa/mp157_alientek/tf-a-stm32mp-2.2.r1-r0/tf-a-stm32mp-2.2.r1/../build/serialboot/bl2/stm32mp1_clk.o
                0x000000002ffdf95c                stm32mp1_clk_get_maxfreq_opp
 .text.stm32mp1_clk_lp_load_opp_pll1_settings
                0x000000002ffdf9b0       0x20 /home/charles/linux/code/tfa/mp157_alientek/tf-a-stm32mp-2.2.r1-r0/tf-a-stm32mp-2.2.r1/../build/serialboot/bl2/stm32mp1_clk.o
                0x000000002ffdf9b0                stm32mp1_clk_lp_load_opp_pll1_settings
 .text.stm32mp1_clk_init
                0x000000002ffdf9d0      0x6b0 /home/charles/linux/code/tfa/mp157_alientek/tf-a-stm32mp-2.2.r1-r0/tf-a-stm32mp-2.2.r1/../build/serialboot/bl2/stm32mp1_clk.o
                0x000000002ffdf9d0                stm32mp1_clk_init
 .text.stm32mp1_clk_probe
                0x000000002ffe0080       0xa4 /home/charles/linux/code/tfa/mp157_alientek/tf-a-stm32mp-2.2.r1-r0/tf-a-stm32mp-2.2.r1/../build/serialboot/bl2/stm32mp1_clk.o
                0x000000002ffe0080                stm32mp1_clk_probe
 .text.ddr_enable_clock
                0x000000002ffe0124       0x22 /home/charles/linux/code/tfa/mp157_alientek/tf-a-stm32mp-2.2.r1-r0/tf-a-stm32mp-2.2.r1/../build/serialboot/bl2/stm32mp1_ddr_helpers.o
                0x000000002ffe0124                ddr_enable_clock
 *fill*         0x000000002ffe0146        0x2 
 .text.ddr_read_sr_mode
                0x000000002ffe0148       0x18 /home/charles/linux/code/tfa/mp157_alientek/tf-a-stm32mp-2.2.r1-r0/tf-a-stm32mp-2.2.r1/../build/serialboot/bl2/stm32mp1_ddr_helpers.o
                0x000000002ffe0148                ddr_read_sr_mode
 .text.ddr_set_sr_mode
                0x000000002ffe0160      0x1cc /home/charles/linux/code/tfa/mp157_alientek/tf-a-stm32mp-2.2.r1-r0/tf-a-stm32mp-2.2.r1/../build/serialboot/bl2/stm32mp1_ddr_helpers.o
                0x000000002ffe0160                ddr_set_sr_mode
 .text.fdt32_to_cpu
                0x000000002ffe032c        0x4 /home/charles/linux/code/tfa/mp157_alientek/tf-a-stm32mp-2.2.r1-r0/tf-a-stm32mp-2.2.r1/../build/serialboot/bl2/stm32_gpio.o
 .text.set_gpio
                0x000000002ffe0330       0xdc /home/charles/linux/code/tfa/mp157_alientek/tf-a-stm32mp-2.2.r1-r0/tf-a-stm32mp-2.2.r1/../build/serialboot/bl2/stm32_gpio.o
                0x000000002ffe0330                set_gpio
 .text.dt_set_pinctrl_config
                0x000000002ffe040c      0x204 /home/charles/linux/code/tfa/mp157_alientek/tf-a-stm32mp-2.2.r1-r0/tf-a-stm32mp-2.2.r1/../build/serialboot/bl2/stm32_gpio.o
                0x000000002ffe040c                dt_set_pinctrl_config
 .text.i2c_transfer_config.isra.0
                0x000000002ffe0610       0x2c /home/charles/linux/code/tfa/mp157_alientek/tf-a-stm32mp-2.2.r1-r0/tf-a-stm32mp-2.2.r1/../build/serialboot/bl2/stm32_i2c.o
 .text.i2c_wait_flag
                0x000000002ffe063c       0x44 /home/charles/linux/code/tfa/mp157_alientek/tf-a-stm32mp-2.2.r1-r0/tf-a-stm32mp-2.2.r1/../build/serialboot/bl2/stm32_i2c.o
 .text.i2c_ack_failed
                0x000000002ffe0680       0x90 /home/charles/linux/code/tfa/mp157_alientek/tf-a-stm32mp-2.2.r1-r0/tf-a-stm32mp-2.2.r1/../build/serialboot/bl2/stm32_i2c.o
 .text.i2c_wait_txis
                0x000000002ffe0710       0x42 /home/charles/linux/code/tfa/mp157_alientek/tf-a-stm32mp-2.2.r1-r0/tf-a-stm32mp-2.2.r1/../build/serialboot/bl2/stm32_i2c.o
 .text.i2c_wait_stop
                0x000000002ffe0752       0x42 /home/charles/linux/code/tfa/mp157_alientek/tf-a-stm32mp-2.2.r1-r0/tf-a-stm32mp-2.2.r1/../build/serialboot/bl2/stm32_i2c.o
 .text.i2c_write
                0x000000002ffe0794      0x218 /home/charles/linux/code/tfa/mp157_alientek/tf-a-stm32mp-2.2.r1-r0/tf-a-stm32mp-2.2.r1/../build/serialboot/bl2/stm32_i2c.o
 .text.i2c_read.isra.0
                0x000000002ffe09ac      0x1ec /home/charles/linux/code/tfa/mp157_alientek/tf-a-stm32mp-2.2.r1-r0/tf-a-stm32mp-2.2.r1/../build/serialboot/bl2/stm32_i2c.o
 .text.stm32_i2c_get_setup_from_fdt
                0x000000002ffe0b98       0x60 /home/charles/linux/code/tfa/mp157_alientek/tf-a-stm32mp-2.2.r1-r0/tf-a-stm32mp-2.2.r1/../build/serialboot/bl2/stm32_i2c.o
                0x000000002ffe0b98                stm32_i2c_get_setup_from_fdt
 .text.stm32_i2c_init
                0x000000002ffe0bf8      0x450 /home/charles/linux/code/tfa/mp157_alientek/tf-a-stm32mp-2.2.r1-r0/tf-a-stm32mp-2.2.r1/../build/serialboot/bl2/stm32_i2c.o
                0x000000002ffe0bf8                stm32_i2c_init
 .text.stm32_i2c_mem_write
                0x000000002ffe1048       0x1c /home/charles/linux/code/tfa/mp157_alientek/tf-a-stm32mp-2.2.r1-r0/tf-a-stm32mp-2.2.r1/../build/serialboot/bl2/stm32_i2c.o
                0x000000002ffe1048                stm32_i2c_mem_write
 .text.stm32_i2c_mem_read
                0x000000002ffe1064       0x12 /home/charles/linux/code/tfa/mp157_alientek/tf-a-stm32mp-2.2.r1-r0/tf-a-stm32mp-2.2.r1/../build/serialboot/bl2/stm32_i2c.o
                0x000000002ffe1064                stm32_i2c_mem_read
 *fill*         0x000000002ffe1076        0x2 
 .text.stm32_i2c_is_device_ready
                0x000000002ffe1078      0x148 /home/charles/linux/code/tfa/mp157_alientek/tf-a-stm32mp-2.2.r1-r0/tf-a-stm32mp-2.2.r1/../build/serialboot/bl2/stm32_i2c.o
                0x000000002ffe1078                stm32_i2c_is_device_ready
 .text.stm32_iwdg_refresh
                0x000000002ffe11c0       0x40 /home/charles/linux/code/tfa/mp157_alientek/tf-a-stm32mp-2.2.r1-r0/tf-a-stm32mp-2.2.r1/../build/serialboot/bl2/stm32_iwdg.o
                0x000000002ffe11c0                stm32_iwdg_refresh
 .text.stm32_iwdg_init
                0x000000002ffe1200      0x114 /home/charles/linux/code/tfa/mp157_alientek/tf-a-stm32mp-2.2.r1-r0/tf-a-stm32mp-2.2.r1/../build/serialboot/bl2/stm32_iwdg.o
                0x000000002ffe1200                stm32_iwdg_init
 .text.dt_get_pmic_node
                0x000000002ffe1314       0x20 /home/charles/linux/code/tfa/mp157_alientek/tf-a-stm32mp-2.2.r1-r0/tf-a-stm32mp-2.2.r1/../build/serialboot/bl2/stm32mp_pmic.o
 .text.pmic_regulator_enable
                0x000000002ffe1334       0x2e /home/charles/linux/code/tfa/mp157_alientek/tf-a-stm32mp-2.2.r1-r0/tf-a-stm32mp-2.2.r1/../build/serialboot/bl2/stm32mp_pmic.o
 .text.pmic_regulator_disable
                0x000000002ffe1362       0x2e /home/charles/linux/code/tfa/mp157_alientek/tf-a-stm32mp-2.2.r1-r0/tf-a-stm32mp-2.2.r1/../build/serialboot/bl2/stm32mp_pmic.o
 .text.dt_pmic_get_regulator_voltage
                0x000000002ffe1390       0x84 /home/charles/linux/code/tfa/mp157_alientek/tf-a-stm32mp-2.2.r1-r0/tf-a-stm32mp-2.2.r1/../build/serialboot/bl2/stm32mp_pmic.o
 .text.pmic_operate
                0x000000002ffe1414      0x17c /home/charles/linux/code/tfa/mp157_alientek/tf-a-stm32mp-2.2.r1-r0/tf-a-stm32mp-2.2.r1/../build/serialboot/bl2/stm32mp_pmic.o
 .text.dt_pmic_status
                0x000000002ffe1590       0x28 /home/charles/linux/code/tfa/mp157_alientek/tf-a-stm32mp-2.2.r1-r0/tf-a-stm32mp-2.2.r1/../build/serialboot/bl2/stm32mp_pmic.o
                0x000000002ffe1590                dt_pmic_status
 .text.pmic_configure_boot_on_regulators
                0x000000002ffe15b8        0xa /home/charles/linux/code/tfa/mp157_alientek/tf-a-stm32mp-2.2.r1-r0/tf-a-stm32mp-2.2.r1/../build/serialboot/bl2/stm32mp_pmic.o
                0x000000002ffe15b8                pmic_configure_boot_on_regulators
 *fill*         0x000000002ffe15c2        0x2 
 .text.dt_pmic_find_supply
                0x000000002ffe15c4       0x7c /home/charles/linux/code/tfa/mp157_alientek/tf-a-stm32mp-2.2.r1-r0/tf-a-stm32mp-2.2.r1/../build/serialboot/bl2/stm32mp_pmic.o
                0x000000002ffe15c4                dt_pmic_find_supply
 .text.initialize_pmic_i2c
                0x000000002ffe1640      0x118 /home/charles/linux/code/tfa/mp157_alientek/tf-a-stm32mp-2.2.r1-r0/tf-a-stm32mp-2.2.r1/../build/serialboot/bl2/stm32mp_pmic.o
                0x000000002ffe1640                initialize_pmic_i2c
 .text.is_pmic_regulator
                0x000000002ffe1758       0x38 /home/charles/linux/code/tfa/mp157_alientek/tf-a-stm32mp-2.2.r1-r0/tf-a-stm32mp-2.2.r1/../build/serialboot/bl2/stm32mp_pmic.o
                0x000000002ffe1758                is_pmic_regulator
 .text.bind_pmic_regulator
                0x000000002ffe1790        0xc /home/charles/linux/code/tfa/mp157_alientek/tf-a-stm32mp-2.2.r1-r0/tf-a-stm32mp-2.2.r1/../build/serialboot/bl2/stm32mp_pmic.o
                0x000000002ffe1790                bind_pmic_regulator
 .text.initialize_pmic
                0x000000002ffe179c       0x12 /home/charles/linux/code/tfa/mp157_alientek/tf-a-stm32mp-2.2.r1-r0/tf-a-stm32mp-2.2.r1/../build/serialboot/bl2/stm32mp_pmic.o
                0x000000002ffe179c                initialize_pmic
 .text.configure_pmic
                0x000000002ffe17ae       0x14 /home/charles/linux/code/tfa/mp157_alientek/tf-a-stm32mp-2.2.r1-r0/tf-a-stm32mp-2.2.r1/../build/serialboot/bl2/stm32mp_pmic.o
                0x000000002ffe17ae                configure_pmic
 *fill*         0x000000002ffe17c2        0x2 
 .text.print_pmic_info_and_debug
                0x000000002ffe17c4       0x34 /home/charles/linux/code/tfa/mp157_alientek/tf-a-stm32mp-2.2.r1-r0/tf-a-stm32mp-2.2.r1/../build/serialboot/bl2/stm32mp_pmic.o
                0x000000002ffe17c4                print_pmic_info_and_debug
 .text.pmic_ddr_power_init
                0x000000002ffe17f8      0x150 /home/charles/linux/code/tfa/mp157_alientek/tf-a-stm32mp-2.2.r1-r0/tf-a-stm32mp-2.2.r1/../build/serialboot/bl2/stm32mp_pmic.o
                0x000000002ffe17f8                pmic_ddr_power_init
 .text.get_regulator_data
                0x000000002ffe1948       0x3c /home/charles/linux/code/tfa/mp157_alientek/tf-a-stm32mp-2.2.r1-r0/tf-a-stm32mp-2.2.r1/../build/serialboot/bl2/stpmic1.o
 .text.voltage_to_index
                0x000000002ffe1984       0x2a /home/charles/linux/code/tfa/mp157_alientek/tf-a-stm32mp-2.2.r1-r0/tf-a-stm32mp-2.2.r1/../build/serialboot/bl2/stpmic1.o
 *fill*         0x000000002ffe19ae        0x2 
 .text.stpmic1_register_read
                0x000000002ffe19b0       0x28 /home/charles/linux/code/tfa/mp157_alientek/tf-a-stm32mp-2.2.r1-r0/tf-a-stm32mp-2.2.r1/../build/serialboot/bl2/stpmic1.o
                0x000000002ffe19b0                stpmic1_register_read
 .text.stpmic1_is_regulator_enabled
                0x000000002ffe19d8       0x28 /home/charles/linux/code/tfa/mp157_alientek/tf-a-stm32mp-2.2.r1-r0/tf-a-stm32mp-2.2.r1/../build/serialboot/bl2/stpmic1.o
                0x000000002ffe19d8                stpmic1_is_regulator_enabled
 .text.stpmic1_regulator_voltage_get
                0x000000002ffe1a00       0x74 /home/charles/linux/code/tfa/mp157_alientek/tf-a-stm32mp-2.2.r1-r0/tf-a-stm32mp-2.2.r1/../build/serialboot/bl2/stpmic1.o
                0x000000002ffe1a00                stpmic1_regulator_voltage_get
 .text.stpmic1_register_write
                0x000000002ffe1a74       0x58 /home/charles/linux/code/tfa/mp157_alientek/tf-a-stm32mp-2.2.r1-r0/tf-a-stm32mp-2.2.r1/../build/serialboot/bl2/stpmic1.o
                0x000000002ffe1a74                stpmic1_register_write
 .text.stpmic1_register_update
                0x000000002ffe1acc       0x2e /home/charles/linux/code/tfa/mp157_alientek/tf-a-stm32mp-2.2.r1-r0/tf-a-stm32mp-2.2.r1/../build/serialboot/bl2/stpmic1.o
                0x000000002ffe1acc                stpmic1_register_update
 .text.stpmic1_regulator_enable
                0x000000002ffe1afa       0x14 /home/charles/linux/code/tfa/mp157_alientek/tf-a-stm32mp-2.2.r1-r0/tf-a-stm32mp-2.2.r1/../build/serialboot/bl2/stpmic1.o
                0x000000002ffe1afa                stpmic1_regulator_enable
 .text.stpmic1_regulator_disable
                0x000000002ffe1b0e       0x14 /home/charles/linux/code/tfa/mp157_alientek/tf-a-stm32mp-2.2.r1-r0/tf-a-stm32mp-2.2.r1/../build/serialboot/bl2/stpmic1.o
                0x000000002ffe1b0e                stpmic1_regulator_disable
 *fill*         0x000000002ffe1b22        0x2 
 .text.stpmic1_regulator_voltage_set
                0x000000002ffe1b24       0x5c /home/charles/linux/code/tfa/mp157_alientek/tf-a-stm32mp-2.2.r1-r0/tf-a-stm32mp-2.2.r1/../build/serialboot/bl2/stpmic1.o
                0x000000002ffe1b24                stpmic1_regulator_voltage_set
 .text.stpmic1_regulator_pull_down_set
                0x000000002ffe1b80       0x24 /home/charles/linux/code/tfa/mp157_alientek/tf-a-stm32mp-2.2.r1-r0/tf-a-stm32mp-2.2.r1/../build/serialboot/bl2/stpmic1.o
                0x000000002ffe1b80                stpmic1_regulator_pull_down_set
 .text.stpmic1_regulator_mask_reset_set
                0x000000002ffe1ba4       0x1a /home/charles/linux/code/tfa/mp157_alientek/tf-a-stm32mp-2.2.r1-r0/tf-a-stm32mp-2.2.r1/../build/serialboot/bl2/stpmic1.o
                0x000000002ffe1ba4                stpmic1_regulator_mask_reset_set
 *fill*         0x000000002ffe1bbe        0x2 
 .text.stpmic1_bind_i2c
                0x000000002ffe1bc0       0x14 /home/charles/linux/code/tfa/mp157_alientek/tf-a-stm32mp-2.2.r1-r0/tf-a-stm32mp-2.2.r1/../build/serialboot/bl2/stpmic1.o
                0x000000002ffe1bc0                stpmic1_bind_i2c
 .text.stpmic1_dump_regulators
                0x000000002ffe1bd4        0x2 /home/charles/linux/code/tfa/mp157_alientek/tf-a-stm32mp-2.2.r1-r0/tf-a-stm32mp-2.2.r1/../build/serialboot/bl2/stpmic1.o
                0x000000002ffe1bd4                stpmic1_dump_regulators
 .text.stpmic1_get_version
                0x000000002ffe1bd6       0x1e /home/charles/linux/code/tfa/mp157_alientek/tf-a-stm32mp-2.2.r1-r0/tf-a-stm32mp-2.2.r1/../build/serialboot/bl2/stpmic1.o
                0x000000002ffe1bd6                stpmic1_get_version
 .text.dummy_regulator_enable
                0x000000002ffe1bf4        0x4 /home/charles/linux/code/tfa/mp157_alientek/tf-a-stm32mp-2.2.r1-r0/tf-a-stm32mp-2.2.r1/../build/serialboot/bl2/stm32mp_dummy_regulator.o
 .text.dummy_regulator_disable
                0x000000002ffe1bf8        0x4 /home/charles/linux/code/tfa/mp157_alientek/tf-a-stm32mp-2.2.r1-r0/tf-a-stm32mp-2.2.r1/../build/serialboot/bl2/stm32mp_dummy_regulator.o
 .text.bind_dummy_regulator
                0x000000002ffe1bfc        0xc /home/charles/linux/code/tfa/mp157_alientek/tf-a-stm32mp-2.2.r1-r0/tf-a-stm32mp-2.2.r1/../build/serialboot/bl2/stm32mp_dummy_regulator.o
                0x000000002ffe1bfc                bind_dummy_regulator
 .text.stm32mp_regulator_enable
                0x000000002ffe1c08       0x1c /home/charles/linux/code/tfa/mp157_alientek/tf-a-stm32mp-2.2.r1-r0/tf-a-stm32mp-2.2.r1/../build/serialboot/bl2/stm32mp_regulator.o
                0x000000002ffe1c08                stm32mp_regulator_enable
 .text.stm32mp_regulator_disable
                0x000000002ffe1c24       0x24 /home/charles/linux/code/tfa/mp157_alientek/tf-a-stm32mp-2.2.r1-r0/tf-a-stm32mp-2.2.r1/../build/serialboot/bl2/stm32mp_regulator.o
                0x000000002ffe1c24                stm32mp_regulator_disable
 .text.stm32mp_regulator_register
                0x000000002ffe1c48        0x4 /home/charles/linux/code/tfa/mp157_alientek/tf-a-stm32mp-2.2.r1-r0/tf-a-stm32mp-2.2.r1/../build/serialboot/bl2/stm32mp_regulator.o
                0x000000002ffe1c48                stm32mp_regulator_register
 .text.stm32mp_reset_assert_to
                0x000000002ffe1c4c       0x70 /home/charles/linux/code/tfa/mp157_alientek/tf-a-stm32mp-2.2.r1-r0/tf-a-stm32mp-2.2.r1/../build/serialboot/bl2/stm32mp1_reset.o
                0x000000002ffe1c4c                stm32mp_reset_assert_to
 .text.stm32mp_reset_deassert_to
                0x000000002ffe1cbc       0x74 /home/charles/linux/code/tfa/mp157_alientek/tf-a-stm32mp-2.2.r1-r0/tf-a-stm32mp-2.2.r1/../build/serialboot/bl2/stm32mp1_reset.o
                0x000000002ffe1cbc                stm32mp_reset_deassert_to
 .text.fdt32_to_cpu
                0x000000002ffe1d30        0x4 /home/charles/linux/code/tfa/mp157_alientek/tf-a-stm32mp-2.2.r1-r0/tf-a-stm32mp-2.2.r1/../build/serialboot/bl2/stm32mp_dt.o
 .text.fdt_get_node_parent_address_cells
                0x000000002ffe1d34       0x24 /home/charles/linux/code/tfa/mp157_alientek/tf-a-stm32mp-2.2.r1-r0/tf-a-stm32mp-2.2.r1/../build/serialboot/bl2/stm32mp_dt.o
 .text.dt_get_stdout_node_offset
                0x000000002ffe1d58       0x7c /home/charles/linux/code/tfa/mp157_alientek/tf-a-stm32mp-2.2.r1-r0/tf-a-stm32mp-2.2.r1/../build/serialboot/bl2/stm32mp_dt.o
 .text.dt_get_opp_freqvolt_from_subnode
                0x000000002ffe1dd4       0xcc /home/charles/linux/code/tfa/mp157_alientek/tf-a-stm32mp-2.2.r1-r0/tf-a-stm32mp-2.2.r1/../build/serialboot/bl2/stm32mp_dt.o
 .text.dt_open_and_check
                0x000000002ffe1ea0       0x1c /home/charles/linux/code/tfa/mp157_alientek/tf-a-stm32mp-2.2.r1-r0/tf-a-stm32mp-2.2.r1/../build/serialboot/bl2/stm32mp_dt.o
                0x000000002ffe1ea0                dt_open_and_check
 .text.fdt_get_address
                0x000000002ffe1ebc       0x18 /home/charles/linux/code/tfa/mp157_alientek/tf-a-stm32mp-2.2.r1-r0/tf-a-stm32mp-2.2.r1/../build/serialboot/bl2/stm32mp_dt.o
                0x000000002ffe1ebc                fdt_get_address
 .text.fdt_check_node
                0x000000002ffe1ed4       0x20 /home/charles/linux/code/tfa/mp157_alientek/tf-a-stm32mp-2.2.r1-r0/tf-a-stm32mp-2.2.r1/../build/serialboot/bl2/stm32mp_dt.o
                0x000000002ffe1ed4                fdt_check_node
 .text.fdt_get_status
                0x000000002ffe1ef4       0x64 /home/charles/linux/code/tfa/mp157_alientek/tf-a-stm32mp-2.2.r1-r0/tf-a-stm32mp-2.2.r1/../build/serialboot/bl2/stm32mp_dt.o
                0x000000002ffe1ef4                fdt_get_status
 .text.fdt_read_uint32_default
                0x000000002ffe1f58       0x28 /home/charles/linux/code/tfa/mp157_alientek/tf-a-stm32mp-2.2.r1-r0/tf-a-stm32mp-2.2.r1/../build/serialboot/bl2/stm32mp_dt.o
                0x000000002ffe1f58                fdt_read_uint32_default
 .text.fdt_read_uint32_array
                0x000000002ffe1f80       0x50 /home/charles/linux/code/tfa/mp157_alientek/tf-a-stm32mp-2.2.r1-r0/tf-a-stm32mp-2.2.r1/../build/serialboot/bl2/stm32mp_dt.o
                0x000000002ffe1f80                fdt_read_uint32_array
 .text.fdt_get_reg_props_by_name
                0x000000002ffe1fd0       0x98 /home/charles/linux/code/tfa/mp157_alientek/tf-a-stm32mp-2.2.r1-r0/tf-a-stm32mp-2.2.r1/../build/serialboot/bl2/stm32mp_dt.o
                0x000000002ffe1fd0                fdt_get_reg_props_by_name
 .text.dt_set_stdout_pinctrl
                0x000000002ffe2068       0x18 /home/charles/linux/code/tfa/mp157_alientek/tf-a-stm32mp-2.2.r1-r0/tf-a-stm32mp-2.2.r1/../build/serialboot/bl2/stm32mp_dt.o
                0x000000002ffe2068                dt_set_stdout_pinctrl
 .text.dt_fill_device_info
                0x000000002ffe2080       0x88 /home/charles/linux/code/tfa/mp157_alientek/tf-a-stm32mp-2.2.r1-r0/tf-a-stm32mp-2.2.r1/../build/serialboot/bl2/stm32mp_dt.o
                0x000000002ffe2080                dt_fill_device_info
 .text.dt_get_node
                0x000000002ffe2108       0x24 /home/charles/linux/code/tfa/mp157_alientek/tf-a-stm32mp-2.2.r1-r0/tf-a-stm32mp-2.2.r1/../build/serialboot/bl2/stm32mp_dt.o
                0x000000002ffe2108                dt_get_node
 .text.dt_get_stdout_uart_info
                0x000000002ffe212c       0x1e /home/charles/linux/code/tfa/mp157_alientek/tf-a-stm32mp-2.2.r1-r0/tf-a-stm32mp-2.2.r1/../build/serialboot/bl2/stm32mp_dt.o
                0x000000002ffe212c                dt_get_stdout_uart_info
 *fill*         0x000000002ffe214a        0x2 
 .text.dt_get_node_by_compatible
                0x000000002ffe214c       0x28 /home/charles/linux/code/tfa/mp157_alientek/tf-a-stm32mp-2.2.r1-r0/tf-a-stm32mp-2.2.r1/../build/serialboot/bl2/stm32mp_dt.o
                0x000000002ffe214c                dt_get_node_by_compatible
 .text.dt_match_instance_by_compatible
                0x000000002ffe2174       0x6c /home/charles/linux/code/tfa/mp157_alientek/tf-a-stm32mp-2.2.r1-r0/tf-a-stm32mp-2.2.r1/../build/serialboot/bl2/stm32mp_dt.o
                0x000000002ffe2174                dt_match_instance_by_compatible
 .text.dt_get_ddr_size
                0x000000002ffe21e0       0x24 /home/charles/linux/code/tfa/mp157_alientek/tf-a-stm32mp-2.2.r1-r0/tf-a-stm32mp-2.2.r1/../build/serialboot/bl2/stm32mp_dt.o
                0x000000002ffe21e0                dt_get_ddr_size
 .text.dt_get_max_opp_freqvolt
                0x000000002ffe2204       0x88 /home/charles/linux/code/tfa/mp157_alientek/tf-a-stm32mp-2.2.r1-r0/tf-a-stm32mp-2.2.r1/../build/serialboot/bl2/stm32mp_dt.o
                0x000000002ffe2204                dt_get_max_opp_freqvolt
 .text.dt_get_pwr_vdd_voltage
                0x000000002ffe228c       0x54 /home/charles/linux/code/tfa/mp157_alientek/tf-a-stm32mp-2.2.r1-r0/tf-a-stm32mp-2.2.r1/../build/serialboot/bl2/stm32mp_dt.o
                0x000000002ffe228c                dt_get_pwr_vdd_voltage
 .text.dt_get_cpu_regulator_name
                0x000000002ffe22e0       0x50 /home/charles/linux/code/tfa/mp157_alientek/tf-a-stm32mp-2.2.r1-r0/tf-a-stm32mp-2.2.r1/../build/serialboot/bl2/stm32mp_dt.o
                0x000000002ffe22e0                dt_get_cpu_regulator_name
 .text.dt_get_board_model
                0x000000002ffe2330       0x2c /home/charles/linux/code/tfa/mp157_alientek/tf-a-stm32mp-2.2.r1-r0/tf-a-stm32mp-2.2.r1/../build/serialboot/bl2/stm32mp_dt.o
                0x000000002ffe2330                dt_get_board_model
 .text.stm32mp_lock_shregs
                0x000000002ffe235c       0x18 /home/charles/linux/code/tfa/mp157_alientek/tf-a-stm32mp-2.2.r1-r0/tf-a-stm32mp-2.2.r1/../build/serialboot/bl2/stm32mp_shres_helpers.o
                0x000000002ffe235c                stm32mp_lock_shregs
 .text.stm32mp_unlock_shregs
                0x000000002ffe2374       0x18 /home/charles/linux/code/tfa/mp157_alientek/tf-a-stm32mp-2.2.r1-r0/tf-a-stm32mp-2.2.r1/../build/serialboot/bl2/stm32mp_shres_helpers.o
                0x000000002ffe2374                stm32mp_unlock_shregs
 .text.stm32mp_mmio_clrbits_32_shregs
                0x000000002ffe238c       0x1a /home/charles/linux/code/tfa/mp157_alientek/tf-a-stm32mp-2.2.r1-r0/tf-a-stm32mp-2.2.r1/../build/serialboot/bl2/stm32mp_shres_helpers.o
                0x000000002ffe238c                stm32mp_mmio_clrbits_32_shregs
 .text.stm32mp_mmio_setbits_32_shregs
                0x000000002ffe23a6       0x18 /home/charles/linux/code/tfa/mp157_alientek/tf-a-stm32mp-2.2.r1-r0/tf-a-stm32mp-2.2.r1/../build/serialboot/bl2/stm32mp_shres_helpers.o
                0x000000002ffe23a6                stm32mp_mmio_setbits_32_shregs
 .text.stm32_get_zdata_from_context
                0x000000002ffe23be       0x1e /home/charles/linux/code/tfa/mp157_alientek/tf-a-stm32mp-2.2.r1-r0/tf-a-stm32mp-2.2.r1/../build/serialboot/bl2/stm32mp1_context.o
                0x000000002ffe23be                stm32_get_zdata_from_context
 .text.stm32_get_pll1_settings_from_context
                0x000000002ffe23dc       0x20 /home/charles/linux/code/tfa/mp157_alientek/tf-a-stm32mp-2.2.r1-r0/tf-a-stm32mp-2.2.r1/../build/serialboot/bl2/stm32mp1_context.o
                0x000000002ffe23dc                stm32_get_pll1_settings_from_context
 .text.stm32_save_boot_interface
                0x000000002ffe23fc       0x30 /home/charles/linux/code/tfa/mp157_alientek/tf-a-stm32mp-2.2.r1-r0/tf-a-stm32mp-2.2.r1/../build/serialboot/bl2/stm32mp1_context.o
                0x000000002ffe23fc                stm32_save_boot_interface
 .text.stm32_restore_ddr_training_area
                0x000000002ffe242c       0x28 /home/charles/linux/code/tfa/mp157_alientek/tf-a-stm32mp-2.2.r1-r0/tf-a-stm32mp-2.2.r1/../build/serialboot/bl2/stm32mp1_context.o
                0x000000002ffe242c                stm32_restore_ddr_training_area
 .text.stm32mp1_dbgmcu_init
                0x000000002ffe2454       0x2c /home/charles/linux/code/tfa/mp157_alientek/tf-a-stm32mp-2.2.r1-r0/tf-a-stm32mp-2.2.r1/../build/serialboot/bl2/stm32mp1_dbgmcu.o
 .text.stm32mp1_dbgmcu_get_chip_version
                0x000000002ffe2480       0x2c /home/charles/linux/code/tfa/mp157_alientek/tf-a-stm32mp-2.2.r1-r0/tf-a-stm32mp-2.2.r1/../build/serialboot/bl2/stm32mp1_dbgmcu.o
                0x000000002ffe2480                stm32mp1_dbgmcu_get_chip_version
 .text.stm32mp1_dbgmcu_get_chip_dev_id
                0x000000002ffe24ac       0x30 /home/charles/linux/code/tfa/mp157_alientek/tf-a-stm32mp-2.2.r1-r0/tf-a-stm32mp-2.2.r1/../build/serialboot/bl2/stm32mp1_dbgmcu.o
                0x000000002ffe24ac                stm32mp1_dbgmcu_get_chip_dev_id
 .text.stm32mp1_dbgmcu_freeze_iwdg2
                0x000000002ffe24dc       0x2c /home/charles/linux/code/tfa/mp157_alientek/tf-a-stm32mp-2.2.r1-r0/tf-a-stm32mp-2.2.r1/../build/serialboot/bl2/stm32mp1_dbgmcu.o
                0x000000002ffe24dc                stm32mp1_dbgmcu_freeze_iwdg2
 .text.stm32mp1_arch_security_setup
                0x000000002ffe2508       0x50 /home/charles/linux/code/tfa/mp157_alientek/tf-a-stm32mp-2.2.r1-r0/tf-a-stm32mp-2.2.r1/../build/serialboot/bl2/stm32mp1_security.o
                0x000000002ffe2508                stm32mp1_arch_security_setup
 .text.stm32mp1_syscfg_enable_io_compensation
                0x000000002ffe2558       0x68 /home/charles/linux/code/tfa/mp157_alientek/tf-a-stm32mp-2.2.r1-r0/tf-a-stm32mp-2.2.r1/../build/serialboot/bl2/stm32mp1_syscfg.o
                0x000000002ffe2558                stm32mp1_syscfg_enable_io_compensation
 .text.stm32mp1_syscfg_init
                0x000000002ffe25c0       0xa0 /home/charles/linux/code/tfa/mp157_alientek/tf-a-stm32mp-2.2.r1-r0/tf-a-stm32mp-2.2.r1/../build/serialboot/bl2/stm32mp1_syscfg.o
                0x000000002ffe25c0                stm32mp1_syscfg_init
 .text          0x000000002ffe2660       0x24 /home/charles/linux/code/tfa/mp157_alientek/tf-a-stm32mp-2.2.r1-r0/tf-a-stm32mp-2.2.r1/../build/serialboot/bl2/aeabi_uldivmod.o
                0x000000002ffe2660                __aeabi_uldivmod
 .text.fdt32_to_cpu
                0x000000002ffe2684        0x4 /home/charles/linux/code/tfa/mp157_alientek/tf-a-stm32mp-2.2.r1-r0/tf-a-stm32mp-2.2.r1/../build/serialboot/lib/libfdt.a(fdt.o)
 .text.fdt_check_header
                0x000000002ffe2688       0x58 /home/charles/linux/code/tfa/mp157_alientek/tf-a-stm32mp-2.2.r1-r0/tf-a-stm32mp-2.2.r1/../build/serialboot/lib/libfdt.a(fdt.o)
                0x000000002ffe2688                fdt_check_header
 .text.fdt_offset_ptr
                0x000000002ffe26e0       0x3c /home/charles/linux/code/tfa/mp157_alientek/tf-a-stm32mp-2.2.r1-r0/tf-a-stm32mp-2.2.r1/../build/serialboot/lib/libfdt.a(fdt.o)
                0x000000002ffe26e0                fdt_offset_ptr
 .text.fdt_next_tag
                0x000000002ffe271c       0xc8 /home/charles/linux/code/tfa/mp157_alientek/tf-a-stm32mp-2.2.r1-r0/tf-a-stm32mp-2.2.r1/../build/serialboot/lib/libfdt.a(fdt.o)
                0x000000002ffe271c                fdt_next_tag
 .text.fdt_check_node_offset_
                0x000000002ffe27e4       0x24 /home/charles/linux/code/tfa/mp157_alientek/tf-a-stm32mp-2.2.r1-r0/tf-a-stm32mp-2.2.r1/../build/serialboot/lib/libfdt.a(fdt.o)
                0x000000002ffe27e4                fdt_check_node_offset_
 .text.fdt_check_prop_offset_
                0x000000002ffe2808       0x24 /home/charles/linux/code/tfa/mp157_alientek/tf-a-stm32mp-2.2.r1-r0/tf-a-stm32mp-2.2.r1/../build/serialboot/lib/libfdt.a(fdt.o)
                0x000000002ffe2808                fdt_check_prop_offset_
 .text.fdt_next_node
                0x000000002ffe282c       0x6e /home/charles/linux/code/tfa/mp157_alientek/tf-a-stm32mp-2.2.r1-r0/tf-a-stm32mp-2.2.r1/../build/serialboot/lib/libfdt.a(fdt.o)
                0x000000002ffe282c                fdt_next_node
 .text.fdt_first_subnode
                0x000000002ffe289a       0x26 /home/charles/linux/code/tfa/mp157_alientek/tf-a-stm32mp-2.2.r1-r0/tf-a-stm32mp-2.2.r1/../build/serialboot/lib/libfdt.a(fdt.o)
                0x000000002ffe289a                fdt_first_subnode
 .text.fdt_next_subnode
                0x000000002ffe28c0       0x2a /home/charles/linux/code/tfa/mp157_alientek/tf-a-stm32mp-2.2.r1-r0/tf-a-stm32mp-2.2.r1/../build/serialboot/lib/libfdt.a(fdt.o)
                0x000000002ffe28c0                fdt_next_subnode
 *fill*         0x000000002ffe28ea        0x2 
 .text.fdt_address_cells
                0x000000002ffe28ec       0x48 /home/charles/linux/code/tfa/mp157_alientek/tf-a-stm32mp-2.2.r1-r0/tf-a-stm32mp-2.2.r1/../build/serialboot/lib/libfdt.a(fdt_addresses.o)
                0x000000002ffe28ec                fdt_address_cells
 .text.fdt_size_cells
                0x000000002ffe2934       0x48 /home/charles/linux/code/tfa/mp157_alientek/tf-a-stm32mp-2.2.r1-r0/tf-a-stm32mp-2.2.r1/../build/serialboot/lib/libfdt.a(fdt_addresses.o)
                0x000000002ffe2934                fdt_size_cells
 .text.fdt32_to_cpu
                0x000000002ffe297c        0x4 /home/charles/linux/code/tfa/mp157_alientek/tf-a-stm32mp-2.2.r1-r0/tf-a-stm32mp-2.2.r1/../build/serialboot/lib/libfdt.a(fdt_ro.o)
 .text.nextprop_
                0x000000002ffe2980       0x32 /home/charles/linux/code/tfa/mp157_alientek/tf-a-stm32mp-2.2.r1-r0/tf-a-stm32mp-2.2.r1/../build/serialboot/lib/libfdt.a(fdt_ro.o)
 .text.fdt_get_property_by_offset_
                0x000000002ffe29b2       0x36 /home/charles/linux/code/tfa/mp157_alientek/tf-a-stm32mp-2.2.r1-r0/tf-a-stm32mp-2.2.r1/../build/serialboot/lib/libfdt.a(fdt_ro.o)
 .text.fdt_string
                0x000000002ffe29e8       0x10 /home/charles/linux/code/tfa/mp157_alientek/tf-a-stm32mp-2.2.r1-r0/tf-a-stm32mp-2.2.r1/../build/serialboot/lib/libfdt.a(fdt_ro.o)
                0x000000002ffe29e8                fdt_string
 .text.fdt_get_name
                0x000000002ffe29f8       0x5e /home/charles/linux/code/tfa/mp157_alientek/tf-a-stm32mp-2.2.r1-r0/tf-a-stm32mp-2.2.r1/../build/serialboot/lib/libfdt.a(fdt_ro.o)
                0x000000002ffe29f8                fdt_get_name
 .text.fdt_subnode_offset_namelen
                0x000000002ffe2a56       0x80 /home/charles/linux/code/tfa/mp157_alientek/tf-a-stm32mp-2.2.r1-r0/tf-a-stm32mp-2.2.r1/../build/serialboot/lib/libfdt.a(fdt_ro.o)
                0x000000002ffe2a56                fdt_subnode_offset_namelen
 .text.fdt_subnode_offset
                0x000000002ffe2ad6       0x1e /home/charles/linux/code/tfa/mp157_alientek/tf-a-stm32mp-2.2.r1-r0/tf-a-stm32mp-2.2.r1/../build/serialboot/lib/libfdt.a(fdt_ro.o)
                0x000000002ffe2ad6                fdt_subnode_offset
 .text.fdt_first_property_offset
                0x000000002ffe2af4       0x18 /home/charles/linux/code/tfa/mp157_alientek/tf-a-stm32mp-2.2.r1-r0/tf-a-stm32mp-2.2.r1/../build/serialboot/lib/libfdt.a(fdt_ro.o)
                0x000000002ffe2af4                fdt_first_property_offset
 .text.fdt_next_property_offset
                0x000000002ffe2b0c       0x18 /home/charles/linux/code/tfa/mp157_alientek/tf-a-stm32mp-2.2.r1-r0/tf-a-stm32mp-2.2.r1/../build/serialboot/lib/libfdt.a(fdt_ro.o)
                0x000000002ffe2b0c                fdt_next_property_offset
 .text.fdt_get_property_namelen_
                0x000000002ffe2b24       0x78 /home/charles/linux/code/tfa/mp157_alientek/tf-a-stm32mp-2.2.r1-r0/tf-a-stm32mp-2.2.r1/../build/serialboot/lib/libfdt.a(fdt_ro.o)
 .text.fdt_getprop_namelen
                0x000000002ffe2b9c       0x3e /home/charles/linux/code/tfa/mp157_alientek/tf-a-stm32mp-2.2.r1-r0/tf-a-stm32mp-2.2.r1/../build/serialboot/lib/libfdt.a(fdt_ro.o)
                0x000000002ffe2b9c                fdt_getprop_namelen
 .text.fdt_getprop
                0x000000002ffe2bda       0x22 /home/charles/linux/code/tfa/mp157_alientek/tf-a-stm32mp-2.2.r1-r0/tf-a-stm32mp-2.2.r1/../build/serialboot/lib/libfdt.a(fdt_ro.o)
                0x000000002ffe2bda                fdt_getprop
 .text.fdt_get_phandle
                0x000000002ffe2bfc       0x44 /home/charles/linux/code/tfa/mp157_alientek/tf-a-stm32mp-2.2.r1-r0/tf-a-stm32mp-2.2.r1/../build/serialboot/lib/libfdt.a(fdt_ro.o)
                0x000000002ffe2bfc                fdt_get_phandle
 .text.fdt_get_alias_namelen
                0x000000002ffe2c40       0x2c /home/charles/linux/code/tfa/mp157_alientek/tf-a-stm32mp-2.2.r1-r0/tf-a-stm32mp-2.2.r1/../build/serialboot/lib/libfdt.a(fdt_ro.o)
                0x000000002ffe2c40                fdt_get_alias_namelen
 .text.fdt_path_offset_namelen
                0x000000002ffe2c6c       0x92 /home/charles/linux/code/tfa/mp157_alientek/tf-a-stm32mp-2.2.r1-r0/tf-a-stm32mp-2.2.r1/../build/serialboot/lib/libfdt.a(fdt_ro.o)
                0x000000002ffe2c6c                fdt_path_offset_namelen
 .text.fdt_path_offset
                0x000000002ffe2cfe       0x1a /home/charles/linux/code/tfa/mp157_alientek/tf-a-stm32mp-2.2.r1-r0/tf-a-stm32mp-2.2.r1/../build/serialboot/lib/libfdt.a(fdt_ro.o)
                0x000000002ffe2cfe                fdt_path_offset
 .text.fdt_supernode_atdepth_offset
                0x000000002ffe2d18       0x68 /home/charles/linux/code/tfa/mp157_alientek/tf-a-stm32mp-2.2.r1-r0/tf-a-stm32mp-2.2.r1/../build/serialboot/lib/libfdt.a(fdt_ro.o)
                0x000000002ffe2d18                fdt_supernode_atdepth_offset
 .text.fdt_node_depth
                0x000000002ffe2d80       0x1e /home/charles/linux/code/tfa/mp157_alientek/tf-a-stm32mp-2.2.r1-r0/tf-a-stm32mp-2.2.r1/../build/serialboot/lib/libfdt.a(fdt_ro.o)
                0x000000002ffe2d80                fdt_node_depth
 .text.fdt_parent_offset
                0x000000002ffe2d9e       0x20 /home/charles/linux/code/tfa/mp157_alientek/tf-a-stm32mp-2.2.r1-r0/tf-a-stm32mp-2.2.r1/../build/serialboot/lib/libfdt.a(fdt_ro.o)
                0x000000002ffe2d9e                fdt_parent_offset
 .text.fdt_node_offset_by_phandle
                0x000000002ffe2dbe       0x42 /home/charles/linux/code/tfa/mp157_alientek/tf-a-stm32mp-2.2.r1-r0/tf-a-stm32mp-2.2.r1/../build/serialboot/lib/libfdt.a(fdt_ro.o)
                0x000000002ffe2dbe                fdt_node_offset_by_phandle
 .text.fdt_stringlist_contains
                0x000000002ffe2e00       0x46 /home/charles/linux/code/tfa/mp157_alientek/tf-a-stm32mp-2.2.r1-r0/tf-a-stm32mp-2.2.r1/../build/serialboot/lib/libfdt.a(fdt_ro.o)
                0x000000002ffe2e00                fdt_stringlist_contains
 .text.fdt_stringlist_search
                0x000000002ffe2e46       0x66 /home/charles/linux/code/tfa/mp157_alientek/tf-a-stm32mp-2.2.r1-r0/tf-a-stm32mp-2.2.r1/../build/serialboot/lib/libfdt.a(fdt_ro.o)
                0x000000002ffe2e46                fdt_stringlist_search
 .text.fdt_node_check_compatible
                0x000000002ffe2eac       0x28 /home/charles/linux/code/tfa/mp157_alientek/tf-a-stm32mp-2.2.r1-r0/tf-a-stm32mp-2.2.r1/../build/serialboot/lib/libfdt.a(fdt_ro.o)
                0x000000002ffe2eac                fdt_node_check_compatible
 .text.fdt_node_offset_by_compatible
                0x000000002ffe2ed4       0x40 /home/charles/linux/code/tfa/mp157_alientek/tf-a-stm32mp-2.2.r1-r0/tf-a-stm32mp-2.2.r1/../build/serialboot/lib/libfdt.a(fdt_ro.o)
                0x000000002ffe2ed4                fdt_node_offset_by_compatible
 .text.__assert
                0x000000002ffe2f14       0x18 /home/charles/linux/code/tfa/mp157_alientek/tf-a-stm32mp-2.2.r1-r0/tf-a-stm32mp-2.2.r1/../build/serialboot/lib/libc.a(assert.o)
                0x000000002ffe2f14                __assert
 .text.memchr   0x000000002ffe2f2c       0x1c /home/charles/linux/code/tfa/mp157_alientek/tf-a-stm32mp-2.2.r1-r0/tf-a-stm32mp-2.2.r1/../build/serialboot/lib/libc.a(memchr.o)
                0x000000002ffe2f2c                memchr
 .text.memcmp   0x000000002ffe2f48       0x1c /home/charles/linux/code/tfa/mp157_alientek/tf-a-stm32mp-2.2.r1-r0/tf-a-stm32mp-2.2.r1/../build/serialboot/lib/libc.a(memcmp.o)
                0x000000002ffe2f48                memcmp
 .text.memcpy   0x000000002ffe2f64       0x16 /home/charles/linux/code/tfa/mp157_alientek/tf-a-stm32mp-2.2.r1-r0/tf-a-stm32mp-2.2.r1/../build/serialboot/lib/libc.a(memcpy.o)
                0x000000002ffe2f64                memcpy
 .text.memmove  0x000000002ffe2f7a       0x2c /home/charles/linux/code/tfa/mp157_alientek/tf-a-stm32mp-2.2.r1-r0/tf-a-stm32mp-2.2.r1/../build/serialboot/lib/libc.a(memmove.o)
                0x000000002ffe2f7a                memmove
 .text.memset   0x000000002ffe2fa6       0x10 /home/charles/linux/code/tfa/mp157_alientek/tf-a-stm32mp-2.2.r1-r0/tf-a-stm32mp-2.2.r1/../build/serialboot/lib/libc.a(memset.o)
                0x000000002ffe2fa6                memset
 .text.unsigned_num_print
                0x000000002ffe2fb6       0x80 /home/charles/linux/code/tfa/mp157_alientek/tf-a-stm32mp-2.2.r1-r0/tf-a-stm32mp-2.2.r1/../build/serialboot/lib/libc.a(printf.o)
 *fill*         0x000000002ffe3036        0x2 
 .text.vprintf  0x000000002ffe3038      0x1a0 /home/charles/linux/code/tfa/mp157_alientek/tf-a-stm32mp-2.2.r1-r0/tf-a-stm32mp-2.2.r1/../build/serialboot/lib/libc.a(printf.o)
                0x000000002ffe3038                vprintf
 .text.printf   0x000000002ffe31d8       0x1a /home/charles/linux/code/tfa/mp157_alientek/tf-a-stm32mp-2.2.r1-r0/tf-a-stm32mp-2.2.r1/../build/serialboot/lib/libc.a(printf.o)
                0x000000002ffe31d8                printf
 .text.putchar  0x000000002ffe31f2       0x16 /home/charles/linux/code/tfa/mp157_alientek/tf-a-stm32mp-2.2.r1-r0/tf-a-stm32mp-2.2.r1/../build/serialboot/lib/libc.a(putchar.o)
                0x000000002ffe31f2                putchar
 .text.unsigned_dec_print
                0x000000002ffe3208       0x4a /home/charles/linux/code/tfa/mp157_alientek/tf-a-stm32mp-2.2.r1-r0/tf-a-stm32mp-2.2.r1/../build/serialboot/lib/libc.a(snprintf.o)
 *fill*         0x000000002ffe3252        0x2 
 .text.snprintf
                0x000000002ffe3254       0xe0 /home/charles/linux/code/tfa/mp157_alientek/tf-a-stm32mp-2.2.r1-r0/tf-a-stm32mp-2.2.r1/../build/serialboot/lib/libc.a(snprintf.o)
                0x000000002ffe3254                snprintf
 .text.strchr   0x000000002ffe3334       0x16 /home/charles/linux/code/tfa/mp157_alientek/tf-a-stm32mp-2.2.r1-r0/tf-a-stm32mp-2.2.r1/../build/serialboot/lib/libc.a(strchr.o)
                0x000000002ffe3334                strchr
 .text.strcmp   0x000000002ffe334a       0x18 /home/charles/linux/code/tfa/mp157_alientek/tf-a-stm32mp-2.2.r1-r0/tf-a-stm32mp-2.2.r1/../build/serialboot/lib/libc.a(strcmp.o)
                0x000000002ffe334a                strcmp
 .text.strlen   0x000000002ffe3362       0x10 /home/charles/linux/code/tfa/mp157_alientek/tf-a-stm32mp-2.2.r1-r0/tf-a-stm32mp-2.2.r1/../build/serialboot/lib/libc.a(strlen.o)
                0x000000002ffe3362                strlen
 .text.strncmp  0x000000002ffe3372       0x28 /home/charles/linux/code/tfa/mp157_alientek/tf-a-stm32mp-2.2.r1-r0/tf-a-stm32mp-2.2.r1/../build/serialboot/lib/libc.a(strncmp.o)
                0x000000002ffe3372                strncmp
 .text.strnlen  0x000000002ffe339a       0x14 /home/charles/linux/code/tfa/mp157_alientek/tf-a-stm32mp-2.2.r1-r0/tf-a-stm32mp-2.2.r1/../build/serialboot/lib/libc.a(strnlen.o)
                0x000000002ffe339a                strnlen
 .text.strrchr  0x000000002ffe33ae       0x1a /home/charles/linux/code/tfa/mp157_alientek/tf-a-stm32mp-2.2.r1-r0/tf-a-stm32mp-2.2.r1/../build/serialboot/lib/libc.a(strrchr.o)
                0x000000002ffe33ae                strrchr
 *(.rodata*)
 .rodata.build_message
                0x000000002ffe33c8       0x1e /home/charles/linux/code/tfa/mp157_alientek/tf-a-stm32mp-2.2.r1-r0/tf-a-stm32mp-2.2.r1/../build/serialboot/bl2/build_message.o
                0x000000002ffe33c8                build_message
 .rodata.version_string
                0x000000002ffe33e6       0x12 /home/charles/linux/code/tfa/mp157_alientek/tf-a-stm32mp-2.2.r1-r0/tf-a-stm32mp-2.2.r1/../build/serialboot/bl2/build_message.o
                0x000000002ffe33e6                version_string
 .rodata.block_write.str1.1
                0x000000002ffe33f8       0x16 /home/charles/linux/code/tfa/mp157_alientek/tf-a-stm32mp-2.2.r1-r0/tf-a-stm32mp-2.2.r1/../build/serialboot/bl2/io_block.o
 *fill*         0x000000002ffe340e        0x2 
 .rodata.block_dev_connector
                0x000000002ffe3410        0x4 /home/charles/linux/code/tfa/mp157_alientek/tf-a-stm32mp-2.2.r1-r0/tf-a-stm32mp-2.2.r1/../build/serialboot/bl2/io_block.o
 .rodata.block_dev_funcs
                0x000000002ffe3414       0x24 /home/charles/linux/code/tfa/mp157_alientek/tf-a-stm32mp-2.2.r1-r0/tf-a-stm32mp-2.2.r1/../build/serialboot/bl2/io_block.o
 .rodata.dummy_dev_open.str1.1
                0x000000002ffe3438       0x16 /home/charles/linux/code/tfa/mp157_alientek/tf-a-stm32mp-2.2.r1-r0/tf-a-stm32mp-2.2.r1/../build/serialboot/bl2/io_dummy.o
 .rodata.dummy_block_open.str1.1
                0x000000002ffe344e       0x31 /home/charles/linux/code/tfa/mp157_alientek/tf-a-stm32mp-2.2.r1-r0/tf-a-stm32mp-2.2.r1/../build/serialboot/bl2/io_dummy.o
 *fill*         0x000000002ffe347f        0x1 
 .rodata.dummy_dev_connector
                0x000000002ffe3480        0x4 /home/charles/linux/code/tfa/mp157_alientek/tf-a-stm32mp-2.2.r1-r0/tf-a-stm32mp-2.2.r1/../build/serialboot/bl2/io_dummy.o
 .rodata.dummy_dev_funcs
                0x000000002ffe3484       0x24 /home/charles/linux/code/tfa/mp157_alientek/tf-a-stm32mp-2.2.r1-r0/tf-a-stm32mp-2.2.r1/../build/serialboot/bl2/io_dummy.o
 .rodata.dummy_dev_info
                0x000000002ffe34a8        0x8 /home/charles/linux/code/tfa/mp157_alientek/tf-a-stm32mp-2.2.r1-r0/tf-a-stm32mp-2.2.r1/../build/serialboot/bl2/io_dummy.o
 .rodata.mtd_read.str1.1
                0x000000002ffe34b0       0x14 /home/charles/linux/code/tfa/mp157_alientek/tf-a-stm32mp-2.2.r1-r0/tf-a-stm32mp-2.2.r1/../build/serialboot/bl2/io_mtd.o
 .rodata.mtd_dev_connector
                0x000000002ffe34c4        0x4 /home/charles/linux/code/tfa/mp157_alientek/tf-a-stm32mp-2.2.r1-r0/tf-a-stm32mp-2.2.r1/../build/serialboot/bl2/io_mtd.o
 .rodata.mtd_dev_funcs
                0x000000002ffe34c8       0x24 /home/charles/linux/code/tfa/mp157_alientek/tf-a-stm32mp-2.2.r1-r0/tf-a-stm32mp-2.2.r1/../build/serialboot/bl2/io_mtd.o
 .rodata.free_entity.str1.1
                0x000000002ffe34ec       0x18 /home/charles/linux/code/tfa/mp157_alientek/tf-a-stm32mp-2.2.r1-r0/tf-a-stm32mp-2.2.r1/../build/serialboot/bl2/io_storage.o
 .rodata.hash_write_data.str1.1
                0x000000002ffe3504       0x13 /home/charles/linux/code/tfa/mp157_alientek/tf-a-stm32mp-2.2.r1-r0/tf-a-stm32mp-2.2.r1/../build/serialboot/bl2/stm32_hash.o
 .rodata.stm32_hash_update.str1.1
                0x000000002ffe3517       0x1f /home/charles/linux/code/tfa/mp157_alientek/tf-a-stm32mp-2.2.r1-r0/tf-a-stm32mp-2.2.r1/../build/serialboot/bl2/stm32_hash.o
 .rodata.stm32_hash_register.str1.1
                0x000000002ffe3536       0x12 /home/charles/linux/code/tfa/mp157_alientek/tf-a-stm32mp-2.2.r1-r0/tf-a-stm32mp-2.2.r1/../build/serialboot/bl2/stm32_hash.o
 .rodata.__func__.7019
                0x000000002ffe3548        0xf /home/charles/linux/code/tfa/mp157_alientek/tf-a-stm32mp-2.2.r1-r0/tf-a-stm32mp-2.2.r1/../build/serialboot/bl2/stm32_hash.o
 .rodata.__func__.7027
                0x000000002ffe3557       0x16 /home/charles/linux/code/tfa/mp157_alientek/tf-a-stm32mp-2.2.r1-r0/tf-a-stm32mp-2.2.r1/../build/serialboot/bl2/stm32_hash.o
 .rodata.stm32image_dev_init.str1.1
                0x000000002ffe356d       0x44 /home/charles/linux/code/tfa/mp157_alientek/tf-a-stm32mp-2.2.r1-r0/tf-a-stm32mp-2.2.r1/../build/serialboot/bl2/io_stm32image.o
 .rodata.stm32image_partition_read.str1.1
                0x000000002ffe35b1       0x6c /home/charles/linux/code/tfa/mp157_alientek/tf-a-stm32mp-2.2.r1-r0/tf-a-stm32mp-2.2.r1/../build/serialboot/bl2/io_stm32image.o
 .rodata.stm32image_partition_size.str1.1
                0x000000002ffe361d       0x19 /home/charles/linux/code/tfa/mp157_alientek/tf-a-stm32mp-2.2.r1-r0/tf-a-stm32mp-2.2.r1/../build/serialboot/bl2/io_stm32image.o
 .rodata.stm32image_partition_open.str1.1
                0x000000002ffe3636       0x1d /home/charles/linux/code/tfa/mp157_alientek/tf-a-stm32mp-2.2.r1-r0/tf-a-stm32mp-2.2.r1/../build/serialboot/bl2/io_stm32image.o
 .rodata.__func__.7190
                0x000000002ffe3653       0x1a /home/charles/linux/code/tfa/mp157_alientek/tf-a-stm32mp-2.2.r1-r0/tf-a-stm32mp-2.2.r1/../build/serialboot/bl2/io_stm32image.o
 .rodata.__func__.7204
                0x000000002ffe366d       0x1a /home/charles/linux/code/tfa/mp157_alientek/tf-a-stm32mp-2.2.r1-r0/tf-a-stm32mp-2.2.r1/../build/serialboot/bl2/io_stm32image.o
 *fill*         0x000000002ffe3687        0x1 
 .rodata.stm32image_dev_connector
                0x000000002ffe3688        0x4 /home/charles/linux/code/tfa/mp157_alientek/tf-a-stm32mp-2.2.r1-r0/tf-a-stm32mp-2.2.r1/../build/serialboot/bl2/io_stm32image.o
 .rodata.stm32image_dev_funcs
                0x000000002ffe368c       0x24 /home/charles/linux/code/tfa/mp157_alientek/tf-a-stm32mp-2.2.r1-r0/tf-a-stm32mp-2.2.r1/../build/serialboot/bl2/io_stm32image.o
 .rodata.boot_mmc.str1.1
                0x000000002ffe36b0       0x79 /home/charles/linux/code/tfa/mp157_alientek/tf-a-stm32mp-2.2.r1-r0/tf-a-stm32mp-2.2.r1/../build/serialboot/bl2/bl2_io_storage.o
 .rodata.stm32mp_io_setup.str1.1
                0x000000002ffe3729       0xd4 /home/charles/linux/code/tfa/mp157_alientek/tf-a-stm32mp-2.2.r1-r0/tf-a-stm32mp-2.2.r1/../build/serialboot/bl2/bl2_io_storage.o
 *fill*         0x000000002ffe37fd        0x3 
 .rodata.bl2_block_spec
                0x000000002ffe3800        0x8 /home/charles/linux/code/tfa/mp157_alientek/tf-a-stm32mp-2.2.r1-r0/tf-a-stm32mp-2.2.r1/../build/serialboot/bl2/bl2_io_storage.o
 .rodata.bl32_block_spec
                0x000000002ffe3808        0x8 /home/charles/linux/code/tfa/mp157_alientek/tf-a-stm32mp-2.2.r1-r0/tf-a-stm32mp-2.2.r1/../build/serialboot/bl2/bl2_io_storage.o
 .rodata.bl33_partition_spec
                0x000000002ffe3810       0x34 /home/charles/linux/code/tfa/mp157_alientek/tf-a-stm32mp-2.2.r1-r0/tf-a-stm32mp-2.2.r1/../build/serialboot/bl2/bl2_io_storage.o
 .rodata.mmc_block_dev_spec
                0x000000002ffe3844       0x14 /home/charles/linux/code/tfa/mp157_alientek/tf-a-stm32mp-2.2.r1-r0/tf-a-stm32mp-2.2.r1/../build/serialboot/bl2/bl2_io_storage.o
 .rodata.policies
                0x000000002ffe3858      0x168 /home/charles/linux/code/tfa/mp157_alientek/tf-a-stm32mp-2.2.r1-r0/tf-a-stm32mp-2.2.r1/../build/serialboot/bl2/bl2_io_storage.o
 .rodata.bl2_platform_setup.str1.1
                0x000000002ffe39c0       0x57 /home/charles/linux/code/tfa/mp157_alientek/tf-a-stm32mp-2.2.r1-r0/tf-a-stm32mp-2.2.r1/../build/serialboot/bl2/bl2_plat_setup.o
 .rodata.bl2_el3_plat_arch_setup.str1.1
                0x000000002ffe3a17      0x2f5 /home/charles/linux/code/tfa/mp157_alientek/tf-a-stm32mp-2.2.r1-r0/tf-a-stm32mp-2.2.r1/../build/serialboot/bl2/bl2_plat_setup.o
 .rodata.debug_msg
                0x000000002ffe3d0c      0x272 /home/charles/linux/code/tfa/mp157_alientek/tf-a-stm32mp-2.2.r1-r0/tf-a-stm32mp-2.2.r1/../build/serialboot/bl2/bl2_plat_setup.o
 .rodata.auth_mod_get_parent_id.str1.1
                0x000000002ffe3f7e       0x18 /home/charles/linux/code/tfa/mp157_alientek/tf-a-stm32mp-2.2.r1-r0/tf-a-stm32mp-2.2.r1/../build/serialboot/bl2/auth_mod.o
 .rodata.auth_mod_verify_img.str1.1
                0x000000002ffe3f96       0x42 /home/charles/linux/code/tfa/mp157_alientek/tf-a-stm32mp-2.2.r1-r0/tf-a-stm32mp-2.2.r1/../build/serialboot/bl2/auth_mod.o
 .rodata.crypto_mod_init.str1.1
                0x000000002ffe3fd8       0x36 /home/charles/linux/code/tfa/mp157_alientek/tf-a-stm32mp-2.2.r1-r0/tf-a-stm32mp-2.2.r1/../build/serialboot/bl2/crypto_mod.o
 .rodata.img_parser_init.str1.1
                0x000000002ffe400e       0x1e /home/charles/linux/code/tfa/mp157_alientek/tf-a-stm32mp-2.2.r1-r0/tf-a-stm32mp-2.2.r1/../build/serialboot/bl2/img_parser_mod.o
 .rodata.__compound_literal.0
                0x000000002ffe402c       0x50 /home/charles/linux/code/tfa/mp157_alientek/tf-a-stm32mp-2.2.r1-r0/tf-a-stm32mp-2.2.r1/../build/serialboot/bl2/stm32mp_cot.o
 .rodata.__compound_literal.1
                0x000000002ffe407c       0x50 /home/charles/linux/code/tfa/mp157_alientek/tf-a-stm32mp-2.2.r1-r0/tf-a-stm32mp-2.2.r1/../build/serialboot/bl2/stm32mp_cot.o
 .rodata.bl32_image
                0x000000002ffe40cc       0x14 /home/charles/linux/code/tfa/mp157_alientek/tf-a-stm32mp-2.2.r1-r0/tf-a-stm32mp-2.2.r1/../build/serialboot/bl2/stm32mp_cot.o
 .rodata.bl33_image
                0x000000002ffe40e0       0x14 /home/charles/linux/code/tfa/mp157_alientek/tf-a-stm32mp-2.2.r1-r0/tf-a-stm32mp-2.2.r1/../build/serialboot/bl2/stm32mp_cot.o
 .rodata.cot_desc
                0x000000002ffe40f4       0x18 /home/charles/linux/code/tfa/mp157_alientek/tf-a-stm32mp-2.2.r1-r0/tf-a-stm32mp-2.2.r1/../build/serialboot/bl2/stm32mp_cot.o
 .rodata.cot_desc_ptr
                0x000000002ffe410c        0x4 /home/charles/linux/code/tfa/mp157_alientek/tf-a-stm32mp-2.2.r1-r0/tf-a-stm32mp-2.2.r1/../build/serialboot/bl2/stm32mp_cot.o
                0x000000002ffe410c                cot_desc_ptr
 .rodata.crypto_verify_signature.str1.1
                0x000000002ffe4110       0x8f /home/charles/linux/code/tfa/mp157_alientek/tf-a-stm32mp-2.2.r1-r0/tf-a-stm32mp-2.2.r1/../build/serialboot/bl2/stm32mp_crypto_lib.o
 .rodata.str1.1
                0x000000002ffe419f       0x11 /home/charles/linux/code/tfa/mp157_alientek/tf-a-stm32mp-2.2.r1-r0/tf-a-stm32mp-2.2.r1/../build/serialboot/bl2/stm32mp_crypto_lib.o
 .rodata.crypto_lib_desc
                0x000000002ffe41b0       0x10 /home/charles/linux/code/tfa/mp157_alientek/tf-a-stm32mp-2.2.r1-r0/tf-a-stm32mp-2.2.r1/../build/serialboot/bl2/stm32mp_crypto_lib.o
                0x000000002ffe41b0                crypto_lib_desc
 .rodata.str1.1
                0x000000002ffe41c0       0x15 /home/charles/linux/code/tfa/mp157_alientek/tf-a-stm32mp-2.2.r1-r0/tf-a-stm32mp-2.2.r1/../build/serialboot/bl2/stm32mp_img_parser_lib.o
 .rodata.plat_get_rotpk_info.str1.1
                0x000000002ffe41d5        0x8 /home/charles/linux/code/tfa/mp157_alientek/tf-a-stm32mp-2.2.r1-r0/tf-a-stm32mp-2.2.r1/../build/serialboot/bl2/stm32mp_trusted_boot.o
 .rodata.plat_get_nv_ctr.str1.1
                0x000000002ffe41dd        0xe /home/charles/linux/code/tfa/mp157_alientek/tf-a-stm32mp-2.2.r1-r0/tf-a-stm32mp-2.2.r1/../build/serialboot/bl2/stm32mp_trusted_boot.o
 .rodata.mmc_device_state.str1.1
                0x000000002ffe41dd       0x20 /home/charles/linux/code/tfa/mp157_alientek/tf-a-stm32mp-2.2.r1-r0/tf-a-stm32mp-2.2.r1/../build/serialboot/bl2/mmc.o
 .rodata.mmc_read_blocks.str1.1
                0x000000002ffe41fd       0x12 /home/charles/linux/code/tfa/mp157_alientek/tf-a-stm32mp-2.2.r1-r0/tf-a-stm32mp-2.2.r1/../build/serialboot/bl2/mmc.o
 .rodata.mmc_init.str1.1
                0x000000002ffe420f       0x95 /home/charles/linux/code/tfa/mp157_alientek/tf-a-stm32mp-2.2.r1-r0/tf-a-stm32mp-2.2.r1/../build/serialboot/bl2/mmc.o
 .rodata.sd_tran_speed_base
                0x000000002ffe42a4       0x10 /home/charles/linux/code/tfa/mp157_alientek/tf-a-stm32mp-2.2.r1-r0/tf-a-stm32mp-2.2.r1/../build/serialboot/bl2/mmc.o
 .rodata.tran_speed_base
                0x000000002ffe42b4       0x10 /home/charles/linux/code/tfa/mp157_alientek/tf-a-stm32mp-2.2.r1-r0/tf-a-stm32mp-2.2.r1/../build/serialboot/bl2/mmc.o
 .rodata.parse_gpt_entry.str1.1
                0x000000002ffe42c4       0x18 /home/charles/linux/code/tfa/mp157_alientek/tf-a-stm32mp-2.2.r1-r0/tf-a-stm32mp-2.2.r1/../build/serialboot/bl2/gpt.o
 .rodata.load_partition_table.str1.1
                0x000000002ffe42dc       0xad /home/charles/linux/code/tfa/mp157_alientek/tf-a-stm32mp-2.2.r1-r0/tf-a-stm32mp-2.2.r1/../build/serialboot/bl2/partition.o
 .rodata.mmc_dev_open.str1.1
                0x000000002ffe4389       0x17 /home/charles/linux/code/tfa/mp157_alientek/tf-a-stm32mp-2.2.r1-r0/tf-a-stm32mp-2.2.r1/../build/serialboot/bl2/io_mmc.o
 .rodata.mmc_dev_connector
                0x000000002ffe43a0        0x4 /home/charles/linux/code/tfa/mp157_alientek/tf-a-stm32mp-2.2.r1-r0/tf-a-stm32mp-2.2.r1/../build/serialboot/bl2/io_mmc.o
 .rodata.mmc_dev_funcs
                0x000000002ffe43a4       0x24 /home/charles/linux/code/tfa/mp157_alientek/tf-a-stm32mp-2.2.r1-r0/tf-a-stm32mp-2.2.r1/../build/serialboot/bl2/io_mmc.o
 .rodata.mmc_dev_info
                0x000000002ffe43c8        0x8 /home/charles/linux/code/tfa/mp157_alientek/tf-a-stm32mp-2.2.r1-r0/tf-a-stm32mp-2.2.r1/../build/serialboot/bl2/io_mmc.o
 .rodata.dump_registers.str1.1
                0x000000002ffe43d0      0x168 /home/charles/linux/code/tfa/mp157_alientek/tf-a-stm32mp-2.2.r1-r0/tf-a-stm32mp-2.2.r1/../build/serialboot/bl2/stm32_sdmmc2.o
 .rodata.stm32_sdmmc2_send_cmd.str1.1
                0x000000002ffe4538       0xda /home/charles/linux/code/tfa/mp157_alientek/tf-a-stm32mp-2.2.r1-r0/tf-a-stm32mp-2.2.r1/../build/serialboot/bl2/stm32_sdmmc2.o
 .rodata.stm32_sdmmc2_read.str1.1
                0x000000002ffe4612       0x59 /home/charles/linux/code/tfa/mp157_alientek/tf-a-stm32mp-2.2.r1-r0/tf-a-stm32mp-2.2.r1/../build/serialboot/bl2/stm32_sdmmc2.o
 .rodata.stm32_sdmmc2_prepare.str1.1
                0x000000002ffe466b        0xf /home/charles/linux/code/tfa/mp157_alientek/tf-a-stm32mp-2.2.r1-r0/tf-a-stm32mp-2.2.r1/../build/serialboot/bl2/stm32_sdmmc2.o
 .rodata.stm32_sdmmc2_mmc_init.str1.1
                0x000000002ffe467a       0x4e /home/charles/linux/code/tfa/mp157_alientek/tf-a-stm32mp-2.2.r1-r0/tf-a-stm32mp-2.2.r1/../build/serialboot/bl2/stm32_sdmmc2.o
                                         0x66 (size before relaxing)
 .rodata.__func__.7255
                0x000000002ffe46c8       0x1a /home/charles/linux/code/tfa/mp157_alientek/tf-a-stm32mp-2.2.r1-r0/tf-a-stm32mp-2.2.r1/../build/serialboot/bl2/stm32_sdmmc2.o
 .rodata.__func__.7316
                0x000000002ffe46e2       0x12 /home/charles/linux/code/tfa/mp157_alientek/tf-a-stm32mp-2.2.r1-r0/tf-a-stm32mp-2.2.r1/../build/serialboot/bl2/stm32_sdmmc2.o
 .rodata.__func__.7345
                0x000000002ffe46f4       0x16 /home/charles/linux/code/tfa/mp157_alientek/tf-a-stm32mp-2.2.r1-r0/tf-a-stm32mp-2.2.r1/../build/serialboot/bl2/stm32_sdmmc2.o
 *fill*         0x000000002ffe470a        0x2 
 .rodata.stm32_sdmmc2_ops
                0x000000002ffe470c       0x18 /home/charles/linux/code/tfa/mp157_alientek/tf-a-stm32mp-2.2.r1-r0/tf-a-stm32mp-2.2.r1/../build/serialboot/bl2/stm32_sdmmc2.o
 .rodata.nand_read_param_page.str1.1
                0x000000002ffe4724       0x32 /home/charles/linux/code/tfa/mp157_alientek/tf-a-stm32mp-2.2.r1-r0/tf-a-stm32mp-2.2.r1/../build/serialboot/bl2/raw_nand.o
 .rodata.nand_mtd_block_is_bad.str1.1
                0x000000002ffe4756       0x12 /home/charles/linux/code/tfa/mp157_alientek/tf-a-stm32mp-2.2.r1-r0/tf-a-stm32mp-2.2.r1/../build/serialboot/bl2/raw_nand.o
 .rodata.nand_raw_init.str1.1
                0x000000002ffe4768       0x4a /home/charles/linux/code/tfa/mp157_alientek/tf-a-stm32mp-2.2.r1-r0/tf-a-stm32mp-2.2.r1/../build/serialboot/bl2/raw_nand.o
 .rodata.stm32_fmc2_read_page.str1.1
                0x000000002ffe47b2       0x3e /home/charles/linux/code/tfa/mp157_alientek/tf-a-stm32mp-2.2.r1-r0/tf-a-stm32mp-2.2.r1/../build/serialboot/bl2/stm32_fmc2_nand.o
 .rodata.stm32_fmc2_init.str1.1
                0x000000002ffe47f0       0x6b /home/charles/linux/code/tfa/mp157_alientek/tf-a-stm32mp-2.2.r1-r0/tf-a-stm32mp-2.2.r1/../build/serialboot/bl2/stm32_fmc2_nand.o
                                         0x6f (size before relaxing)
 .rodata.__func__.6688
                0x000000002ffe485b       0x17 /home/charles/linux/code/tfa/mp157_alientek/tf-a-stm32mp-2.2.r1-r0/tf-a-stm32mp-2.2.r1/../build/serialboot/bl2/stm32_fmc2_nand.o
 *fill*         0x000000002ffe4872        0x2 
 .rodata.ctrl_ops
                0x000000002ffe4874        0x8 /home/charles/linux/code/tfa/mp157_alientek/tf-a-stm32mp-2.2.r1-r0/tf-a-stm32mp-2.2.r1/../build/serialboot/bl2/stm32_fmc2_nand.o
 .rodata.spi_nand_mtd_block_is_bad.str1.1
                0x000000002ffe487c       0x12 /home/charles/linux/code/tfa/mp157_alientek/tf-a-stm32mp-2.2.r1-r0/tf-a-stm32mp-2.2.r1/../build/serialboot/bl2/spi_nand.o
 .rodata.spi_nor_init.str1.1
                0x000000002ffe488e       0x39 /home/charles/linux/code/tfa/mp157_alientek/tf-a-stm32mp-2.2.r1-r0/tf-a-stm32mp-2.2.r1/../build/serialboot/bl2/spi_nor.o
 .rodata.spi_mem_exec_op.str1.1
                0x000000002ffe48c7       0x2d /home/charles/linux/code/tfa/mp157_alientek/tf-a-stm32mp-2.2.r1-r0/tf-a-stm32mp-2.2.r1/../build/serialboot/bl2/spi_mem.o
 .rodata.spi_mem_init_slave.str1.1
                0x000000002ffe48f4      0x100 /home/charles/linux/code/tfa/mp157_alientek/tf-a-stm32mp-2.2.r1-r0/tf-a-stm32mp-2.2.r1/../build/serialboot/bl2/spi_mem.o
                                        0x104 (size before relaxing)
 .rodata.stm32_qspi_wait_for_not_busy.str1.1
                0x000000002ffe49f4       0x13 /home/charles/linux/code/tfa/mp157_alientek/tf-a-stm32mp-2.2.r1-r0/tf-a-stm32mp-2.2.r1/../build/serialboot/bl2/stm32_qspi.o
 .rodata.stm32_qspi_exec_op.str1.1
                0x000000002ffe49f4       0x4e /home/charles/linux/code/tfa/mp157_alientek/tf-a-stm32mp-2.2.r1-r0/tf-a-stm32mp-2.2.r1/../build/serialboot/bl2/stm32_qspi.o
 .rodata.stm32_qspi_init.str1.1
                0x000000002ffe4a42       0x2f /home/charles/linux/code/tfa/mp157_alientek/tf-a-stm32mp-2.2.r1-r0/tf-a-stm32mp-2.2.r1/../build/serialboot/bl2/stm32_qspi.o
                                         0x34 (size before relaxing)
 .rodata.__func__.6560
                0x000000002ffe4a71       0x1d /home/charles/linux/code/tfa/mp157_alientek/tf-a-stm32mp-2.2.r1-r0/tf-a-stm32mp-2.2.r1/../build/serialboot/bl2/stm32_qspi.o
 .rodata.__func__.6572
                0x000000002ffe4a8e       0x14 /home/charles/linux/code/tfa/mp157_alientek/tf-a-stm32mp-2.2.r1-r0/tf-a-stm32mp-2.2.r1/../build/serialboot/bl2/stm32_qspi.o
 .rodata.__func__.6590
                0x000000002ffe4aa2       0x10 /home/charles/linux/code/tfa/mp157_alientek/tf-a-stm32mp-2.2.r1-r0/tf-a-stm32mp-2.2.r1/../build/serialboot/bl2/stm32_qspi.o
 .rodata.__func__.6615
                0x000000002ffe4ab2       0x13 /home/charles/linux/code/tfa/mp157_alientek/tf-a-stm32mp-2.2.r1-r0/tf-a-stm32mp-2.2.r1/../build/serialboot/bl2/stm32_qspi.o
 *fill*         0x000000002ffe4ac5        0x3 
 .rodata.stm32_qspi_bus_ops
                0x000000002ffe4ac8       0x14 /home/charles/linux/code/tfa/mp157_alientek/tf-a-stm32mp-2.2.r1-r0/tf-a-stm32mp-2.2.r1/../build/serialboot/bl2/stm32_qspi.o
 .rodata.get_data_from_otp.str1.1
                0x000000002ffe4adc       0x74 /home/charles/linux/code/tfa/mp157_alientek/tf-a-stm32mp-2.2.r1-r0/tf-a-stm32mp-2.2.r1/../build/serialboot/bl2/stm32mp1_boot_device.o
 .rodata.set_reg.str1.1
                0x000000002ffe4b50       0x21 /home/charles/linux/code/tfa/mp157_alientek/tf-a-stm32mp-2.2.r1-r0/tf-a-stm32mp-2.2.r1/../build/serialboot/bl2/stm32mp1_ddr.o
 .rodata.stm32mp1_ddr_init.str1.1
                0x000000002ffe4b71       0x19 /home/charles/linux/code/tfa/mp157_alientek/tf-a-stm32mp-2.2.r1-r0/tf-a-stm32mp-2.2.r1/../build/serialboot/bl2/stm32mp1_ddr.o
 .rodata.str1.1
                0x000000002ffe4b8a      0x307 /home/charles/linux/code/tfa/mp157_alientek/tf-a-stm32mp-2.2.r1-r0/tf-a-stm32mp-2.2.r1/../build/serialboot/bl2/stm32mp1_ddr.o
                                        0x320 (size before relaxing)
 *fill*         0x000000002ffe4e91        0x3 
 .rodata.ddr_map
                0x000000002ffe4e94       0x48 /home/charles/linux/code/tfa/mp157_alientek/tf-a-stm32mp-2.2.r1-r0/tf-a-stm32mp-2.2.r1/../build/serialboot/bl2/stm32mp1_ddr.o
 .rodata.ddr_perf
                0x000000002ffe4edc       0x88 /home/charles/linux/code/tfa/mp157_alientek/tf-a-stm32mp-2.2.r1-r0/tf-a-stm32mp-2.2.r1/../build/serialboot/bl2/stm32mp1_ddr.o
 .rodata.ddr_reg
                0x000000002ffe4f64       0xc8 /home/charles/linux/code/tfa/mp157_alientek/tf-a-stm32mp-2.2.r1-r0/tf-a-stm32mp-2.2.r1/../build/serialboot/bl2/stm32mp1_ddr.o
 .rodata.ddr_registers
                0x000000002ffe502c       0x70 /home/charles/linux/code/tfa/mp157_alientek/tf-a-stm32mp-2.2.r1-r0/tf-a-stm32mp-2.2.r1/../build/serialboot/bl2/stm32mp1_ddr.o
 .rodata.ddr_timing
                0x000000002ffe509c       0x60 /home/charles/linux/code/tfa/mp157_alientek/tf-a-stm32mp-2.2.r1-r0/tf-a-stm32mp-2.2.r1/../build/serialboot/bl2/stm32mp1_ddr.o
 .rodata.ddrphy_cal
                0x000000002ffe50fc       0x60 /home/charles/linux/code/tfa/mp157_alientek/tf-a-stm32mp-2.2.r1-r0/tf-a-stm32mp-2.2.r1/../build/serialboot/bl2/stm32mp1_ddr.o
 .rodata.ddrphy_reg
                0x000000002ffe515c       0x58 /home/charles/linux/code/tfa/mp157_alientek/tf-a-stm32mp-2.2.r1-r0/tf-a-stm32mp-2.2.r1/../build/serialboot/bl2/stm32mp1_ddr.o
 .rodata.ddrphy_timing
                0x000000002ffe51b4       0x50 /home/charles/linux/code/tfa/mp157_alientek/tf-a-stm32mp-2.2.r1-r0/tf-a-stm32mp-2.2.r1/../build/serialboot/bl2/stm32mp1_ddr.o
 .rodata.stm32mp1_ddr_setup.str1.1
                0x000000002ffe5204      0x189 /home/charles/linux/code/tfa/mp157_alientek/tf-a-stm32mp-2.2.r1-r0/tf-a-stm32mp-2.2.r1/../build/serialboot/bl2/stm32mp1_ram.o
 .rodata.stm32mp1_ddr_clk_enable.str1.1
                0x000000002ffe538d       0x2f /home/charles/linux/code/tfa/mp157_alientek/tf-a-stm32mp-2.2.r1-r0/tf-a-stm32mp-2.2.r1/../build/serialboot/bl2/stm32mp1_ram.o
 .rodata.__func__.6740
                0x000000002ffe53bc       0x13 /home/charles/linux/code/tfa/mp157_alientek/tf-a-stm32mp-2.2.r1-r0/tf-a-stm32mp-2.2.r1/../build/serialboot/bl2/stm32mp1_ram.o
 .rodata.flush_bl_params_desc_args.str1.1
                0x000000002ffe53cf       0x19 /home/charles/linux/code/tfa/mp157_alientek/tf-a-stm32mp-2.2.r1-r0/tf-a-stm32mp-2.2.r1/../build/serialboot/bl2/desc_image_load.o
 .rodata.bl2_load_images.str1.1
                0x000000002ffe53e8      0x114 /home/charles/linux/code/tfa/mp157_alientek/tf-a-stm32mp-2.2.r1-r0/tf-a-stm32mp-2.2.r1/../build/serialboot/bl2/bl2_image_load_v2.o
 .rodata.bl2_main.str1.1
                0x000000002ffe54fc       0x1e /home/charles/linux/code/tfa/mp157_alientek/tf-a-stm32mp-2.2.r1-r0/tf-a-stm32mp-2.2.r1/../build/serialboot/bl2/bl2_main.o
 .rodata.load_auth_image_internal.str1.1
                0x000000002ffe551a       0xd8 /home/charles/linux/code/tfa/mp157_alientek/tf-a-stm32mp-2.2.r1-r0/tf-a-stm32mp-2.2.r1/../build/serialboot/bl2/bl_common.o
                                        0x12d (size before relaxing)
 .rodata.print_entry_point_info.str1.1
                0x000000002ffe55f2       0x2c /home/charles/linux/code/tfa/mp157_alientek/tf-a-stm32mp-2.2.r1-r0/tf-a-stm32mp-2.2.r1/../build/serialboot/bl2/bl_common.o
 .rodata.tf_log.str1.1
                0x000000002ffe561e       0x10 /home/charles/linux/code/tfa/mp157_alientek/tf-a-stm32mp-2.2.r1-r0/tf-a-stm32mp-2.2.r1/../build/serialboot/bl2/tf_log.o
 .rodata.console_unregister.str1.1
                0x000000002ffe562e       0x20 /home/charles/linux/code/tfa/mp157_alientek/tf-a-stm32mp-2.2.r1-r0/tf-a-stm32mp-2.2.r1/../build/serialboot/bl2/multi_console.o
 .rodata.str1.1
                0x000000002ffe564e       0x32 /home/charles/linux/code/tfa/mp157_alientek/tf-a-stm32mp-2.2.r1-r0/tf-a-stm32mp-2.2.r1/../build/serialboot/bl2/plat_log_common.o
 .rodata.plat_prefix_str
                0x000000002ffe5680       0x14 /home/charles/linux/code/tfa/mp157_alientek/tf-a-stm32mp-2.2.r1-r0/tf-a-stm32mp-2.2.r1/../build/serialboot/bl2/plat_log_common.o
 .rodata.stm32_get_gpio_bank_base.str1.1
                0x000000002ffe5694       0x20 /home/charles/linux/code/tfa/mp157_alientek/tf-a-stm32mp-2.2.r1-r0/tf-a-stm32mp-2.2.r1/../build/serialboot/bl2/stm32mp_common.o
 .rodata.stm32mp_check_header.str1.1
                0x000000002ffe56b4       0x41 /home/charles/linux/code/tfa/mp157_alientek/tf-a-stm32mp-2.2.r1-r0/tf-a-stm32mp-2.2.r1/../build/serialboot/bl2/stm32mp_common.o
 .rodata.stm32_get_gpio_bank_clock.str1.1
                0x000000002ffe56f5       0x24 /home/charles/linux/code/tfa/mp157_alientek/tf-a-stm32mp-2.2.r1-r0/tf-a-stm32mp-2.2.r1/../build/serialboot/bl2/stm32mp1_private.o
 .rodata.stm32_get_otp_value_from_idx.str1.1
                0x000000002ffe5719       0x1a /home/charles/linux/code/tfa/mp157_alientek/tf-a-stm32mp-2.2.r1-r0/tf-a-stm32mp-2.2.r1/../build/serialboot/bl2/stm32mp1_private.o
 .rodata.stm32_get_otp_value.str1.1
                0x000000002ffe5733       0x16 /home/charles/linux/code/tfa/mp157_alientek/tf-a-stm32mp-2.2.r1-r0/tf-a-stm32mp-2.2.r1/../build/serialboot/bl2/stm32mp1_private.o
 .rodata.get_part_number.str1.1
                0x000000002ffe5749       0x36 /home/charles/linux/code/tfa/mp157_alientek/tf-a-stm32mp-2.2.r1-r0/tf-a-stm32mp-2.2.r1/../build/serialboot/bl2/stm32mp1_private.o
 .rodata.stm32mp_print_cpuinfo.str1.1
                0x000000002ffe577f       0x92 /home/charles/linux/code/tfa/mp157_alientek/tf-a-stm32mp-2.2.r1-r0/tf-a-stm32mp-2.2.r1/../build/serialboot/bl2/stm32mp1_private.o
                                         0x99 (size before relaxing)
 .rodata.stm32mp_print_boardinfo.str1.1
                0x000000002ffe5811       0x2e /home/charles/linux/code/tfa/mp157_alientek/tf-a-stm32mp-2.2.r1-r0/tf-a-stm32mp-2.2.r1/../build/serialboot/bl2/stm32mp1_private.o
 .rodata.stm32mp_is_closed_device.str1.1
                0x000000002ffe583f        0x9 /home/charles/linux/code/tfa/mp157_alientek/tf-a-stm32mp-2.2.r1-r0/tf-a-stm32mp-2.2.r1/../build/serialboot/bl2/stm32mp1_private.o
 .rodata.stm32_iwdg_get_otp_config.str1.1
                0x000000002ffe5848        0x8 /home/charles/linux/code/tfa/mp157_alientek/tf-a-stm32mp-2.2.r1-r0/tf-a-stm32mp-2.2.r1/../build/serialboot/bl2/stm32mp1_private.o
 .rodata.plat_bind_regulator.str1.1
                0x000000002ffe5850       0x14 /home/charles/linux/code/tfa/mp157_alientek/tf-a-stm32mp-2.2.r1-r0/tf-a-stm32mp-2.2.r1/../build/serialboot/bl2/stm32mp1_private.o
 .rodata.str1.1
                0x000000002ffe5864        0xc /home/charles/linux/code/tfa/mp157_alientek/tf-a-stm32mp-2.2.r1-r0/tf-a-stm32mp-2.2.r1/../build/serialboot/bl2/stm32mp1_private.o
 .rodata.CSWTCH.52
                0x000000002ffe5870       0x10 /home/charles/linux/code/tfa/mp157_alientek/tf-a-stm32mp-2.2.r1-r0/tf-a-stm32mp-2.2.r1/../build/serialboot/bl2/stm32mp1_private.o
 .rodata.stm32mp1_mmap
                0x000000002ffe5880       0x60 /home/charles/linux/code/tfa/mp157_alientek/tf-a-stm32mp-2.2.r1-r0/tf-a-stm32mp-2.2.r1/../build/serialboot/bl2/stm32mp1_private.o
 .rodata.xlat_arch_regime_get_xn_desc.str1.1
                0x000000002ffe58e0       0x2e /home/charles/linux/code/tfa/mp157_alientek/tf-a-stm32mp-2.2.r1-r0/tf-a-stm32mp-2.2.r1/../build/serialboot/bl2/xlat_tables_arch.o
 .rodata.mmap_add_alloc_va.str1.1
                0x000000002ffe590e       0x29 /home/charles/linux/code/tfa/mp157_alientek/tf-a-stm32mp-2.2.r1-r0/tf-a-stm32mp-2.2.r1/../build/serialboot/bl2/xlat_tables_context.o
 .rodata.xlat_table_get_index.str1.1
                0x000000002ffe5937       0x26 /home/charles/linux/code/tfa/mp157_alientek/tf-a-stm32mp-2.2.r1-r0/tf-a-stm32mp-2.2.r1/../build/serialboot/bl2/xlat_tables_core.o
 .rodata.mmap_add_region_ctx.str1.1
                0x000000002ffe595d       0x2b /home/charles/linux/code/tfa/mp157_alientek/tf-a-stm32mp-2.2.r1-r0/tf-a-stm32mp-2.2.r1/../build/serialboot/bl2/xlat_tables_core.o
 .rodata.init_xlat_tables_ctx.str1.1
                0x000000002ffe5988       0x4f /home/charles/linux/code/tfa/mp157_alientek/tf-a-stm32mp-2.2.r1-r0/tf-a-stm32mp-2.2.r1/../build/serialboot/bl2/xlat_tables_core.o
 .rodata.tzc400_set_action.str1.1
                0x000000002ffe59d7       0x19 /home/charles/linux/code/tfa/mp157_alientek/tf-a-stm32mp-2.2.r1-r0/tf-a-stm32mp-2.2.r1/../build/serialboot/bl2/tzc400.o
 .rodata.tzc400_init.str1.1
                0x000000002ffe59f0       0x24 /home/charles/linux/code/tfa/mp157_alientek/tf-a-stm32mp-2.2.r1-r0/tf-a-stm32mp-2.2.r1/../build/serialboot/bl2/tzc400.o
 .rodata.tzc400_enable_filters.str1.1
                0x000000002ffe5a14       0x30 /home/charles/linux/code/tfa/mp157_alientek/tf-a-stm32mp-2.2.r1-r0/tf-a-stm32mp-2.2.r1/../build/serialboot/bl2/tzc400.o
 .rodata.udelay.str1.1
                0x000000002ffe5a44       0x22 /home/charles/linux/code/tfa/mp157_alientek/tf-a-stm32mp-2.2.r1-r0/tf-a-stm32mp-2.2.r1/../build/serialboot/bl2/delay_timer.o
 .rodata.generic_delay_timer_init.str1.1
                0x000000002ffe5a66       0x2a /home/charles/linux/code/tfa/mp157_alientek/tf-a-stm32mp-2.2.r1-r0/tf-a-stm32mp-2.2.r1/../build/serialboot/bl2/generic_delay_timer.o
 .rodata.otp_bank_offset.str1.1
                0x000000002ffe5a90       0x18 /home/charles/linux/code/tfa/mp157_alientek/tf-a-stm32mp-2.2.r1-r0/tf-a-stm32mp-2.2.r1/../build/serialboot/bl2/bsec2.o
 .rodata.bsec_find_otp_name_in_dt.str1.1
                0x000000002ffe5aa8       0x85 /home/charles/linux/code/tfa/mp157_alientek/tf-a-stm32mp-2.2.r1-r0/tf-a-stm32mp-2.2.r1/../build/serialboot/bl2/bsec2.o
                                         0x89 (size before relaxing)
 .rodata.bsec_probe.str1.1
                0x000000002ffe5b2d       0x12 /home/charles/linux/code/tfa/mp157_alientek/tf-a-stm32mp-2.2.r1-r0/tf-a-stm32mp-2.2.r1/../build/serialboot/bl2/bsec2.o
 .rodata.bsec_shadow_register.str1.1
                0x000000002ffe5b3f       0x29 /home/charles/linux/code/tfa/mp157_alientek/tf-a-stm32mp-2.2.r1-r0/tf-a-stm32mp-2.2.r1/../build/serialboot/bl2/bsec2.o
 .rodata.bsec_write_otp.str1.1
                0x000000002ffe5b68       0x2a /home/charles/linux/code/tfa/mp157_alientek/tf-a-stm32mp-2.2.r1-r0/tf-a-stm32mp-2.2.r1/../build/serialboot/bl2/bsec2.o
 .rodata.bsec_program_otp.str1.1
                0x000000002ffe5b92       0xa8 /home/charles/linux/code/tfa/mp157_alientek/tf-a-stm32mp-2.2.r1-r0/tf-a-stm32mp-2.2.r1/../build/serialboot/bl2/bsec2.o
 .rodata.bsec_shadow_read_otp.str1.1
                0x000000002ffe5c3a       0x37 /home/charles/linux/code/tfa/mp157_alientek/tf-a-stm32mp-2.2.r1-r0/tf-a-stm32mp-2.2.r1/../build/serialboot/bl2/bsec2.o
 .rodata.fdt_osc_read_freq.str1.1
                0x000000002ffe5c71       0x18 /home/charles/linux/code/tfa/mp157_alientek/tf-a-stm32mp-2.2.r1-r0/tf-a-stm32mp-2.2.r1/../build/serialboot/bl2/stm32mp_clkfunc.o
 .rodata.fdt_get_rcc_node.str1.1
                0x000000002ffe5c89       0x10 /home/charles/linux/code/tfa/mp157_alientek/tf-a-stm32mp-2.2.r1-r0/tf-a-stm32mp-2.2.r1/../build/serialboot/bl2/stm32mp_clkfunc.o
 .rodata.fdt_get_clock_id.str1.1
                0x000000002ffe5c99       0x10 /home/charles/linux/code/tfa/mp157_alientek/tf-a-stm32mp-2.2.r1-r0/tf-a-stm32mp-2.2.r1/../build/serialboot/bl2/stm32mp_clkfunc.o
                                          0x7 (size before relaxing)
 .rodata.fdt_is_pll1_predefined.str1.1
                0x000000002ffe5c99        0x9 /home/charles/linux/code/tfa/mp157_alientek/tf-a-stm32mp-2.2.r1-r0/tf-a-stm32mp-2.2.r1/../build/serialboot/bl2/stm32mp_clkfunc.o
 .rodata.stm32mp1_pll_stop.str1.1
                0x000000002ffe5ca2       0x22 /home/charles/linux/code/tfa/mp157_alientek/tf-a-stm32mp-2.2.r1-r0/tf-a-stm32mp-2.2.r1/../build/serialboot/bl2/stm32mp1_clk.o
 .rodata.stm32mp1_check_pll_conf.str1.1
                0x000000002ffe5cc4        0x5 /home/charles/linux/code/tfa/mp157_alientek/tf-a-stm32mp-2.2.r1-r0/tf-a-stm32mp-2.2.r1/../build/serialboot/bl2/stm32mp1_clk.o
 .rodata.stm32mp1_clk_get_gated_id.str1.1
                0x000000002ffe5cc9       0x1a /home/charles/linux/code/tfa/mp157_alientek/tf-a-stm32mp-2.2.r1-r0/tf-a-stm32mp-2.2.r1/../build/serialboot/bl2/stm32mp1_clk.o
 .rodata.__stm32mp1_clk_enable.str1.1
                0x000000002ffe5ce3       0x1c /home/charles/linux/code/tfa/mp157_alientek/tf-a-stm32mp-2.2.r1-r0/tf-a-stm32mp-2.2.r1/../build/serialboot/bl2/stm32mp1_clk.o
 .rodata.__stm32mp1_clk_disable.str1.1
                0x000000002ffe5cff       0x1d /home/charles/linux/code/tfa/mp157_alientek/tf-a-stm32mp-2.2.r1-r0/tf-a-stm32mp-2.2.r1/../build/serialboot/bl2/stm32mp1_clk.o
 .rodata.stm32mp1_set_clkdiv.str1.1
                0x000000002ffe5d1c       0x27 /home/charles/linux/code/tfa/mp157_alientek/tf-a-stm32mp-2.2.r1-r0/tf-a-stm32mp-2.2.r1/../build/serialboot/bl2/stm32mp1_clk.o
 .rodata.stm32mp1_osc_wait.str1.1
                0x000000002ffe5d43       0x2c /home/charles/linux/code/tfa/mp157_alientek/tf-a-stm32mp-2.2.r1-r0/tf-a-stm32mp-2.2.r1/../build/serialboot/bl2/stm32mp1_clk.o
 .rodata.stm32mp1_set_clksrc.str1.1
                0x000000002ffe5d6f       0x27 /home/charles/linux/code/tfa/mp157_alientek/tf-a-stm32mp-2.2.r1-r0/tf-a-stm32mp-2.2.r1/../build/serialboot/bl2/stm32mp1_clk.o
 .rodata.stm32mp1_pll_output.str1.1
                0x000000002ffe5d96       0x23 /home/charles/linux/code/tfa/mp157_alientek/tf-a-stm32mp-2.2.r1-r0/tf-a-stm32mp-2.2.r1/../build/serialboot/bl2/stm32mp1_clk.o
 .rodata.stm32mp1_clk_get_maxfreq_opp.str1.1
                0x000000002ffe5db9       0x1e /home/charles/linux/code/tfa/mp157_alientek/tf-a-stm32mp-2.2.r1-r0/tf-a-stm32mp-2.2.r1/../build/serialboot/bl2/stm32mp1_clk.o
 .rodata.stm32mp1_clk_init.str1.1
                0x000000002ffe5dd7       0x8b /home/charles/linux/code/tfa/mp157_alientek/tf-a-stm32mp-2.2.r1-r0/tf-a-stm32mp-2.2.r1/../build/serialboot/bl2/stm32mp1_clk.o
                                         0x8f (size before relaxing)
 .rodata.str1.1
                0x000000002ffe5e62       0x31 /home/charles/linux/code/tfa/mp157_alientek/tf-a-stm32mp-2.2.r1-r0/tf-a-stm32mp-2.2.r1/../build/serialboot/bl2/stm32mp1_clk.o
 .rodata.__func__.7250
                0x000000002ffe5e93       0x1a /home/charles/linux/code/tfa/mp157_alientek/tf-a-stm32mp-2.2.r1-r0/tf-a-stm32mp-2.2.r1/../build/serialboot/bl2/stm32mp1_clk.o
 .rodata.axiss_parents
                0x000000002ffe5ead        0x3 /home/charles/linux/code/tfa/mp157_alientek/tf-a-stm32mp-2.2.r1-r0/tf-a-stm32mp-2.2.r1/../build/serialboot/bl2/stm32mp1_clk.o
 .rodata.fmc_parents
                0x000000002ffe5eb0        0x4 /home/charles/linux/code/tfa/mp157_alientek/tf-a-stm32mp-2.2.r1-r0/tf-a-stm32mp-2.2.r1/../build/serialboot/bl2/stm32mp1_clk.o
 .rodata.i2c12_parents
                0x000000002ffe5eb4        0x4 /home/charles/linux/code/tfa/mp157_alientek/tf-a-stm32mp-2.2.r1-r0/tf-a-stm32mp-2.2.r1/../build/serialboot/bl2/stm32mp1_clk.o
 .rodata.i2c35_parents
                0x000000002ffe5eb8        0x4 /home/charles/linux/code/tfa/mp157_alientek/tf-a-stm32mp-2.2.r1-r0/tf-a-stm32mp-2.2.r1/../build/serialboot/bl2/stm32mp1_clk.o
 .rodata.i2c46_parents
                0x000000002ffe5ebc        0x4 /home/charles/linux/code/tfa/mp157_alientek/tf-a-stm32mp-2.2.r1-r0/tf-a-stm32mp-2.2.r1/../build/serialboot/bl2/stm32mp1_clk.o
 .rodata.mcuss_parents
                0x000000002ffe5ec0        0x4 /home/charles/linux/code/tfa/mp157_alientek/tf-a-stm32mp-2.2.r1-r0/tf-a-stm32mp-2.2.r1/../build/serialboot/bl2/stm32mp1_clk.o
 .rodata.mpu_parents
                0x000000002ffe5ec4        0x4 /home/charles/linux/code/tfa/mp157_alientek/tf-a-stm32mp-2.2.r1-r0/tf-a-stm32mp-2.2.r1/../build/serialboot/bl2/stm32mp1_clk.o
 .rodata.parent_id_clock_id
                0x000000002ffe5ec8       0x22 /home/charles/linux/code/tfa/mp157_alientek/tf-a-stm32mp-2.2.r1-r0/tf-a-stm32mp-2.2.r1/../build/serialboot/bl2/stm32mp1_clk.o
 .rodata.per_parents
                0x000000002ffe5eea        0x3 /home/charles/linux/code/tfa/mp157_alientek/tf-a-stm32mp-2.2.r1-r0/tf-a-stm32mp-2.2.r1/../build/serialboot/bl2/stm32mp1_clk.o
 .rodata.pllncfgr2
                0x000000002ffe5eed        0x3 /home/charles/linux/code/tfa/mp157_alientek/tf-a-stm32mp-2.2.r1-r0/tf-a-stm32mp-2.2.r1/../build/serialboot/bl2/stm32mp1_clk.o
 .rodata.qspi_parents
                0x000000002ffe5ef0        0x4 /home/charles/linux/code/tfa/mp157_alientek/tf-a-stm32mp-2.2.r1-r0/tf-a-stm32mp-2.2.r1/../build/serialboot/bl2/stm32mp1_clk.o
 .rodata.rng1_parents
                0x000000002ffe5ef4        0x4 /home/charles/linux/code/tfa/mp157_alientek/tf-a-stm32mp-2.2.r1-r0/tf-a-stm32mp-2.2.r1/../build/serialboot/bl2/stm32mp1_clk.o
 .rodata.rtc_parents
                0x000000002ffe5ef8        0x4 /home/charles/linux/code/tfa/mp157_alientek/tf-a-stm32mp-2.2.r1-r0/tf-a-stm32mp-2.2.r1/../build/serialboot/bl2/stm32mp1_clk.o
 .rodata.sdmmc12_parents
                0x000000002ffe5efc        0x4 /home/charles/linux/code/tfa/mp157_alientek/tf-a-stm32mp-2.2.r1-r0/tf-a-stm32mp-2.2.r1/../build/serialboot/bl2/stm32mp1_clk.o
 .rodata.sdmmc3_parents
                0x000000002ffe5f00        0x4 /home/charles/linux/code/tfa/mp157_alientek/tf-a-stm32mp-2.2.r1-r0/tf-a-stm32mp-2.2.r1/../build/serialboot/bl2/stm32mp1_clk.o
 .rodata.spi6_parents
                0x000000002ffe5f04        0x6 /home/charles/linux/code/tfa/mp157_alientek/tf-a-stm32mp-2.2.r1-r0/tf-a-stm32mp-2.2.r1/../build/serialboot/bl2/stm32mp1_clk.o
 .rodata.stgen_parents
                0x000000002ffe5f0a        0x2 /home/charles/linux/code/tfa/mp157_alientek/tf-a-stm32mp-2.2.r1-r0/tf-a-stm32mp-2.2.r1/../build/serialboot/bl2/stm32mp1_clk.o
 .rodata.stm32mp1_axi_div
                0x000000002ffe5f0c        0x8 /home/charles/linux/code/tfa/mp157_alientek/tf-a-stm32mp-2.2.r1-r0/tf-a-stm32mp-2.2.r1/../build/serialboot/bl2/stm32mp1_clk.o
 .rodata.stm32mp1_clk_gate
                0x000000002ffe5f14      0x1b8 /home/charles/linux/code/tfa/mp157_alientek/tf-a-stm32mp-2.2.r1-r0/tf-a-stm32mp-2.2.r1/../build/serialboot/bl2/stm32mp1_clk.o
 .rodata.stm32mp1_clk_pll
                0x000000002ffe60cc       0x80 /home/charles/linux/code/tfa/mp157_alientek/tf-a-stm32mp-2.2.r1-r0/tf-a-stm32mp-2.2.r1/../build/serialboot/bl2/stm32mp1_clk.o
 .rodata.stm32mp1_clk_sel
                0x000000002ffe614c      0x108 /home/charles/linux/code/tfa/mp157_alientek/tf-a-stm32mp-2.2.r1-r0/tf-a-stm32mp-2.2.r1/../build/serialboot/bl2/stm32mp1_clk.o
 .rodata.stm32mp1_mcu_div
                0x000000002ffe6254       0x10 /home/charles/linux/code/tfa/mp157_alientek/tf-a-stm32mp-2.2.r1-r0/tf-a-stm32mp-2.2.r1/../build/serialboot/bl2/stm32mp1_clk.o
 .rodata.stm32mp1_mpu_apbx_div
                0x000000002ffe6264        0x8 /home/charles/linux/code/tfa/mp157_alientek/tf-a-stm32mp-2.2.r1-r0/tf-a-stm32mp-2.2.r1/../build/serialboot/bl2/stm32mp1_clk.o
 .rodata.stm32mp1_pll
                0x000000002ffe626c        0x6 /home/charles/linux/code/tfa/mp157_alientek/tf-a-stm32mp-2.2.r1-r0/tf-a-stm32mp-2.2.r1/../build/serialboot/bl2/stm32mp1_clk.o
 .rodata.uart234578_parents
                0x000000002ffe6272        0x5 /home/charles/linux/code/tfa/mp157_alientek/tf-a-stm32mp-2.2.r1-r0/tf-a-stm32mp-2.2.r1/../build/serialboot/bl2/stm32mp1_clk.o
 .rodata.uart6_parents
                0x000000002ffe6277        0x5 /home/charles/linux/code/tfa/mp157_alientek/tf-a-stm32mp-2.2.r1-r0/tf-a-stm32mp-2.2.r1/../build/serialboot/bl2/stm32mp1_clk.o
 .rodata.usart1_parents
                0x000000002ffe627c        0x6 /home/charles/linux/code/tfa/mp157_alientek/tf-a-stm32mp-2.2.r1-r0/tf-a-stm32mp-2.2.r1/../build/serialboot/bl2/stm32mp1_clk.o
 .rodata.usbo_parents
                0x000000002ffe6282        0x2 /home/charles/linux/code/tfa/mp157_alientek/tf-a-stm32mp-2.2.r1-r0/tf-a-stm32mp-2.2.r1/../build/serialboot/bl2/stm32mp1_clk.o
 .rodata.usbphy_parents
                0x000000002ffe6284        0x3 /home/charles/linux/code/tfa/mp157_alientek/tf-a-stm32mp-2.2.r1-r0/tf-a-stm32mp-2.2.r1/../build/serialboot/bl2/stm32mp1_clk.o
 .rodata.ddr_set_sr_mode.str1.1
                0x000000002ffe6287       0x1c /home/charles/linux/code/tfa/mp157_alientek/tf-a-stm32mp-2.2.r1-r0/tf-a-stm32mp-2.2.r1/../build/serialboot/bl2/stm32mp1_ddr_helpers.o
 .rodata.CSWTCH.26
                0x000000002ffe62a3        0xa /home/charles/linux/code/tfa/mp157_alientek/tf-a-stm32mp-2.2.r1-r0/tf-a-stm32mp-2.2.r1/../build/serialboot/bl2/stm32mp1_ddr_helpers.o
 .rodata.set_gpio.str1.1
                0x000000002ffe62ad       0x1d /home/charles/linux/code/tfa/mp157_alientek/tf-a-stm32mp-2.2.r1-r0/tf-a-stm32mp-2.2.r1/../build/serialboot/bl2/stm32_gpio.o
 .rodata.dt_set_pinctrl_config.str1.1
                0x000000002ffe62ca       0x75 /home/charles/linux/code/tfa/mp157_alientek/tf-a-stm32mp-2.2.r1-r0/tf-a-stm32mp-2.2.r1/../build/serialboot/bl2/stm32_gpio.o
                                         0x79 (size before relaxing)
 .rodata.stm32_i2c_get_setup_from_fdt.str1.1
                0x000000002ffe633f       0x4d /home/charles/linux/code/tfa/mp157_alientek/tf-a-stm32mp-2.2.r1-r0/tf-a-stm32mp-2.2.r1/../build/serialboot/bl2/stm32_i2c.o
                                         0x5d (size before relaxing)
 .rodata.stm32_i2c_init.str1.1
                0x000000002ffe638c      0x146 /home/charles/linux/code/tfa/mp157_alientek/tf-a-stm32mp-2.2.r1-r0/tf-a-stm32mp-2.2.r1/../build/serialboot/bl2/stm32_i2c.o
 *fill*         0x000000002ffe64d2        0x2 
 .rodata.i2c_specs
                0x000000002ffe64d4       0x60 /home/charles/linux/code/tfa/mp157_alientek/tf-a-stm32mp-2.2.r1-r0/tf-a-stm32mp-2.2.r1/../build/serialboot/bl2/stm32_i2c.o
 .rodata.stm32_iwdg_init.str1.1
                0x000000002ffe6534       0x63 /home/charles/linux/code/tfa/mp157_alientek/tf-a-stm32mp-2.2.r1-r0/tf-a-stm32mp-2.2.r1/../build/serialboot/bl2/stm32_iwdg.o
 .rodata.dt_get_pmic_node.str1.1
                0x000000002ffe6597        0xb /home/charles/linux/code/tfa/mp157_alientek/tf-a-stm32mp-2.2.r1-r0/tf-a-stm32mp-2.2.r1/../build/serialboot/bl2/stm32mp_pmic.o
 .rodata.dt_pmic_get_regulator_voltage.str1.1
                0x000000002ffe65a2       0x30 /home/charles/linux/code/tfa/mp157_alientek/tf-a-stm32mp-2.2.r1-r0/tf-a-stm32mp-2.2.r1/../build/serialboot/bl2/stm32mp_pmic.o
 .rodata.pmic_operate.str1.1
                0x000000002ffe65d2       0x53 /home/charles/linux/code/tfa/mp157_alientek/tf-a-stm32mp-2.2.r1-r0/tf-a-stm32mp-2.2.r1/../build/serialboot/bl2/stm32mp_pmic.o
                                         0x72 (size before relaxing)
 .rodata.dt_pmic_find_supply.str1.1
                0x000000002ffe6625        0xf /home/charles/linux/code/tfa/mp157_alientek/tf-a-stm32mp-2.2.r1-r0/tf-a-stm32mp-2.2.r1/../build/serialboot/bl2/stm32mp_pmic.o
 .rodata.initialize_pmic_i2c.str1.1
                0x000000002ffe6634       0x55 /home/charles/linux/code/tfa/mp157_alientek/tf-a-stm32mp-2.2.r1-r0/tf-a-stm32mp-2.2.r1/../build/serialboot/bl2/stm32mp_pmic.o
                                         0x59 (size before relaxing)
 .rodata.is_pmic_regulator.str1.1
                0x000000002ffe6689       0x16 /home/charles/linux/code/tfa/mp157_alientek/tf-a-stm32mp-2.2.r1-r0/tf-a-stm32mp-2.2.r1/../build/serialboot/bl2/stm32mp_pmic.o
 .rodata.print_pmic_info_and_debug.str1.1
                0x000000002ffe669f       0x31 /home/charles/linux/code/tfa/mp157_alientek/tf-a-stm32mp-2.2.r1-r0/tf-a-stm32mp-2.2.r1/../build/serialboot/bl2/stm32mp_pmic.o
 .rodata.pmic_ddr_power_init.str1.1
                0x000000002ffe66d0       0x14 /home/charles/linux/code/tfa/mp157_alientek/tf-a-stm32mp-2.2.r1-r0/tf-a-stm32mp-2.2.r1/../build/serialboot/bl2/stm32mp_pmic.o
 .rodata.pmic_regu_ops
                0x000000002ffe66e4        0x8 /home/charles/linux/code/tfa/mp157_alientek/tf-a-stm32mp-2.2.r1-r0/tf-a-stm32mp-2.2.r1/../build/serialboot/bl2/stm32mp_pmic.o
 .rodata.stpmic1_regulator_voltage_get.str1.1
                0x000000002ffe66ec        0xe /home/charles/linux/code/tfa/mp157_alientek/tf-a-stm32mp-2.2.r1-r0/tf-a-stm32mp-2.2.r1/../build/serialboot/bl2/stpmic1.o
 .rodata.str1.1
                0x000000002ffe66fa       0x3c /home/charles/linux/code/tfa/mp157_alientek/tf-a-stm32mp-2.2.r1-r0/tf-a-stm32mp-2.2.r1/../build/serialboot/bl2/stpmic1.o
                                         0x50 (size before relaxing)
 .rodata.buck1_voltage_table
                0x000000002ffe6736       0x80 /home/charles/linux/code/tfa/mp157_alientek/tf-a-stm32mp-2.2.r1-r0/tf-a-stm32mp-2.2.r1/../build/serialboot/bl2/stpmic1.o
 .rodata.buck2_voltage_table
                0x000000002ffe67b6       0x4a /home/charles/linux/code/tfa/mp157_alientek/tf-a-stm32mp-2.2.r1-r0/tf-a-stm32mp-2.2.r1/../build/serialboot/bl2/stpmic1.o
 .rodata.buck3_voltage_table
                0x000000002ffe6800       0x70 /home/charles/linux/code/tfa/mp157_alientek/tf-a-stm32mp-2.2.r1-r0/tf-a-stm32mp-2.2.r1/../build/serialboot/bl2/stpmic1.o
 .rodata.buck4_voltage_table
                0x000000002ffe6870       0x7a /home/charles/linux/code/tfa/mp157_alientek/tf-a-stm32mp-2.2.r1-r0/tf-a-stm32mp-2.2.r1/../build/serialboot/bl2/stpmic1.o
 .rodata.fixed_5v_voltage_table
                0x000000002ffe68ea        0x2 /home/charles/linux/code/tfa/mp157_alientek/tf-a-stm32mp-2.2.r1-r0/tf-a-stm32mp-2.2.r1/../build/serialboot/bl2/stpmic1.o
 .rodata.ldo1_voltage_table
                0x000000002ffe68ec       0x32 /home/charles/linux/code/tfa/mp157_alientek/tf-a-stm32mp-2.2.r1-r0/tf-a-stm32mp-2.2.r1/../build/serialboot/bl2/stpmic1.o
 .rodata.ldo2_voltage_table
                0x000000002ffe691e       0x32 /home/charles/linux/code/tfa/mp157_alientek/tf-a-stm32mp-2.2.r1-r0/tf-a-stm32mp-2.2.r1/../build/serialboot/bl2/stpmic1.o
 .rodata.ldo3_voltage_table
                0x000000002ffe6950       0x42 /home/charles/linux/code/tfa/mp157_alientek/tf-a-stm32mp-2.2.r1-r0/tf-a-stm32mp-2.2.r1/../build/serialboot/bl2/stpmic1.o
 .rodata.ldo4_voltage_table
                0x000000002ffe6992        0x2 /home/charles/linux/code/tfa/mp157_alientek/tf-a-stm32mp-2.2.r1-r0/tf-a-stm32mp-2.2.r1/../build/serialboot/bl2/stpmic1.o
 .rodata.ldo5_voltage_table
                0x000000002ffe6994       0x3e /home/charles/linux/code/tfa/mp157_alientek/tf-a-stm32mp-2.2.r1-r0/tf-a-stm32mp-2.2.r1/../build/serialboot/bl2/stpmic1.o
 .rodata.ldo6_voltage_table
                0x000000002ffe69d2       0x32 /home/charles/linux/code/tfa/mp157_alientek/tf-a-stm32mp-2.2.r1-r0/tf-a-stm32mp-2.2.r1/../build/serialboot/bl2/stpmic1.o
 .rodata.regulators_table
                0x000000002ffe6a04       0xe0 /home/charles/linux/code/tfa/mp157_alientek/tf-a-stm32mp-2.2.r1-r0/tf-a-stm32mp-2.2.r1/../build/serialboot/bl2/stpmic1.o
 .rodata.vref_ddr_voltage_table
                0x000000002ffe6ae4        0x2 /home/charles/linux/code/tfa/mp157_alientek/tf-a-stm32mp-2.2.r1-r0/tf-a-stm32mp-2.2.r1/../build/serialboot/bl2/stpmic1.o
 *fill*         0x000000002ffe6ae6        0x2 
 .rodata.dummy_regu_ops
                0x000000002ffe6ae8        0x8 /home/charles/linux/code/tfa/mp157_alientek/tf-a-stm32mp-2.2.r1-r0/tf-a-stm32mp-2.2.r1/../build/serialboot/bl2/stm32mp_dummy_regulator.o
 .rodata.stm32mp_regulator_enable.str1.1
                0x000000002ffe6af0       0x29 /home/charles/linux/code/tfa/mp157_alientek/tf-a-stm32mp-2.2.r1-r0/tf-a-stm32mp-2.2.r1/../build/serialboot/bl2/stm32mp_regulator.o
 .rodata.dt_get_stdout_node_offset.str1.1
                0x000000002ffe6b19       0x25 /home/charles/linux/code/tfa/mp157_alientek/tf-a-stm32mp-2.2.r1-r0/tf-a-stm32mp-2.2.r1/../build/serialboot/bl2/stm32mp_dt.o
 .rodata.dt_get_opp_freqvolt_from_subnode.str1.1
                0x000000002ffe6b3e       0x26 /home/charles/linux/code/tfa/mp157_alientek/tf-a-stm32mp-2.2.r1-r0/tf-a-stm32mp-2.2.r1/../build/serialboot/bl2/stm32mp_dt.o
 .rodata.fdt_get_status.str1.1
                0x000000002ffe6b64       0x13 /home/charles/linux/code/tfa/mp157_alientek/tf-a-stm32mp-2.2.r1-r0/tf-a-stm32mp-2.2.r1/../build/serialboot/bl2/stm32mp_dt.o
                                         0x1a (size before relaxing)
 .rodata.fdt_get_reg_props_by_name.str1.1
                0x000000002ffe6b77       0x26 /home/charles/linux/code/tfa/mp157_alientek/tf-a-stm32mp-2.2.r1-r0/tf-a-stm32mp-2.2.r1/../build/serialboot/bl2/stm32mp_dt.o
                                         0x2a (size before relaxing)
 .rodata.dt_fill_device_info.str1.1
                0x000000002ffe6b9d        0x7 /home/charles/linux/code/tfa/mp157_alientek/tf-a-stm32mp-2.2.r1-r0/tf-a-stm32mp-2.2.r1/../build/serialboot/bl2/stm32mp_dt.o
                                          0xe (size before relaxing)
 .rodata.dt_get_node_by_compatible.str1.1
                0x000000002ffe6ba4       0x1c /home/charles/linux/code/tfa/mp157_alientek/tf-a-stm32mp-2.2.r1-r0/tf-a-stm32mp-2.2.r1/../build/serialboot/bl2/stm32mp_dt.o
 .rodata.dt_get_ddr_size.str1.1
                0x000000002ffe6bc0       0x1c /home/charles/linux/code/tfa/mp157_alientek/tf-a-stm32mp-2.2.r1-r0/tf-a-stm32mp-2.2.r1/../build/serialboot/bl2/stm32mp_dt.o
 .rodata.dt_get_max_opp_freqvolt.str1.1
                0x000000002ffe6bc0       0x14 /home/charles/linux/code/tfa/mp157_alientek/tf-a-stm32mp-2.2.r1-r0/tf-a-stm32mp-2.2.r1/../build/serialboot/bl2/stm32mp_dt.o
 .rodata.dt_get_pwr_vdd_voltage.str1.1
                0x000000002ffe6bd4       0x1f /home/charles/linux/code/tfa/mp157_alientek/tf-a-stm32mp-2.2.r1-r0/tf-a-stm32mp-2.2.r1/../build/serialboot/bl2/stm32mp_dt.o
                                         0x37 (size before relaxing)
 .rodata.dt_get_cpu_regulator_name.str1.1
                0x000000002ffe6bf3       0x17 /home/charles/linux/code/tfa/mp157_alientek/tf-a-stm32mp-2.2.r1-r0/tf-a-stm32mp-2.2.r1/../build/serialboot/bl2/stm32mp_dt.o
                                         0x26 (size before relaxing)
 .rodata.dt_get_board_model.str1.1
                0x000000002ffe6c0a        0x8 /home/charles/linux/code/tfa/mp157_alientek/tf-a-stm32mp-2.2.r1-r0/tf-a-stm32mp-2.2.r1/../build/serialboot/bl2/stm32mp_dt.o
 .rodata.stm32mp1_dbgmcu_init.str1.1
                0x000000002ffe6c12       0x36 /home/charles/linux/code/tfa/mp157_alientek/tf-a-stm32mp-2.2.r1-r0/tf-a-stm32mp-2.2.r1/../build/serialboot/bl2/stm32mp1_dbgmcu.o
 .rodata.stm32mp1_dbgmcu_get_chip_version.str1.1
                0x000000002ffe6c48       0x23 /home/charles/linux/code/tfa/mp157_alientek/tf-a-stm32mp-2.2.r1-r0/tf-a-stm32mp-2.2.r1/../build/serialboot/bl2/stm32mp1_dbgmcu.o
 .rodata.stm32mp1_syscfg_enable_io_compensation.str1.1
                0x000000002ffe6c6b       0x21 /home/charles/linux/code/tfa/mp157_alientek/tf-a-stm32mp-2.2.r1-r0/tf-a-stm32mp-2.2.r1/../build/serialboot/bl2/stm32mp1_syscfg.o
 .rodata.stm32mp1_syscfg_init.str1.1
                0x000000002ffe6c8c       0x8e /home/charles/linux/code/tfa/mp157_alientek/tf-a-stm32mp-2.2.r1-r0/tf-a-stm32mp-2.2.r1/../build/serialboot/bl2/stm32mp1_syscfg.o
                                         0x96 (size before relaxing)
 .rodata.str1.1
                0x000000002ffe6d1a       0x29 /home/charles/linux/code/tfa/mp157_alientek/tf-a-stm32mp-2.2.r1-r0/tf-a-stm32mp-2.2.r1/../build/serialboot/bl2/bl2_el3_entrypoint.o
 .rodata.str1.1
                0x000000002ffe6d43       0x1f /home/charles/linux/code/tfa/mp157_alientek/tf-a-stm32mp-2.2.r1-r0/tf-a-stm32mp-2.2.r1/../build/serialboot/bl2/cpu_helpers.o
 .rodata.panic_str
                0x000000002ffe6d62       0x14 /home/charles/linux/code/tfa/mp157_alientek/tf-a-stm32mp-2.2.r1-r0/tf-a-stm32mp-2.2.r1/../build/serialboot/bl2/debug.o
 .rodata.assert_str
                0x000000002ffe6d76       0x15 /home/charles/linux/code/tfa/mp157_alientek/tf-a-stm32mp-2.2.r1-r0/tf-a-stm32mp-2.2.r1/../build/serialboot/bl2/debug.o
 .rodata.str1.1
                0x000000002ffe6d8b       0x28 /home/charles/linux/code/tfa/mp157_alientek/tf-a-stm32mp-2.2.r1-r0/tf-a-stm32mp-2.2.r1/../build/serialboot/bl2/stm32_console.o
 .rodata.str1.1
                0x000000002ffe6db3       0x28 /home/charles/linux/code/tfa/mp157_alientek/tf-a-stm32mp-2.2.r1-r0/tf-a-stm32mp-2.2.r1/../build/serialboot/bl2/enable_mmu.o
 .rodata.rev_err_str
                0x000000002ffe6ddb       0xa0 /home/charles/linux/code/tfa/mp157_alientek/tf-a-stm32mp-2.2.r1-r0/tf-a-stm32mp-2.2.r1/../build/serialboot/bl2/stm32mp1_helper.o
 .rodata.fdt_address_cells.str1.1
                0x000000002ffe6e7b        0xf /home/charles/linux/code/tfa/mp157_alientek/tf-a-stm32mp-2.2.r1-r0/tf-a-stm32mp-2.2.r1/../build/serialboot/lib/libfdt.a(fdt_addresses.o)
 .rodata.fdt_size_cells.str1.1
                0x000000002ffe6e8a        0xc /home/charles/linux/code/tfa/mp157_alientek/tf-a-stm32mp-2.2.r1-r0/tf-a-stm32mp-2.2.r1/../build/serialboot/lib/libfdt.a(fdt_addresses.o)
 .rodata.fdt_get_phandle.str1.1
                0x000000002ffe6e96        0xe /home/charles/linux/code/tfa/mp157_alientek/tf-a-stm32mp-2.2.r1-r0/tf-a-stm32mp-2.2.r1/../build/serialboot/lib/libfdt.a(fdt_ro.o)
                                         0x16 (size before relaxing)
 .rodata.fdt_get_alias_namelen.str1.1
                0x000000002ffe6ea4        0x9 /home/charles/linux/code/tfa/mp157_alientek/tf-a-stm32mp-2.2.r1-r0/tf-a-stm32mp-2.2.r1/../build/serialboot/lib/libfdt.a(fdt_ro.o)
 .rodata.fdt_node_check_compatible.str1.1
                0x000000002ffe6ead        0xb /home/charles/linux/code/tfa/mp157_alientek/tf-a-stm32mp-2.2.r1-r0/tf-a-stm32mp-2.2.r1/../build/serialboot/lib/libfdt.a(fdt_ro.o)
 .rodata.__assert.str1.1
                0x000000002ffe6eb8        0xf /home/charles/linux/code/tfa/mp157_alientek/tf-a-stm32mp-2.2.r1-r0/tf-a-stm32mp-2.2.r1/../build/serialboot/lib/libc.a(assert.o)
 .rodata.vprintf.str1.1
                0x000000002ffe6ec7       0x15 /home/charles/linux/code/tfa/mp157_alientek/tf-a-stm32mp-2.2.r1-r0/tf-a-stm32mp-2.2.r1/../build/serialboot/lib/libc.a(printf.o)
 .rodata.snprintf.str1.1
                0x000000002ffe6edc       0x39 /home/charles/linux/code/tfa/mp157_alientek/tf-a-stm32mp-2.2.r1-r0/tf-a-stm32mp-2.2.r1/../build/serialboot/lib/libc.a(snprintf.o)
                0x000000002ffe6f18                . = ALIGN (0x8)
 *fill*         0x000000002ffe6f15        0x3 
                0x000000002ffe6f18                __CPU_OPS_START__ = .
 *(cpu_ops)
 cpu_ops        0x000000002ffe6f18        0x8 /home/charles/linux/code/tfa/mp157_alientek/tf-a-stm32mp-2.2.r1-r0/tf-a-stm32mp-2.2.r1/../build/serialboot/bl2/cortex_a7.o
                0x000000002ffe6f20                __CPU_OPS_END__ = .
                0x000000002ffe6f20                . = ALIGN (0x8)
                0x000000002ffe6f20                __PARSER_LIB_DESCS_START__ = .
 *(.img_parser_lib_descs)
 .img_parser_lib_descs
                0x000000002ffe6f20       0x14 /home/charles/linux/code/tfa/mp157_alientek/tf-a-stm32mp-2.2.r1-r0/tf-a-stm32mp-2.2.r1/../build/serialboot/bl2/stm32mp_img_parser_lib.o
                0x000000002ffe6f34                __PARSER_LIB_DESCS_END__ = .
 *(.vectors)
 *fill*         0x000000002ffe6f34        0xc 
 .vectors       0x000000002ffe6f40       0x20 /home/charles/linux/code/tfa/mp157_alientek/tf-a-stm32mp-2.2.r1-r0/tf-a-stm32mp-2.2.r1/../build/serialboot/bl2/bl2_el3_exceptions.o
                0x000000002ffe6f40                bl2_vector_table
 .vectors.__stub
                0x000000002ffe6f60       0x40 linker stubs
                0x000000002ffe6fa0                __RO_END_UNALIGNED__ = .
                0x000000002ffe7000                . = ALIGN (0x1000)
 *fill*         0x000000002ffe6fa0       0x60 
                0x000000002ffe7000                __RO_END__ = .
                0x0000000000000001                ASSERT ((__CPU_OPS_END__ > __CPU_OPS_START__), cpu_ops not defined for this platform.)
                0x000000002ffe7000                __RW_START__ = .

.glue_7         0x000000002ffe7000        0x0
 .glue_7        0x000000002ffe7000        0x0 linker stubs

.glue_7t        0x000000002ffe7000        0x0
 .glue_7t       0x000000002ffe7000        0x0 linker stubs

.vfp11_veneer   0x000000002ffe7000        0x0
 .vfp11_veneer  0x000000002ffe7000        0x0 linker stubs

.v4_bx          0x000000002ffe7000        0x0
 .v4_bx         0x000000002ffe7000        0x0 linker stubs

.iplt           0x000000002ffe7000        0x0
 .iplt          0x000000002ffe7000        0x0 /home/charles/linux/code/tfa/mp157_alientek/tf-a-stm32mp-2.2.r1-r0/tf-a-stm32mp-2.2.r1/../build/serialboot/bl2/build_message.o

.rel.dyn        0x000000002ffe7000        0x0
 .rel.iplt      0x000000002ffe7000        0x0 /home/charles/linux/code/tfa/mp157_alientek/tf-a-stm32mp-2.2.r1-r0/tf-a-stm32mp-2.2.r1/../build/serialboot/bl2/build_message.o

.data           0x000000002ffe7000      0x1fc
                0x000000002ffe7000                __DATA_RAM_START__ = .
 *(.data*)
 .data.stm32image_dev_info
                0x000000002ffe7000        0x8 /home/charles/linux/code/tfa/mp157_alientek/tf-a-stm32mp-2.2.r1-r0/tf-a-stm32mp-2.2.r1/../build/serialboot/bl2/io_stm32image.o
 .data.backup_id.7476
                0x000000002ffe7008        0x4 /home/charles/linux/code/tfa/mp157_alientek/tf-a-stm32mp-2.2.r1-r0/tf-a-stm32mp-2.2.r1/../build/serialboot/bl2/bl2_io_storage.o
 .data.gpt_block_spec
                0x000000002ffe700c        0x8 /home/charles/linux/code/tfa/mp157_alientek/tf-a-stm32mp-2.2.r1-r0/tf-a-stm32mp-2.2.r1/../build/serialboot/bl2/bl2_io_storage.o
 *fill*         0x000000002ffe7014        0x4 
 .data.nand_dev_spec
                0x000000002ffe7018       0x18 /home/charles/linux/code/tfa/mp157_alientek/tf-a-stm32mp-2.2.r1-r0/tf-a-stm32mp-2.2.r1/../build/serialboot/bl2/bl2_io_storage.o
 .data.spi_nand_dev_spec
                0x000000002ffe7030       0x18 /home/charles/linux/code/tfa/mp157_alientek/tf-a-stm32mp-2.2.r1-r0/tf-a-stm32mp-2.2.r1/../build/serialboot/bl2/bl2_io_storage.o
 .data.spi_nor_dev_spec
                0x000000002ffe7048       0x18 /home/charles/linux/code/tfa/mp157_alientek/tf-a-stm32mp-2.2.r1-r0/tf-a-stm32mp-2.2.r1/../build/serialboot/bl2/bl2_io_storage.o
 .data.stm32image_dev_info_spec
                0x000000002ffe7060       0x48 /home/charles/linux/code/tfa/mp157_alientek/tf-a-stm32mp-2.2.r1-r0/tf-a-stm32mp-2.2.r1/../build/serialboot/bl2/bl2_io_storage.o
 .data.stm32_header_pk
                0x000000002ffe70a8        0x8 /home/charles/linux/code/tfa/mp157_alientek/tf-a-stm32mp-2.2.r1-r0/tf-a-stm32mp-2.2.r1/../build/serialboot/bl2/stm32mp_cot.o
 .data.stm32_header_sig
                0x000000002ffe70b0        0x8 /home/charles/linux/code/tfa/mp157_alientek/tf-a-stm32mp-2.2.r1-r0/tf-a-stm32mp-2.2.r1/../build/serialboot/bl2/stm32mp_cot.o
 .data.stm32_header_sig_alg
                0x000000002ffe70b8        0x8 /home/charles/linux/code/tfa/mp157_alientek/tf-a-stm32mp-2.2.r1-r0/tf-a-stm32mp-2.2.r1/../build/serialboot/bl2/stm32mp_cot.o
 .data.stm32_load
                0x000000002ffe70c0        0x8 /home/charles/linux/code/tfa/mp157_alientek/tf-a-stm32mp-2.2.r1-r0/tf-a-stm32mp-2.2.r1/../build/serialboot/bl2/stm32mp_cot.o
 .data.bl2_mem_params_descs
                0x000000002ffe70c8       0xb8 /home/charles/linux/code/tfa/mp157_alientek/tf-a-stm32mp-2.2.r1-r0/tf-a-stm32mp-2.2.r1/../build/serialboot/bl2/plat_bl2_mem_params_desc.o
 .data.bl_mem_params_desc_num
                0x000000002ffe7180        0x4 /home/charles/linux/code/tfa/mp157_alientek/tf-a-stm32mp-2.2.r1-r0/tf-a-stm32mp-2.2.r1/../build/serialboot/bl2/plat_bl2_mem_params_desc.o
                0x000000002ffe7180                bl_mem_params_desc_num
 .data.bl_mem_params_desc_ptr
                0x000000002ffe7184        0x4 /home/charles/linux/code/tfa/mp157_alientek/tf-a-stm32mp-2.2.r1-r0/tf-a-stm32mp-2.2.r1/../build/serialboot/bl2/plat_bl2_mem_params_desc.o
                0x000000002ffe7184                bl_mem_params_desc_ptr
 .data.max_log_level
                0x000000002ffe7188        0x4 /home/charles/linux/code/tfa/mp157_alientek/tf-a-stm32mp-2.2.r1-r0/tf-a-stm32mp-2.2.r1/../build/serialboot/bl2/tf_log.o
 .data.console_state
                0x000000002ffe718c        0x1 /home/charles/linux/code/tfa/mp157_alientek/tf-a-stm32mp-2.2.r1-r0/tf-a-stm32mp-2.2.r1/../build/serialboot/bl2/multi_console.o
                0x000000002ffe718c                console_state
 *fill*         0x000000002ffe718d        0x3 
 .data.tf_xlat_ctx
                0x000000002ffe7190       0x48 /home/charles/linux/code/tfa/mp157_alientek/tf-a-stm32mp-2.2.r1-r0/tf-a-stm32mp-2.2.r1/../build/serialboot/bl2/xlat_tables_context.o
 .data.stm32mp_osc_node_label
                0x000000002ffe71d8       0x18 /home/charles/linux/code/tfa/mp157_alientek/tf-a-stm32mp-2.2.r1-r0/tf-a-stm32mp-2.2.r1/../build/serialboot/bl2/stm32mp1_clk.o
                0x000000002ffe71d8                stm32mp_osc_node_label
 .data.i2c_node.6738
                0x000000002ffe71f0        0x4 /home/charles/linux/code/tfa/mp157_alientek/tf-a-stm32mp-2.2.r1-r0/tf-a-stm32mp-2.2.r1/../build/serialboot/bl2/stm32mp_pmic.o
 .data.node.6688
                0x000000002ffe71f4        0x4 /home/charles/linux/code/tfa/mp157_alientek/tf-a-stm32mp-2.2.r1-r0/tf-a-stm32mp-2.2.r1/../build/serialboot/bl2/stm32mp_pmic.o
 .data.status.6692
                0x000000002ffe71f8        0x4 /home/charles/linux/code/tfa/mp157_alientek/tf-a-stm32mp-2.2.r1-r0/tf-a-stm32mp-2.2.r1/../build/serialboot/bl2/stm32mp_pmic.o
                0x000000002ffe71fc                __DATA_RAM_END__ = .

.igot.plt       0x000000002ffe71fc        0x0
 .igot.plt      0x000000002ffe71fc        0x0 /home/charles/linux/code/tfa/mp157_alientek/tf-a-stm32mp-2.2.r1-r0/tf-a-stm32mp-2.2.r1/../build/serialboot/bl2/build_message.o

stacks          0x000000002ffe7200      0xc00
                0x000000002ffe7200                __STACKS_START__ = .
 *(tzfw_normal_stacks)
 tzfw_normal_stacks
                0x000000002ffe7200      0xc00 /home/charles/linux/code/tfa/mp157_alientek/tf-a-stm32mp-2.2.r1-r0/tf-a-stm32mp-2.2.r1/../build/serialboot/bl2/platform_up_stack.o
                0x000000002ffe7e00                __STACKS_END__ = .

.bss            0x000000002ffe7e00     0x25c0
                0x000000002ffe7e00                __BSS_START__ = .
 *(SORT_BY_ALIGNMENT(.bss*))
 .bss.block_buffer
                0x000000002ffe7e00      0x800 /home/charles/linux/code/tfa/mp157_alientek/tf-a-stm32mp-2.2.r1-r0/tf-a-stm32mp-2.2.r1/../build/serialboot/bl2/bl2_io_storage.o
 .bss.tf_base_xlat_table
                0x000000002ffe8600       0x20 /home/charles/linux/code/tfa/mp157_alientek/tf-a-stm32mp-2.2.r1-r0/tf-a-stm32mp-2.2.r1/../build/serialboot/bl2/xlat_tables_context.o
 .bss.mmc_ext_csd
                0x000000002ffe8620      0x200 /home/charles/linux/code/tfa/mp157_alientek/tf-a-stm32mp-2.2.r1-r0/tf-a-stm32mp-2.2.r1/../build/serialboot/bl2/mmc.o
 .bss.scr       0x000000002ffe8820        0x8 /home/charles/linux/code/tfa/mp157_alientek/tf-a-stm32mp-2.2.r1-r0/tf-a-stm32mp-2.2.r1/../build/serialboot/bl2/mmc.o
 .bss.state_pool
                0x000000002ffe8828       0x18 /home/charles/linux/code/tfa/mp157_alientek/tf-a-stm32mp-2.2.r1-r0/tf-a-stm32mp-2.2.r1/../build/serialboot/bl2/io_block.o
 .bss.state_pool
                0x000000002ffe8840       0x18 /home/charles/linux/code/tfa/mp157_alientek/tf-a-stm32mp-2.2.r1-r0/tf-a-stm32mp-2.2.r1/../build/serialboot/bl2/io_mtd.o
 .bss.stm32image_dev
                0x000000002ffe8858       0x48 /home/charles/linux/code/tfa/mp157_alientek/tf-a-stm32mp-2.2.r1-r0/tf-a-stm32mp-2.2.r1/../build/serialboot/bl2/io_stm32image.o
 .bss.list      0x000000002ffe88a0       0xb0 /home/charles/linux/code/tfa/mp157_alientek/tf-a-stm32mp-2.2.r1-r0/tf-a-stm32mp-2.2.r1/../build/serialboot/bl2/partition.o
 .bss.seek_offset
                0x000000002ffe8950        0x8 /home/charles/linux/code/tfa/mp157_alientek/tf-a-stm32mp-2.2.r1-r0/tf-a-stm32mp-2.2.r1/../build/serialboot/bl2/io_mmc.o
 .bss.spinand_dev
                0x000000002ffe8958       0x40 /home/charles/linux/code/tfa/mp157_alientek/tf-a-stm32mp-2.2.r1-r0/tf-a-stm32mp-2.2.r1/../build/serialboot/bl2/spi_nand.o
 .bss.nor_dev   0x000000002ffe8998       0x40 /home/charles/linux/code/tfa/mp157_alientek/tf-a-stm32mp-2.2.r1-r0/tf-a-stm32mp-2.2.r1/../build/serialboot/bl2/spi_nor.o
 .bss.nand_dev  0x000000002ffe89d8       0x30 /home/charles/linux/code/tfa/mp157_alientek/tf-a-stm32mp-2.2.r1-r0/tf-a-stm32mp-2.2.r1/../build/serialboot/bl2/core.o
 .bss.ddr_priv_data
                0x000000002ffe8a08       0x20 /home/charles/linux/code/tfa/mp157_alientek/tf-a-stm32mp-2.2.r1-r0/tf-a-stm32mp-2.2.r1/../build/serialboot/bl2/stm32mp1_ram.o
 .bss.tf_mmap   0x000000002ffe8a28      0x120 /home/charles/linux/code/tfa/mp157_alientek/tf-a-stm32mp-2.2.r1-r0/tf-a-stm32mp-2.2.r1/../build/serialboot/bl2/xlat_tables_context.o
 .bss.block_dev_count
                0x000000002ffe8b48        0x4 /home/charles/linux/code/tfa/mp157_alientek/tf-a-stm32mp-2.2.r1-r0/tf-a-stm32mp-2.2.r1/../build/serialboot/bl2/io_block.o
 .bss.dev_info_pool
                0x000000002ffe8b4c        0x8 /home/charles/linux/code/tfa/mp157_alientek/tf-a-stm32mp-2.2.r1-r0/tf-a-stm32mp-2.2.r1/../build/serialboot/bl2/io_block.o
 .bss.current_file
                0x000000002ffe8b54        0x8 /home/charles/linux/code/tfa/mp157_alientek/tf-a-stm32mp-2.2.r1-r0/tf-a-stm32mp-2.2.r1/../build/serialboot/bl2/io_dummy.o
 .bss.dev_info_pool
                0x000000002ffe8b5c        0x8 /home/charles/linux/code/tfa/mp157_alientek/tf-a-stm32mp-2.2.r1-r0/tf-a-stm32mp-2.2.r1/../build/serialboot/bl2/io_mtd.o
 .bss.dev_count
                0x000000002ffe8b64        0x4 /home/charles/linux/code/tfa/mp157_alientek/tf-a-stm32mp-2.2.r1-r0/tf-a-stm32mp-2.2.r1/../build/serialboot/bl2/io_storage.o
 .bss.entity_count
                0x000000002ffe8b68        0x4 /home/charles/linux/code/tfa/mp157_alientek/tf-a-stm32mp-2.2.r1-r0/tf-a-stm32mp-2.2.r1/../build/serialboot/bl2/io_storage.o
 .bss.entity_map
                0x000000002ffe8b6c       0x10 /home/charles/linux/code/tfa/mp157_alientek/tf-a-stm32mp-2.2.r1-r0/tf-a-stm32mp-2.2.r1/../build/serialboot/bl2/io_storage.o
 .bss.entity_pool
                0x000000002ffe8b7c       0x20 /home/charles/linux/code/tfa/mp157_alientek/tf-a-stm32mp-2.2.r1-r0/tf-a-stm32mp-2.2.r1/../build/serialboot/bl2/io_storage.o
 .bss.stm32_hash
                0x000000002ffe8b9c        0xc /home/charles/linux/code/tfa/mp157_alientek/tf-a-stm32mp-2.2.r1-r0/tf-a-stm32mp-2.2.r1/../build/serialboot/bl2/stm32_hash.o
 .bss.stm32_remain
                0x000000002ffe8ba8        0x8 /home/charles/linux/code/tfa/mp157_alientek/tf-a-stm32mp-2.2.r1-r0/tf-a-stm32mp-2.2.r1/../build/serialboot/bl2/stm32_hash.o
 .bss.backend_dev_handle
                0x000000002ffe8bb0        0x4 /home/charles/linux/code/tfa/mp157_alientek/tf-a-stm32mp-2.2.r1-r0/tf-a-stm32mp-2.2.r1/../build/serialboot/bl2/io_stm32image.o
 .bss.backend_image_spec
                0x000000002ffe8bb4        0x4 /home/charles/linux/code/tfa/mp157_alientek/tf-a-stm32mp-2.2.r1-r0/tf-a-stm32mp-2.2.r1/../build/serialboot/bl2/io_stm32image.o
 .bss.current_part
                0x000000002ffe8bb8        0x4 /home/charles/linux/code/tfa/mp157_alientek/tf-a-stm32mp-2.2.r1-r0/tf-a-stm32mp-2.2.r1/../build/serialboot/bl2/io_stm32image.o
 .bss.first_lba_buffer
                0x000000002ffe8bbc      0x200 /home/charles/linux/code/tfa/mp157_alientek/tf-a-stm32mp-2.2.r1-r0/tf-a-stm32mp-2.2.r1/../build/serialboot/bl2/io_stm32image.o
 .bss.stm32_img
                0x000000002ffe8dbc        0x4 /home/charles/linux/code/tfa/mp157_alientek/tf-a-stm32mp-2.2.r1-r0/tf-a-stm32mp-2.2.r1/../build/serialboot/bl2/io_stm32image.o
 .bss.backup_nb.7475
                0x000000002ffe8dc0        0x4 /home/charles/linux/code/tfa/mp157_alientek/tf-a-stm32mp-2.2.r1-r0/tf-a-stm32mp-2.2.r1/../build/serialboot/bl2/bl2_io_storage.o
 .bss.dummy_dev_con
                0x000000002ffe8dc4        0x4 /home/charles/linux/code/tfa/mp157_alientek/tf-a-stm32mp-2.2.r1-r0/tf-a-stm32mp-2.2.r1/../build/serialboot/bl2/bl2_io_storage.o
 .bss.dummy_dev_handle
                0x000000002ffe8dc8        0x4 /home/charles/linux/code/tfa/mp157_alientek/tf-a-stm32mp-2.2.r1-r0/tf-a-stm32mp-2.2.r1/../build/serialboot/bl2/bl2_io_storage.o
 .bss.image_dev_handle
                0x000000002ffe8dcc        0x4 /home/charles/linux/code/tfa/mp157_alientek/tf-a-stm32mp-2.2.r1-r0/tf-a-stm32mp-2.2.r1/../build/serialboot/bl2/bl2_io_storage.o
 .bss.mmc_dev_con
                0x000000002ffe8dd0        0x4 /home/charles/linux/code/tfa/mp157_alientek/tf-a-stm32mp-2.2.r1-r0/tf-a-stm32mp-2.2.r1/../build/serialboot/bl2/bl2_io_storage.o
 .bss.nand_dev_con
                0x000000002ffe8dd4        0x4 /home/charles/linux/code/tfa/mp157_alientek/tf-a-stm32mp-2.2.r1-r0/tf-a-stm32mp-2.2.r1/../build/serialboot/bl2/bl2_io_storage.o
 .bss.spi_dev_con
                0x000000002ffe8dd8        0x4 /home/charles/linux/code/tfa/mp157_alientek/tf-a-stm32mp-2.2.r1-r0/tf-a-stm32mp-2.2.r1/../build/serialboot/bl2/bl2_io_storage.o
 .bss.stm32image_block_spec
                0x000000002ffe8ddc        0x8 /home/charles/linux/code/tfa/mp157_alientek/tf-a-stm32mp-2.2.r1-r0/tf-a-stm32mp-2.2.r1/../build/serialboot/bl2/bl2_io_storage.o
 .bss.stm32image_dev_con
                0x000000002ffe8de4        0x4 /home/charles/linux/code/tfa/mp157_alientek/tf-a-stm32mp-2.2.r1-r0/tf-a-stm32mp-2.2.r1/../build/serialboot/bl2/bl2_io_storage.o
 .bss.storage_dev_handle
                0x000000002ffe8de8        0x4 /home/charles/linux/code/tfa/mp157_alientek/tf-a-stm32mp-2.2.r1-r0/tf-a-stm32mp-2.2.r1/../build/serialboot/bl2/bl2_io_storage.o
 .bss.console   0x000000002ffe8dec       0x18 /home/charles/linux/code/tfa/mp157_alientek/tf-a-stm32mp-2.2.r1-r0/tf-a-stm32mp-2.2.r1/../build/serialboot/bl2/bl2_plat_setup.o
 .bss.parser_lib_descs
                0x000000002ffe8e04        0x4 /home/charles/linux/code/tfa/mp157_alientek/tf-a-stm32mp-2.2.r1-r0/tf-a-stm32mp-2.2.r1/../build/serialboot/bl2/img_parser_mod.o
 .bss.parser_lib_indices
                0x000000002ffe8e08        0xc /home/charles/linux/code/tfa/mp157_alientek/tf-a-stm32mp-2.2.r1-r0/tf-a-stm32mp-2.2.r1/../build/serialboot/bl2/img_parser_mod.o
 .bss.auth_ops  0x000000002ffe8e14        0x8 /home/charles/linux/code/tfa/mp157_alientek/tf-a-stm32mp-2.2.r1-r0/tf-a-stm32mp-2.2.r1/../build/serialboot/bl2/stm32mp_crypto_lib.o
 .bss.root_pk_hash
                0x000000002ffe8e1c       0x20 /home/charles/linux/code/tfa/mp157_alientek/tf-a-stm32mp-2.2.r1-r0/tf-a-stm32mp-2.2.r1/../build/serialboot/bl2/stm32mp_trusted_boot.o
 .bss.mmc_csd   0x000000002ffe8e3c       0x10 /home/charles/linux/code/tfa/mp157_alientek/tf-a-stm32mp-2.2.r1-r0/tf-a-stm32mp-2.2.r1/../build/serialboot/bl2/mmc.o
 .bss.mmc_dev_info
                0x000000002ffe8e4c        0x4 /home/charles/linux/code/tfa/mp157_alientek/tf-a-stm32mp-2.2.r1-r0/tf-a-stm32mp-2.2.r1/../build/serialboot/bl2/mmc.o
 .bss.mmc_flags
                0x000000002ffe8e50        0x4 /home/charles/linux/code/tfa/mp157_alientek/tf-a-stm32mp-2.2.r1-r0/tf-a-stm32mp-2.2.r1/../build/serialboot/bl2/mmc.o
 .bss.mmc_ocr_value
                0x000000002ffe8e54        0x4 /home/charles/linux/code/tfa/mp157_alientek/tf-a-stm32mp-2.2.r1-r0/tf-a-stm32mp-2.2.r1/../build/serialboot/bl2/mmc.o
 .bss.ops       0x000000002ffe8e58        0x4 /home/charles/linux/code/tfa/mp157_alientek/tf-a-stm32mp-2.2.r1-r0/tf-a-stm32mp-2.2.r1/../build/serialboot/bl2/mmc.o
 .bss.rca       0x000000002ffe8e5c        0x4 /home/charles/linux/code/tfa/mp157_alientek/tf-a-stm32mp-2.2.r1-r0/tf-a-stm32mp-2.2.r1/../build/serialboot/bl2/mmc.o
 .bss.sdmmc2_params
                0x000000002ffe8e60       0x3c /home/charles/linux/code/tfa/mp157_alientek/tf-a-stm32mp-2.2.r1-r0/tf-a-stm32mp-2.2.r1/../build/serialboot/bl2/stm32_sdmmc2.o
 .bss.rawnand_dev
                0x000000002ffe8e9c        0x8 /home/charles/linux/code/tfa/mp157_alientek/tf-a-stm32mp-2.2.r1-r0/tf-a-stm32mp-2.2.r1/../build/serialboot/bl2/raw_nand.o
 .bss.stm32_fmc2
                0x000000002ffe8ea4       0x28 /home/charles/linux/code/tfa/mp157_alientek/tf-a-stm32mp-2.2.r1-r0/tf-a-stm32mp-2.2.r1/../build/serialboot/bl2/stm32_fmc2_nand.o
 .bss.spi_slave
                0x000000002ffe8ecc       0x10 /home/charles/linux/code/tfa/mp157_alientek/tf-a-stm32mp-2.2.r1-r0/tf-a-stm32mp-2.2.r1/../build/serialboot/bl2/spi_mem.o
 .bss.stm32_qspi
                0x000000002ffe8edc       0x14 /home/charles/linux/code/tfa/mp157_alientek/tf-a-stm32mp-2.2.r1-r0/tf-a-stm32mp-2.2.r1/../build/serialboot/bl2/stm32_qspi.o
 .bss.bl_load_info
                0x000000002ffe8ef0        0xc /home/charles/linux/code/tfa/mp157_alientek/tf-a-stm32mp-2.2.r1-r0/tf-a-stm32mp-2.2.r1/../build/serialboot/bl2/desc_image_load.o
 .bss.next_bl_params
                0x000000002ffe8efc        0xc /home/charles/linux/code/tfa/mp157_alientek/tf-a-stm32mp-2.2.r1-r0/tf-a-stm32mp-2.2.r1/../build/serialboot/bl2/desc_image_load.o
 .bss.boot_ctx_address
                0x000000002ffe8f08        0x4 /home/charles/linux/code/tfa/mp157_alientek/tf-a-stm32mp-2.2.r1-r0/tf-a-stm32mp-2.2.r1/../build/serialboot/bl2/stm32mp_common.o
 .bss.latest_stm32_header
                0x000000002ffe8f0c        0x4 /home/charles/linux/code/tfa/mp157_alientek/tf-a-stm32mp-2.2.r1-r0/tf-a-stm32mp-2.2.r1/../build/serialboot/bl2/stm32mp_common.o
 .bss.part_number.7229
                0x000000002ffe8f10        0x4 /home/charles/linux/code/tfa/mp157_alientek/tf-a-stm32mp-2.2.r1-r0/tf-a-stm32mp-2.2.r1/../build/serialboot/bl2/stm32mp1_private.o
 .bss.tf_mapped_regions
                0x000000002ffe8f14       0x10 /home/charles/linux/code/tfa/mp157_alientek/tf-a-stm32mp-2.2.r1-r0/tf-a-stm32mp-2.2.r1/../build/serialboot/bl2/xlat_tables_context.o
 .bss.tzc400    0x000000002ffe8f24        0x8 /home/charles/linux/code/tfa/mp157_alientek/tf-a-stm32mp-2.2.r1-r0/tf-a-stm32mp-2.2.r1/../build/serialboot/bl2/tzc400.o
 .bss.timer_ops
                0x000000002ffe8f2c        0x4 /home/charles/linux/code/tfa/mp157_alientek/tf-a-stm32mp-2.2.r1-r0/tf-a-stm32mp-2.2.r1/../build/serialboot/bl2/delay_timer.o
 .bss.ops       0x000000002ffe8f30        0xc /home/charles/linux/code/tfa/mp157_alientek/tf-a-stm32mp-2.2.r1-r0/tf-a-stm32mp-2.2.r1/../build/serialboot/bl2/generic_delay_timer.o
 .bss.bsec_base
                0x000000002ffe8f3c        0x4 /home/charles/linux/code/tfa/mp157_alientek/tf-a-stm32mp-2.2.r1-r0/tf-a-stm32mp-2.2.r1/../build/serialboot/bl2/bsec2.o
 .bss.bsec_spinlock
                0x000000002ffe8f40        0x4 /home/charles/linux/code/tfa/mp157_alientek/tf-a-stm32mp-2.2.r1-r0/tf-a-stm32mp-2.2.r1/../build/serialboot/bl2/bsec2.o
 .bss.current_opp_khz
                0x000000002ffe8f44        0x4 /home/charles/linux/code/tfa/mp157_alientek/tf-a-stm32mp-2.2.r1-r0/tf-a-stm32mp-2.2.r1/../build/serialboot/bl2/stm32mp1_clk.o
 .bss.gate_refcounts
                0x000000002ffe8f48       0xdc /home/charles/linux/code/tfa/mp157_alientek/tf-a-stm32mp-2.2.r1-r0/tf-a-stm32mp-2.2.r1/../build/serialboot/bl2/stm32mp1_clk.o
 .bss.pll1_settings
                0x000000002ffe9024       0x4c /home/charles/linux/code/tfa/mp157_alientek/tf-a-stm32mp-2.2.r1-r0/tf-a-stm32mp-2.2.r1/../build/serialboot/bl2/stm32mp1_clk.o
 .bss.refcount_lock
                0x000000002ffe9070        0x4 /home/charles/linux/code/tfa/mp157_alientek/tf-a-stm32mp-2.2.r1-r0/tf-a-stm32mp-2.2.r1/../build/serialboot/bl2/stm32mp1_clk.o
 .bss.reg_lock  0x000000002ffe9074        0x4 /home/charles/linux/code/tfa/mp157_alientek/tf-a-stm32mp-2.2.r1-r0/tf-a-stm32mp-2.2.r1/../build/serialboot/bl2/stm32mp1_clk.o
 .bss.stm32mp1_osc
                0x000000002ffe9078       0x18 /home/charles/linux/code/tfa/mp157_alientek/tf-a-stm32mp-2.2.r1-r0/tf-a-stm32mp-2.2.r1/../build/serialboot/bl2/stm32mp1_clk.o
 .bss.stm32_iwdg
                0x000000002ffe9090       0x20 /home/charles/linux/code/tfa/mp157_alientek/tf-a-stm32mp-2.2.r1-r0/tf-a-stm32mp-2.2.r1/../build/serialboot/bl2/stm32_iwdg.o
 .bss.i2c_handle
                0x000000002ffe90b0       0x24 /home/charles/linux/code/tfa/mp157_alientek/tf-a-stm32mp-2.2.r1-r0/tf-a-stm32mp-2.2.r1/../build/serialboot/bl2/stm32mp_pmic.o
 .bss.pmic_i2c_addr
                0x000000002ffe90d4        0x4 /home/charles/linux/code/tfa/mp157_alientek/tf-a-stm32mp-2.2.r1-r0/tf-a-stm32mp-2.2.r1/../build/serialboot/bl2/stm32mp_pmic.o
 .bss.pmic_i2c_handle
                0x000000002ffe90d8        0x4 /home/charles/linux/code/tfa/mp157_alientek/tf-a-stm32mp-2.2.r1-r0/tf-a-stm32mp-2.2.r1/../build/serialboot/bl2/stpmic1.o
 .bss.fdt_checked
                0x000000002ffe90dc        0x4 /home/charles/linux/code/tfa/mp157_alientek/tf-a-stm32mp-2.2.r1-r0/tf-a-stm32mp-2.2.r1/../build/serialboot/bl2/stm32mp_dt.o
 .bss.shregs_lock
                0x000000002ffe90e0        0x4 /home/charles/linux/code/tfa/mp157_alientek/tf-a-stm32mp-2.2.r1-r0/tf-a-stm32mp-2.2.r1/../build/serialboot/bl2/stm32mp_shres_helpers.o
 .bss.sd_switch_func_status
                0x000000002ffe90e4       0x40 /home/charles/linux/code/tfa/mp157_alientek/tf-a-stm32mp-2.2.r1-r0/tf-a-stm32mp-2.2.r1/../build/serialboot/bl2/mmc.o
 .bss.pmic_i2c_addr
                0x000000002ffe9124        0x2 /home/charles/linux/code/tfa/mp157_alientek/tf-a-stm32mp-2.2.r1-r0/tf-a-stm32mp-2.2.r1/../build/serialboot/bl2/stpmic1.o
 .bss.wakeup_standby
                0x000000002ffe9126        0x1 /home/charles/linux/code/tfa/mp157_alientek/tf-a-stm32mp-2.2.r1-r0/tf-a-stm32mp-2.2.r1/../build/serialboot/bl2/bl2_plat_setup.o
 .bss.mbr_sector
                0x000000002ffe9127      0x200 /home/charles/linux/code/tfa/mp157_alientek/tf-a-stm32mp-2.2.r1-r0/tf-a-stm32mp-2.2.r1/../build/serialboot/bl2/partition.o
 .bss.next_cmd_is_acmd
                0x000000002ffe9327        0x1 /home/charles/linux/code/tfa/mp157_alientek/tf-a-stm32mp-2.2.r1-r0/tf-a-stm32mp-2.2.r1/../build/serialboot/bl2/stm32_sdmmc2.o
 .bss.scratch_buff
                0x000000002ffe9328     0x1000 /home/charles/linux/code/tfa/mp157_alientek/tf-a-stm32mp-2.2.r1-r0/tf-a-stm32mp-2.2.r1/../build/serialboot/bl2/core.o
 *(COMMON)
 COMMON         0x000000002ffea328       0x78 /home/charles/linux/code/tfa/mp157_alientek/tf-a-stm32mp-2.2.r1-r0/tf-a-stm32mp-2.2.r1/../build/serialboot/bl2/stm32mp_cot.o
                0x000000002ffea328                auth_img_flags
 COMMON         0x000000002ffea3a0        0x4 /home/charles/linux/code/tfa/mp157_alientek/tf-a-stm32mp-2.2.r1-r0/tf-a-stm32mp-2.2.r1/../build/serialboot/bl2/multi_console.o
                0x000000002ffea3a0                console_list
 *fill*         0x000000002ffea3a4        0x4 
 COMMON         0x000000002ffea3a8       0x18 /home/charles/linux/code/tfa/mp157_alientek/tf-a-stm32mp-2.2.r1-r0/tf-a-stm32mp-2.2.r1/../build/serialboot/bl2/xlat_tables_context.o
                0x000000002ffea3a8                mmu_cfg_params
                0x000000002ffea3c0                __BSS_END__ = .

xlat_table
 *(xlat_table)
                0x000000002ffea3c0                __RW_END__ = .
                0x000000002ffea3c0                __BL2_END__ = .
                0x00000000000025c0                __BSS_SIZE__ = SIZEOF (.bss)
                0x0000000000000001                ASSERT ((. <= 0x2ffed000), BL2 image has exceeded its limit.)
LOAD /home/charles/linux/code/tfa/mp157_alientek/tf-a-stm32mp-2.2.r1-r0/tf-a-stm32mp-2.2.r1/../build/serialboot/bl2/build_message.o
LOAD /home/charles/linux/code/tfa/mp157_alientek/tf-a-stm32mp-2.2.r1-r0/tf-a-stm32mp-2.2.r1/../build/serialboot/bl2/io_block.o
LOAD /home/charles/linux/code/tfa/mp157_alientek/tf-a-stm32mp-2.2.r1-r0/tf-a-stm32mp-2.2.r1/../build/serialboot/bl2/io_dummy.o
LOAD /home/charles/linux/code/tfa/mp157_alientek/tf-a-stm32mp-2.2.r1-r0/tf-a-stm32mp-2.2.r1/../build/serialboot/bl2/io_mtd.o
LOAD /home/charles/linux/code/tfa/mp157_alientek/tf-a-stm32mp-2.2.r1-r0/tf-a-stm32mp-2.2.r1/../build/serialboot/bl2/io_storage.o
LOAD /home/charles/linux/code/tfa/mp157_alientek/tf-a-stm32mp-2.2.r1-r0/tf-a-stm32mp-2.2.r1/../build/serialboot/bl2/stm32_hash.o
LOAD /home/charles/linux/code/tfa/mp157_alientek/tf-a-stm32mp-2.2.r1-r0/tf-a-stm32mp-2.2.r1/../build/serialboot/bl2/io_stm32image.o
LOAD /home/charles/linux/code/tfa/mp157_alientek/tf-a-stm32mp-2.2.r1-r0/tf-a-stm32mp-2.2.r1/../build/serialboot/bl2/bl2_io_storage.o
LOAD /home/charles/linux/code/tfa/mp157_alientek/tf-a-stm32mp-2.2.r1-r0/tf-a-stm32mp-2.2.r1/../build/serialboot/bl2/bl2_plat_setup.o
LOAD /home/charles/linux/code/tfa/mp157_alientek/tf-a-stm32mp-2.2.r1-r0/tf-a-stm32mp-2.2.r1/../build/serialboot/bl2/auth_mod.o
LOAD /home/charles/linux/code/tfa/mp157_alientek/tf-a-stm32mp-2.2.r1-r0/tf-a-stm32mp-2.2.r1/../build/serialboot/bl2/crypto_mod.o
LOAD /home/charles/linux/code/tfa/mp157_alientek/tf-a-stm32mp-2.2.r1-r0/tf-a-stm32mp-2.2.r1/../build/serialboot/bl2/img_parser_mod.o
LOAD /home/charles/linux/code/tfa/mp157_alientek/tf-a-stm32mp-2.2.r1-r0/tf-a-stm32mp-2.2.r1/../build/serialboot/bl2/stm32mp_cot.o
LOAD /home/charles/linux/code/tfa/mp157_alientek/tf-a-stm32mp-2.2.r1-r0/tf-a-stm32mp-2.2.r1/../build/serialboot/bl2/stm32mp_crypto_lib.o
LOAD /home/charles/linux/code/tfa/mp157_alientek/tf-a-stm32mp-2.2.r1-r0/tf-a-stm32mp-2.2.r1/../build/serialboot/bl2/stm32mp_img_parser_lib.o
LOAD /home/charles/linux/code/tfa/mp157_alientek/tf-a-stm32mp-2.2.r1-r0/tf-a-stm32mp-2.2.r1/../build/serialboot/bl2/stm32mp_trusted_boot.o
LOAD /home/charles/linux/code/tfa/mp157_alientek/tf-a-stm32mp-2.2.r1-r0/tf-a-stm32mp-2.2.r1/../build/serialboot/bl2/mmc.o
LOAD /home/charles/linux/code/tfa/mp157_alientek/tf-a-stm32mp-2.2.r1-r0/tf-a-stm32mp-2.2.r1/../build/serialboot/bl2/gpt.o
LOAD /home/charles/linux/code/tfa/mp157_alientek/tf-a-stm32mp-2.2.r1-r0/tf-a-stm32mp-2.2.r1/../build/serialboot/bl2/partition.o
LOAD /home/charles/linux/code/tfa/mp157_alientek/tf-a-stm32mp-2.2.r1-r0/tf-a-stm32mp-2.2.r1/../build/serialboot/bl2/io_mmc.o
LOAD /home/charles/linux/code/tfa/mp157_alientek/tf-a-stm32mp-2.2.r1-r0/tf-a-stm32mp-2.2.r1/../build/serialboot/bl2/stm32_sdmmc2.o
LOAD /home/charles/linux/code/tfa/mp157_alientek/tf-a-stm32mp-2.2.r1-r0/tf-a-stm32mp-2.2.r1/../build/serialboot/bl2/raw_nand.o
LOAD /home/charles/linux/code/tfa/mp157_alientek/tf-a-stm32mp-2.2.r1-r0/tf-a-stm32mp-2.2.r1/../build/serialboot/bl2/stm32_fmc2_nand.o
LOAD /home/charles/linux/code/tfa/mp157_alientek/tf-a-stm32mp-2.2.r1-r0/tf-a-stm32mp-2.2.r1/../build/serialboot/bl2/spi_nand.o
LOAD /home/charles/linux/code/tfa/mp157_alientek/tf-a-stm32mp-2.2.r1-r0/tf-a-stm32mp-2.2.r1/../build/serialboot/bl2/spi_nor.o
LOAD /home/charles/linux/code/tfa/mp157_alientek/tf-a-stm32mp-2.2.r1-r0/tf-a-stm32mp-2.2.r1/../build/serialboot/bl2/spi_mem.o
LOAD /home/charles/linux/code/tfa/mp157_alientek/tf-a-stm32mp-2.2.r1-r0/tf-a-stm32mp-2.2.r1/../build/serialboot/bl2/stm32_qspi.o
LOAD /home/charles/linux/code/tfa/mp157_alientek/tf-a-stm32mp-2.2.r1-r0/tf-a-stm32mp-2.2.r1/../build/serialboot/bl2/core.o
LOAD /home/charles/linux/code/tfa/mp157_alientek/tf-a-stm32mp-2.2.r1-r0/tf-a-stm32mp-2.2.r1/../build/serialboot/bl2/stm32mp1_boot_device.o
LOAD /home/charles/linux/code/tfa/mp157_alientek/tf-a-stm32mp-2.2.r1-r0/tf-a-stm32mp-2.2.r1/../build/serialboot/bl2/stm32mp1_ddr.o
LOAD /home/charles/linux/code/tfa/mp157_alientek/tf-a-stm32mp-2.2.r1-r0/tf-a-stm32mp-2.2.r1/../build/serialboot/bl2/stm32mp1_ram.o
LOAD /home/charles/linux/code/tfa/mp157_alientek/tf-a-stm32mp-2.2.r1-r0/tf-a-stm32mp-2.2.r1/../build/serialboot/bl2/desc_image_load.o
LOAD /home/charles/linux/code/tfa/mp157_alientek/tf-a-stm32mp-2.2.r1-r0/tf-a-stm32mp-2.2.r1/../build/serialboot/bl2/plat_bl2_mem_params_desc.o
LOAD /home/charles/linux/code/tfa/mp157_alientek/tf-a-stm32mp-2.2.r1-r0/tf-a-stm32mp-2.2.r1/../build/serialboot/bl2/plat_image_load.o
LOAD /home/charles/linux/code/tfa/mp157_alientek/tf-a-stm32mp-2.2.r1-r0/tf-a-stm32mp-2.2.r1/../build/serialboot/bl2/bl2_image_load_v2.o
LOAD /home/charles/linux/code/tfa/mp157_alientek/tf-a-stm32mp-2.2.r1-r0/tf-a-stm32mp-2.2.r1/../build/serialboot/bl2/bl2_main.o
LOAD /home/charles/linux/code/tfa/mp157_alientek/tf-a-stm32mp-2.2.r1-r0/tf-a-stm32mp-2.2.r1/../build/serialboot/bl2/bl2_arch_setup.o
LOAD /home/charles/linux/code/tfa/mp157_alientek/tf-a-stm32mp-2.2.r1-r0/tf-a-stm32mp-2.2.r1/../build/serialboot/bl2/errata_report.o
LOAD /home/charles/linux/code/tfa/mp157_alientek/tf-a-stm32mp-2.2.r1-r0/tf-a-stm32mp-2.2.r1/../build/serialboot/bl2/bl_common.o
LOAD /home/charles/linux/code/tfa/mp157_alientek/tf-a-stm32mp-2.2.r1-r0/tf-a-stm32mp-2.2.r1/../build/serialboot/bl2/tf_log.o
LOAD /home/charles/linux/code/tfa/mp157_alientek/tf-a-stm32mp-2.2.r1-r0/tf-a-stm32mp-2.2.r1/../build/serialboot/bl2/multi_console.o
LOAD /home/charles/linux/code/tfa/mp157_alientek/tf-a-stm32mp-2.2.r1-r0/tf-a-stm32mp-2.2.r1/../build/serialboot/bl2/plat_bl_common.o
LOAD /home/charles/linux/code/tfa/mp157_alientek/tf-a-stm32mp-2.2.r1-r0/tf-a-stm32mp-2.2.r1/../build/serialboot/bl2/plat_log_common.o
LOAD /home/charles/linux/code/tfa/mp157_alientek/tf-a-stm32mp-2.2.r1-r0/tf-a-stm32mp-2.2.r1/../build/serialboot/bl2/plat_common.o
LOAD /home/charles/linux/code/tfa/mp157_alientek/tf-a-stm32mp-2.2.r1-r0/tf-a-stm32mp-2.2.r1/../build/serialboot/bl2/popcountdi2.o
LOAD /home/charles/linux/code/tfa/mp157_alientek/tf-a-stm32mp-2.2.r1-r0/tf-a-stm32mp-2.2.r1/../build/serialboot/bl2/popcountsi2.o
LOAD /home/charles/linux/code/tfa/mp157_alientek/tf-a-stm32mp-2.2.r1-r0/tf-a-stm32mp-2.2.r1/../build/serialboot/bl2/ctzdi2.o
LOAD /home/charles/linux/code/tfa/mp157_alientek/tf-a-stm32mp-2.2.r1-r0/tf-a-stm32mp-2.2.r1/../build/serialboot/bl2/divdi3.o
LOAD /home/charles/linux/code/tfa/mp157_alientek/tf-a-stm32mp-2.2.r1-r0/tf-a-stm32mp-2.2.r1/../build/serialboot/bl2/divmoddi4.o
LOAD /home/charles/linux/code/tfa/mp157_alientek/tf-a-stm32mp-2.2.r1-r0/tf-a-stm32mp-2.2.r1/../build/serialboot/bl2/lshrdi3.o
LOAD /home/charles/linux/code/tfa/mp157_alientek/tf-a-stm32mp-2.2.r1-r0/tf-a-stm32mp-2.2.r1/../build/serialboot/bl2/udivmoddi4.o
LOAD /home/charles/linux/code/tfa/mp157_alientek/tf-a-stm32mp-2.2.r1-r0/tf-a-stm32mp-2.2.r1/../build/serialboot/bl2/stm32mp_common.o
LOAD /home/charles/linux/code/tfa/mp157_alientek/tf-a-stm32mp-2.2.r1-r0/tf-a-stm32mp-2.2.r1/../build/serialboot/bl2/stm32mp1_private.o
LOAD /home/charles/linux/code/tfa/mp157_alientek/tf-a-stm32mp-2.2.r1-r0/tf-a-stm32mp-2.2.r1/../build/serialboot/bl2/xlat_tables_arch.o
LOAD /home/charles/linux/code/tfa/mp157_alientek/tf-a-stm32mp-2.2.r1-r0/tf-a-stm32mp-2.2.r1/../build/serialboot/bl2/xlat_tables_context.o
LOAD /home/charles/linux/code/tfa/mp157_alientek/tf-a-stm32mp-2.2.r1-r0/tf-a-stm32mp-2.2.r1/../build/serialboot/bl2/xlat_tables_core.o
LOAD /home/charles/linux/code/tfa/mp157_alientek/tf-a-stm32mp-2.2.r1-r0/tf-a-stm32mp-2.2.r1/../build/serialboot/bl2/xlat_tables_utils.o
LOAD /home/charles/linux/code/tfa/mp157_alientek/tf-a-stm32mp-2.2.r1-r0/tf-a-stm32mp-2.2.r1/../build/serialboot/bl2/tzc400.o
LOAD /home/charles/linux/code/tfa/mp157_alientek/tf-a-stm32mp-2.2.r1-r0/tf-a-stm32mp-2.2.r1/../build/serialboot/bl2/delay_timer.o
LOAD /home/charles/linux/code/tfa/mp157_alientek/tf-a-stm32mp-2.2.r1-r0/tf-a-stm32mp-2.2.r1/../build/serialboot/bl2/generic_delay_timer.o
LOAD /home/charles/linux/code/tfa/mp157_alientek/tf-a-stm32mp-2.2.r1-r0/tf-a-stm32mp-2.2.r1/../build/serialboot/bl2/bsec2.o
LOAD /home/charles/linux/code/tfa/mp157_alientek/tf-a-stm32mp-2.2.r1-r0/tf-a-stm32mp-2.2.r1/../build/serialboot/bl2/stm32mp_clkfunc.o
LOAD /home/charles/linux/code/tfa/mp157_alientek/tf-a-stm32mp-2.2.r1-r0/tf-a-stm32mp-2.2.r1/../build/serialboot/bl2/stm32mp1_clk.o
LOAD /home/charles/linux/code/tfa/mp157_alientek/tf-a-stm32mp-2.2.r1-r0/tf-a-stm32mp-2.2.r1/../build/serialboot/bl2/stm32mp1_ddr_helpers.o
LOAD /home/charles/linux/code/tfa/mp157_alientek/tf-a-stm32mp-2.2.r1-r0/tf-a-stm32mp-2.2.r1/../build/serialboot/bl2/stm32_gpio.o
LOAD /home/charles/linux/code/tfa/mp157_alientek/tf-a-stm32mp-2.2.r1-r0/tf-a-stm32mp-2.2.r1/../build/serialboot/bl2/stm32_i2c.o
LOAD /home/charles/linux/code/tfa/mp157_alientek/tf-a-stm32mp-2.2.r1-r0/tf-a-stm32mp-2.2.r1/../build/serialboot/bl2/stm32_iwdg.o
LOAD /home/charles/linux/code/tfa/mp157_alientek/tf-a-stm32mp-2.2.r1-r0/tf-a-stm32mp-2.2.r1/../build/serialboot/bl2/stm32mp_pmic.o
LOAD /home/charles/linux/code/tfa/mp157_alientek/tf-a-stm32mp-2.2.r1-r0/tf-a-stm32mp-2.2.r1/../build/serialboot/bl2/stpmic1.o
LOAD /home/charles/linux/code/tfa/mp157_alientek/tf-a-stm32mp-2.2.r1-r0/tf-a-stm32mp-2.2.r1/../build/serialboot/bl2/stm32mp_dummy_regulator.o
LOAD /home/charles/linux/code/tfa/mp157_alientek/tf-a-stm32mp-2.2.r1-r0/tf-a-stm32mp-2.2.r1/../build/serialboot/bl2/stm32mp_regulator.o
LOAD /home/charles/linux/code/tfa/mp157_alientek/tf-a-stm32mp-2.2.r1-r0/tf-a-stm32mp-2.2.r1/../build/serialboot/bl2/stm32mp1_reset.o
LOAD /home/charles/linux/code/tfa/mp157_alientek/tf-a-stm32mp-2.2.r1-r0/tf-a-stm32mp-2.2.r1/../build/serialboot/bl2/stm32mp_dt.o
LOAD /home/charles/linux/code/tfa/mp157_alientek/tf-a-stm32mp-2.2.r1-r0/tf-a-stm32mp-2.2.r1/../build/serialboot/bl2/stm32mp_shres_helpers.o
LOAD /home/charles/linux/code/tfa/mp157_alientek/tf-a-stm32mp-2.2.r1-r0/tf-a-stm32mp-2.2.r1/../build/serialboot/bl2/stm32mp1_context.o
LOAD /home/charles/linux/code/tfa/mp157_alientek/tf-a-stm32mp-2.2.r1-r0/tf-a-stm32mp-2.2.r1/../build/serialboot/bl2/stm32mp1_dbgmcu.o
LOAD /home/charles/linux/code/tfa/mp157_alientek/tf-a-stm32mp-2.2.r1-r0/tf-a-stm32mp-2.2.r1/../build/serialboot/bl2/stm32mp1_security.o
LOAD /home/charles/linux/code/tfa/mp157_alientek/tf-a-stm32mp-2.2.r1-r0/tf-a-stm32mp-2.2.r1/../build/serialboot/bl2/stm32mp1_syscfg.o
LOAD /home/charles/linux/code/tfa/mp157_alientek/tf-a-stm32mp-2.2.r1-r0/tf-a-stm32mp-2.2.r1/../build/serialboot/bl2/spinlock.o
LOAD /home/charles/linux/code/tfa/mp157_alientek/tf-a-stm32mp-2.2.r1-r0/tf-a-stm32mp-2.2.r1/../build/serialboot/bl2/platform_up_stack.o
LOAD /home/charles/linux/code/tfa/mp157_alientek/tf-a-stm32mp-2.2.r1-r0/tf-a-stm32mp-2.2.r1/../build/serialboot/bl2/bl2_el3_entrypoint.o
LOAD /home/charles/linux/code/tfa/mp157_alientek/tf-a-stm32mp-2.2.r1-r0/tf-a-stm32mp-2.2.r1/../build/serialboot/bl2/bl2_el3_exceptions.o
LOAD /home/charles/linux/code/tfa/mp157_alientek/tf-a-stm32mp-2.2.r1-r0/tf-a-stm32mp-2.2.r1/../build/serialboot/bl2/cpu_helpers.o
LOAD /home/charles/linux/code/tfa/mp157_alientek/tf-a-stm32mp-2.2.r1-r0/tf-a-stm32mp-2.2.r1/../build/serialboot/bl2/debug.o
LOAD /home/charles/linux/code/tfa/mp157_alientek/tf-a-stm32mp-2.2.r1-r0/tf-a-stm32mp-2.2.r1/../build/serialboot/bl2/cache_helpers.o
LOAD /home/charles/linux/code/tfa/mp157_alientek/tf-a-stm32mp-2.2.r1-r0/tf-a-stm32mp-2.2.r1/../build/serialboot/bl2/misc_helpers.o
LOAD /home/charles/linux/code/tfa/mp157_alientek/tf-a-stm32mp-2.2.r1-r0/tf-a-stm32mp-2.2.r1/../build/serialboot/bl2/platform_helpers.o
LOAD /home/charles/linux/code/tfa/mp157_alientek/tf-a-stm32mp-2.2.r1-r0/tf-a-stm32mp-2.2.r1/../build/serialboot/bl2/aeabi_ldivmod.o
LOAD /home/charles/linux/code/tfa/mp157_alientek/tf-a-stm32mp-2.2.r1-r0/tf-a-stm32mp-2.2.r1/../build/serialboot/bl2/aeabi_uldivmod.o
LOAD /home/charles/linux/code/tfa/mp157_alientek/tf-a-stm32mp-2.2.r1-r0/tf-a-stm32mp-2.2.r1/../build/serialboot/bl2/stm32_console.o
LOAD /home/charles/linux/code/tfa/mp157_alientek/tf-a-stm32mp-2.2.r1-r0/tf-a-stm32mp-2.2.r1/../build/serialboot/bl2/enable_mmu.o
LOAD /home/charles/linux/code/tfa/mp157_alientek/tf-a-stm32mp-2.2.r1-r0/tf-a-stm32mp-2.2.r1/../build/serialboot/bl2/cortex_a7.o
LOAD /home/charles/linux/code/tfa/mp157_alientek/tf-a-stm32mp-2.2.r1-r0/tf-a-stm32mp-2.2.r1/../build/serialboot/bl2/stm32mp1_helper.o
LOAD /home/charles/linux/code/tfa/mp157_alientek/tf-a-stm32mp-2.2.r1-r0/tf-a-stm32mp-2.2.r1/../build/serialboot/lib/libfdt.a
LOAD /home/charles/linux/code/tfa/mp157_alientek/tf-a-stm32mp-2.2.r1-r0/tf-a-stm32mp-2.2.r1/../build/serialboot/lib/libc.a
OUTPUT(/home/charles/linux/code/tfa/mp157_alientek/tf-a-stm32mp-2.2.r1-r0/tf-a-stm32mp-2.2.r1/../build/serialboot/bl2/bl2.elf elf32-littlearm)

.debug_info     0x0000000000000000    0x49bea
 .debug_info    0x0000000000000000       0x7b /home/charles/linux/code/tfa/mp157_alientek/tf-a-stm32mp-2.2.r1-r0/tf-a-stm32mp-2.2.r1/../build/serialboot/bl2/build_message.o
 .debug_info    0x000000000000007b      0xfce /home/charles/linux/code/tfa/mp157_alientek/tf-a-stm32mp-2.2.r1-r0/tf-a-stm32mp-2.2.r1/../build/serialboot/bl2/io_block.o
 .debug_info    0x0000000000001049      0x98d /home/charles/linux/code/tfa/mp157_alientek/tf-a-stm32mp-2.2.r1-r0/tf-a-stm32mp-2.2.r1/../build/serialboot/bl2/io_dummy.o
 .debug_info    0x00000000000019d6      0xc6c /home/charles/linux/code/tfa/mp157_alientek/tf-a-stm32mp-2.2.r1-r0/tf-a-stm32mp-2.2.r1/../build/serialboot/bl2/io_mtd.o
 .debug_info    0x0000000000002642     0x1092 /home/charles/linux/code/tfa/mp157_alientek/tf-a-stm32mp-2.2.r1-r0/tf-a-stm32mp-2.2.r1/../build/serialboot/bl2/io_storage.o
 .debug_info    0x00000000000036d4     0x10c7 /home/charles/linux/code/tfa/mp157_alientek/tf-a-stm32mp-2.2.r1-r0/tf-a-stm32mp-2.2.r1/../build/serialboot/bl2/stm32_hash.o
 .debug_info    0x000000000000479b      0xedc /home/charles/linux/code/tfa/mp157_alientek/tf-a-stm32mp-2.2.r1-r0/tf-a-stm32mp-2.2.r1/../build/serialboot/bl2/io_stm32image.o
 .debug_info    0x0000000000005677     0x17be /home/charles/linux/code/tfa/mp157_alientek/tf-a-stm32mp-2.2.r1-r0/tf-a-stm32mp-2.2.r1/../build/serialboot/bl2/bl2_io_storage.o
 .debug_info    0x0000000000006e35     0x1a39 /home/charles/linux/code/tfa/mp157_alientek/tf-a-stm32mp-2.2.r1-r0/tf-a-stm32mp-2.2.r1/../build/serialboot/bl2/bl2_plat_setup.o
 .debug_info    0x000000000000886e      0xf04 /home/charles/linux/code/tfa/mp157_alientek/tf-a-stm32mp-2.2.r1-r0/tf-a-stm32mp-2.2.r1/../build/serialboot/bl2/auth_mod.o
 .debug_info    0x0000000000009772      0x3ed /home/charles/linux/code/tfa/mp157_alientek/tf-a-stm32mp-2.2.r1-r0/tf-a-stm32mp-2.2.r1/../build/serialboot/bl2/crypto_mod.o
 .debug_info    0x0000000000009b5f      0x579 /home/charles/linux/code/tfa/mp157_alientek/tf-a-stm32mp-2.2.r1-r0/tf-a-stm32mp-2.2.r1/../build/serialboot/bl2/img_parser_mod.o
 .debug_info    0x000000000000a0d8      0x55a /home/charles/linux/code/tfa/mp157_alientek/tf-a-stm32mp-2.2.r1-r0/tf-a-stm32mp-2.2.r1/../build/serialboot/bl2/stm32mp_cot.o
 .debug_info    0x000000000000a632      0xb88 /home/charles/linux/code/tfa/mp157_alientek/tf-a-stm32mp-2.2.r1-r0/tf-a-stm32mp-2.2.r1/../build/serialboot/bl2/stm32mp_crypto_lib.o
 .debug_info    0x000000000000b1ba      0x547 /home/charles/linux/code/tfa/mp157_alientek/tf-a-stm32mp-2.2.r1-r0/tf-a-stm32mp-2.2.r1/../build/serialboot/bl2/stm32mp_img_parser_lib.o
 .debug_info    0x000000000000b701      0x3ba /home/charles/linux/code/tfa/mp157_alientek/tf-a-stm32mp-2.2.r1-r0/tf-a-stm32mp-2.2.r1/../build/serialboot/bl2/stm32mp_trusted_boot.o
 .debug_info    0x000000000000babb     0x1c8b /home/charles/linux/code/tfa/mp157_alientek/tf-a-stm32mp-2.2.r1-r0/tf-a-stm32mp-2.2.r1/../build/serialboot/bl2/mmc.o
 .debug_info    0x000000000000d746      0x3a9 /home/charles/linux/code/tfa/mp157_alientek/tf-a-stm32mp-2.2.r1-r0/tf-a-stm32mp-2.2.r1/../build/serialboot/bl2/gpt.o
 .debug_info    0x000000000000daef      0xb8f /home/charles/linux/code/tfa/mp157_alientek/tf-a-stm32mp-2.2.r1-r0/tf-a-stm32mp-2.2.r1/../build/serialboot/bl2/partition.o
 .debug_info    0x000000000000e67e      0x7fe /home/charles/linux/code/tfa/mp157_alientek/tf-a-stm32mp-2.2.r1-r0/tf-a-stm32mp-2.2.r1/../build/serialboot/bl2/io_mmc.o
 .debug_info    0x000000000000ee7c     0x2354 /home/charles/linux/code/tfa/mp157_alientek/tf-a-stm32mp-2.2.r1-r0/tf-a-stm32mp-2.2.r1/../build/serialboot/bl2/stm32_sdmmc2.o
 .debug_info    0x00000000000111d0     0x14f5 /home/charles/linux/code/tfa/mp157_alientek/tf-a-stm32mp-2.2.r1-r0/tf-a-stm32mp-2.2.r1/../build/serialboot/bl2/raw_nand.o
 .debug_info    0x00000000000126c5     0x2357 /home/charles/linux/code/tfa/mp157_alientek/tf-a-stm32mp-2.2.r1-r0/tf-a-stm32mp-2.2.r1/../build/serialboot/bl2/stm32_fmc2_nand.o
 .debug_info    0x0000000000014a1c     0x1065 /home/charles/linux/code/tfa/mp157_alientek/tf-a-stm32mp-2.2.r1-r0/tf-a-stm32mp-2.2.r1/../build/serialboot/bl2/spi_nand.o
 .debug_info    0x0000000000015a81      0xdb5 /home/charles/linux/code/tfa/mp157_alientek/tf-a-stm32mp-2.2.r1-r0/tf-a-stm32mp-2.2.r1/../build/serialboot/bl2/spi_nor.o
 .debug_info    0x0000000000016836      0x8fc /home/charles/linux/code/tfa/mp157_alientek/tf-a-stm32mp-2.2.r1-r0/tf-a-stm32mp-2.2.r1/../build/serialboot/bl2/spi_mem.o
 .debug_info    0x0000000000017132     0x1a82 /home/charles/linux/code/tfa/mp157_alientek/tf-a-stm32mp-2.2.r1-r0/tf-a-stm32mp-2.2.r1/../build/serialboot/bl2/stm32_qspi.o
 .debug_info    0x0000000000018bb4      0x4b8 /home/charles/linux/code/tfa/mp157_alientek/tf-a-stm32mp-2.2.r1-r0/tf-a-stm32mp-2.2.r1/../build/serialboot/bl2/core.o
 .debug_info    0x000000000001906c      0x6cf /home/charles/linux/code/tfa/mp157_alientek/tf-a-stm32mp-2.2.r1-r0/tf-a-stm32mp-2.2.r1/../build/serialboot/bl2/stm32mp1_boot_device.o
 .debug_info    0x000000000001973b     0x48ee /home/charles/linux/code/tfa/mp157_alientek/tf-a-stm32mp-2.2.r1-r0/tf-a-stm32mp-2.2.r1/../build/serialboot/bl2/stm32mp1_ddr.o
 .debug_info    0x000000000001e029     0x2066 /home/charles/linux/code/tfa/mp157_alientek/tf-a-stm32mp-2.2.r1-r0/tf-a-stm32mp-2.2.r1/../build/serialboot/bl2/stm32mp1_ram.o
 .debug_info    0x000000000002008f      0x9e1 /home/charles/linux/code/tfa/mp157_alientek/tf-a-stm32mp-2.2.r1-r0/tf-a-stm32mp-2.2.r1/../build/serialboot/bl2/desc_image_load.o
 .debug_info    0x0000000000020a70      0x42d /home/charles/linux/code/tfa/mp157_alientek/tf-a-stm32mp-2.2.r1-r0/tf-a-stm32mp-2.2.r1/../build/serialboot/bl2/plat_bl2_mem_params_desc.o
 .debug_info    0x0000000000020e9d      0x9c1 /home/charles/linux/code/tfa/mp157_alientek/tf-a-stm32mp-2.2.r1-r0/tf-a-stm32mp-2.2.r1/../build/serialboot/bl2/plat_image_load.o
 .debug_info    0x000000000002185e      0x991 /home/charles/linux/code/tfa/mp157_alientek/tf-a-stm32mp-2.2.r1-r0/tf-a-stm32mp-2.2.r1/../build/serialboot/bl2/bl2_image_load_v2.o
 .debug_info    0x00000000000221ef      0x797 /home/charles/linux/code/tfa/mp157_alientek/tf-a-stm32mp-2.2.r1-r0/tf-a-stm32mp-2.2.r1/../build/serialboot/bl2/bl2_main.o
 .debug_info    0x0000000000022986      0x116 /home/charles/linux/code/tfa/mp157_alientek/tf-a-stm32mp-2.2.r1-r0/tf-a-stm32mp-2.2.r1/../build/serialboot/bl2/bl2_arch_setup.o
 .debug_info    0x0000000000022a9c      0xacd /home/charles/linux/code/tfa/mp157_alientek/tf-a-stm32mp-2.2.r1-r0/tf-a-stm32mp-2.2.r1/../build/serialboot/bl2/bl_common.o
 .debug_info    0x0000000000023569      0x2ac /home/charles/linux/code/tfa/mp157_alientek/tf-a-stm32mp-2.2.r1-r0/tf-a-stm32mp-2.2.r1/../build/serialboot/bl2/tf_log.o
 .debug_info    0x0000000000023815      0x647 /home/charles/linux/code/tfa/mp157_alientek/tf-a-stm32mp-2.2.r1-r0/tf-a-stm32mp-2.2.r1/../build/serialboot/bl2/multi_console.o
 .debug_info    0x0000000000023e5c      0x340 /home/charles/linux/code/tfa/mp157_alientek/tf-a-stm32mp-2.2.r1-r0/tf-a-stm32mp-2.2.r1/../build/serialboot/bl2/plat_bl_common.o
 .debug_info    0x000000000002419c      0x1d3 /home/charles/linux/code/tfa/mp157_alientek/tf-a-stm32mp-2.2.r1-r0/tf-a-stm32mp-2.2.r1/../build/serialboot/bl2/plat_log_common.o
 .debug_info    0x000000000002436f       0xe9 /home/charles/linux/code/tfa/mp157_alientek/tf-a-stm32mp-2.2.r1-r0/tf-a-stm32mp-2.2.r1/../build/serialboot/bl2/popcountsi2.o
 .debug_info    0x0000000000024458      0x154 /home/charles/linux/code/tfa/mp157_alientek/tf-a-stm32mp-2.2.r1-r0/tf-a-stm32mp-2.2.r1/../build/serialboot/bl2/ctzdi2.o
 .debug_info    0x00000000000245ac      0x1f6 /home/charles/linux/code/tfa/mp157_alientek/tf-a-stm32mp-2.2.r1-r0/tf-a-stm32mp-2.2.r1/../build/serialboot/bl2/udivmoddi4.o
 .debug_info    0x00000000000247a2      0x7b5 /home/charles/linux/code/tfa/mp157_alientek/tf-a-stm32mp-2.2.r1-r0/tf-a-stm32mp-2.2.r1/../build/serialboot/bl2/stm32mp_common.o
 .debug_info    0x0000000000024f57     0x1345 /home/charles/linux/code/tfa/mp157_alientek/tf-a-stm32mp-2.2.r1-r0/tf-a-stm32mp-2.2.r1/../build/serialboot/bl2/stm32mp1_private.o
 .debug_info    0x000000000002629c      0x9b7 /home/charles/linux/code/tfa/mp157_alientek/tf-a-stm32mp-2.2.r1-r0/tf-a-stm32mp-2.2.r1/../build/serialboot/bl2/xlat_tables_arch.o
 .debug_info    0x0000000000026c53      0x9c2 /home/charles/linux/code/tfa/mp157_alientek/tf-a-stm32mp-2.2.r1-r0/tf-a-stm32mp-2.2.r1/../build/serialboot/bl2/xlat_tables_context.o
 .debug_info    0x0000000000027615     0x18ab /home/charles/linux/code/tfa/mp157_alientek/tf-a-stm32mp-2.2.r1-r0/tf-a-stm32mp-2.2.r1/../build/serialboot/bl2/xlat_tables_core.o
 .debug_info    0x0000000000028ec0      0xa8e /home/charles/linux/code/tfa/mp157_alientek/tf-a-stm32mp-2.2.r1-r0/tf-a-stm32mp-2.2.r1/../build/serialboot/bl2/xlat_tables_utils.o
 .debug_info    0x000000000002994e     0x1345 /home/charles/linux/code/tfa/mp157_alientek/tf-a-stm32mp-2.2.r1-r0/tf-a-stm32mp-2.2.r1/../build/serialboot/bl2/tzc400.o
 .debug_info    0x000000000002ac93      0x314 /home/charles/linux/code/tfa/mp157_alientek/tf-a-stm32mp-2.2.r1-r0/tf-a-stm32mp-2.2.r1/../build/serialboot/bl2/delay_timer.o
 .debug_info    0x000000000002afa7      0x395 /home/charles/linux/code/tfa/mp157_alientek/tf-a-stm32mp-2.2.r1-r0/tf-a-stm32mp-2.2.r1/../build/serialboot/bl2/generic_delay_timer.o
 .debug_info    0x000000000002b33c     0x19ff /home/charles/linux/code/tfa/mp157_alientek/tf-a-stm32mp-2.2.r1-r0/tf-a-stm32mp-2.2.r1/../build/serialboot/bl2/bsec2.o
 .debug_info    0x000000000002cd3b     0x1246 /home/charles/linux/code/tfa/mp157_alientek/tf-a-stm32mp-2.2.r1-r0/tf-a-stm32mp-2.2.r1/../build/serialboot/bl2/stm32mp_clkfunc.o
 .debug_info    0x000000000002df81     0x7961 /home/charles/linux/code/tfa/mp157_alientek/tf-a-stm32mp-2.2.r1-r0/tf-a-stm32mp-2.2.r1/../build/serialboot/bl2/stm32mp1_clk.o
 .debug_info    0x00000000000358e2     0x458a /home/charles/linux/code/tfa/mp157_alientek/tf-a-stm32mp-2.2.r1-r0/tf-a-stm32mp-2.2.r1/../build/serialboot/bl2/stm32mp1_ddr_helpers.o
 .debug_info    0x0000000000039e6c     0x1330 /home/charles/linux/code/tfa/mp157_alientek/tf-a-stm32mp-2.2.r1-r0/tf-a-stm32mp-2.2.r1/../build/serialboot/bl2/stm32_gpio.o
 .debug_info    0x000000000003b19c     0x3135 /home/charles/linux/code/tfa/mp157_alientek/tf-a-stm32mp-2.2.r1-r0/tf-a-stm32mp-2.2.r1/../build/serialboot/bl2/stm32_i2c.o
 .debug_info    0x000000000003e2d1      0x670 /home/charles/linux/code/tfa/mp157_alientek/tf-a-stm32mp-2.2.r1-r0/tf-a-stm32mp-2.2.r1/../build/serialboot/bl2/stm32_iwdg.o
 .debug_info    0x000000000003e941     0x1653 /home/charles/linux/code/tfa/mp157_alientek/tf-a-stm32mp-2.2.r1-r0/tf-a-stm32mp-2.2.r1/../build/serialboot/bl2/stm32mp_pmic.o
 .debug_info    0x000000000003ff94      0xf85 /home/charles/linux/code/tfa/mp157_alientek/tf-a-stm32mp-2.2.r1-r0/tf-a-stm32mp-2.2.r1/../build/serialboot/bl2/stpmic1.o
 .debug_info    0x0000000000040f19      0x145 /home/charles/linux/code/tfa/mp157_alientek/tf-a-stm32mp-2.2.r1-r0/tf-a-stm32mp-2.2.r1/../build/serialboot/bl2/stm32mp_dummy_regulator.o
 .debug_info    0x000000000004105e      0x315 /home/charles/linux/code/tfa/mp157_alientek/tf-a-stm32mp-2.2.r1-r0/tf-a-stm32mp-2.2.r1/../build/serialboot/bl2/stm32mp_regulator.o
 .debug_info    0x0000000000041373      0x739 /home/charles/linux/code/tfa/mp157_alientek/tf-a-stm32mp-2.2.r1-r0/tf-a-stm32mp-2.2.r1/../build/serialboot/bl2/stm32mp1_reset.o
 .debug_info    0x0000000000041aac     0x1835 /home/charles/linux/code/tfa/mp157_alientek/tf-a-stm32mp-2.2.r1-r0/tf-a-stm32mp-2.2.r1/../build/serialboot/bl2/stm32mp_dt.o
 .debug_info    0x00000000000432e1      0x5b1 /home/charles/linux/code/tfa/mp157_alientek/tf-a-stm32mp-2.2.r1-r0/tf-a-stm32mp-2.2.r1/../build/serialboot/bl2/stm32mp_shres_helpers.o
 .debug_info    0x0000000000043892      0xfb8 /home/charles/linux/code/tfa/mp157_alientek/tf-a-stm32mp-2.2.r1-r0/tf-a-stm32mp-2.2.r1/../build/serialboot/bl2/stm32mp1_context.o
 .debug_info    0x000000000004484a      0x4ad /home/charles/linux/code/tfa/mp157_alientek/tf-a-stm32mp-2.2.r1-r0/tf-a-stm32mp-2.2.r1/../build/serialboot/bl2/stm32mp1_dbgmcu.o
 .debug_info    0x0000000000044cf7      0x3a4 /home/charles/linux/code/tfa/mp157_alientek/tf-a-stm32mp-2.2.r1-r0/tf-a-stm32mp-2.2.r1/../build/serialboot/bl2/stm32mp1_security.o
 .debug_info    0x000000000004509b      0x98e /home/charles/linux/code/tfa/mp157_alientek/tf-a-stm32mp-2.2.r1-r0/tf-a-stm32mp-2.2.r1/../build/serialboot/bl2/stm32mp1_syscfg.o
 .debug_info    0x0000000000045a29       0x22 /home/charles/linux/code/tfa/mp157_alientek/tf-a-stm32mp-2.2.r1-r0/tf-a-stm32mp-2.2.r1/../build/serialboot/bl2/spinlock.o
 .debug_info    0x0000000000045a4b       0x22 /home/charles/linux/code/tfa/mp157_alientek/tf-a-stm32mp-2.2.r1-r0/tf-a-stm32mp-2.2.r1/../build/serialboot/bl2/platform_up_stack.o
 .debug_info    0x0000000000045a6d       0x22 /home/charles/linux/code/tfa/mp157_alientek/tf-a-stm32mp-2.2.r1-r0/tf-a-stm32mp-2.2.r1/../build/serialboot/bl2/bl2_el3_entrypoint.o
 .debug_info    0x0000000000045a8f       0x26 /home/charles/linux/code/tfa/mp157_alientek/tf-a-stm32mp-2.2.r1-r0/tf-a-stm32mp-2.2.r1/../build/serialboot/bl2/bl2_el3_exceptions.o
 .debug_info    0x0000000000045ab5       0x22 /home/charles/linux/code/tfa/mp157_alientek/tf-a-stm32mp-2.2.r1-r0/tf-a-stm32mp-2.2.r1/../build/serialboot/bl2/cpu_helpers.o
 .debug_info    0x0000000000045ad7       0x22 /home/charles/linux/code/tfa/mp157_alientek/tf-a-stm32mp-2.2.r1-r0/tf-a-stm32mp-2.2.r1/../build/serialboot/bl2/debug.o
 .debug_info    0x0000000000045af9       0x22 /home/charles/linux/code/tfa/mp157_alientek/tf-a-stm32mp-2.2.r1-r0/tf-a-stm32mp-2.2.r1/../build/serialboot/bl2/cache_helpers.o
 .debug_info    0x0000000000045b1b       0x22 /home/charles/linux/code/tfa/mp157_alientek/tf-a-stm32mp-2.2.r1-r0/tf-a-stm32mp-2.2.r1/../build/serialboot/bl2/misc_helpers.o
 .debug_info    0x0000000000045b3d       0x26 /home/charles/linux/code/tfa/mp157_alientek/tf-a-stm32mp-2.2.r1-r0/tf-a-stm32mp-2.2.r1/../build/serialboot/bl2/aeabi_uldivmod.o
 .debug_info    0x0000000000045b63       0x22 /home/charles/linux/code/tfa/mp157_alientek/tf-a-stm32mp-2.2.r1-r0/tf-a-stm32mp-2.2.r1/../build/serialboot/bl2/stm32_console.o
 .debug_info    0x0000000000045b85       0x22 /home/charles/linux/code/tfa/mp157_alientek/tf-a-stm32mp-2.2.r1-r0/tf-a-stm32mp-2.2.r1/../build/serialboot/bl2/enable_mmu.o
 .debug_info    0x0000000000045ba7       0x22 /home/charles/linux/code/tfa/mp157_alientek/tf-a-stm32mp-2.2.r1-r0/tf-a-stm32mp-2.2.r1/../build/serialboot/bl2/cortex_a7.o
 .debug_info    0x0000000000045bc9       0x22 /home/charles/linux/code/tfa/mp157_alientek/tf-a-stm32mp-2.2.r1-r0/tf-a-stm32mp-2.2.r1/../build/serialboot/bl2/stm32mp1_helper.o
 .debug_info    0x0000000000045beb      0x7e8 /home/charles/linux/code/tfa/mp157_alientek/tf-a-stm32mp-2.2.r1-r0/tf-a-stm32mp-2.2.r1/../build/serialboot/lib/libfdt.a(fdt.o)
 .debug_info    0x00000000000463d3      0x260 /home/charles/linux/code/tfa/mp157_alientek/tf-a-stm32mp-2.2.r1-r0/tf-a-stm32mp-2.2.r1/../build/serialboot/lib/libfdt.a(fdt_addresses.o)
 .debug_info    0x0000000000046633     0x2261 /home/charles/linux/code/tfa/mp157_alientek/tf-a-stm32mp-2.2.r1-r0/tf-a-stm32mp-2.2.r1/../build/serialboot/lib/libfdt.a(fdt_ro.o)
 .debug_info    0x0000000000048894      0x1f4 /home/charles/linux/code/tfa/mp157_alientek/tf-a-stm32mp-2.2.r1-r0/tf-a-stm32mp-2.2.r1/../build/serialboot/lib/libc.a(assert.o)
 .debug_info    0x0000000000048a88       0xc9 /home/charles/linux/code/tfa/mp157_alientek/tf-a-stm32mp-2.2.r1-r0/tf-a-stm32mp-2.2.r1/../build/serialboot/lib/libc.a(memchr.o)
 .debug_info    0x0000000000048b51       0xff /home/charles/linux/code/tfa/mp157_alientek/tf-a-stm32mp-2.2.r1-r0/tf-a-stm32mp-2.2.r1/../build/serialboot/lib/libc.a(memcmp.o)
 .debug_info    0x0000000000048c50       0xd6 /home/charles/linux/code/tfa/mp157_alientek/tf-a-stm32mp-2.2.r1-r0/tf-a-stm32mp-2.2.r1/../build/serialboot/lib/libc.a(memcpy.o)
 .debug_info    0x0000000000048d26      0x11e /home/charles/linux/code/tfa/mp157_alientek/tf-a-stm32mp-2.2.r1-r0/tf-a-stm32mp-2.2.r1/../build/serialboot/lib/libc.a(memmove.o)
 .debug_info    0x0000000000048e44       0xb5 /home/charles/linux/code/tfa/mp157_alientek/tf-a-stm32mp-2.2.r1-r0/tf-a-stm32mp-2.2.r1/../build/serialboot/lib/libc.a(memset.o)
 .debug_info    0x0000000000048ef9      0x4e5 /home/charles/linux/code/tfa/mp157_alientek/tf-a-stm32mp-2.2.r1-r0/tf-a-stm32mp-2.2.r1/../build/serialboot/lib/libc.a(printf.o)
 .debug_info    0x00000000000493de       0xcb /home/charles/linux/code/tfa/mp157_alientek/tf-a-stm32mp-2.2.r1-r0/tf-a-stm32mp-2.2.r1/../build/serialboot/lib/libc.a(putchar.o)
 .debug_info    0x00000000000494a9      0x391 /home/charles/linux/code/tfa/mp157_alientek/tf-a-stm32mp-2.2.r1-r0/tf-a-stm32mp-2.2.r1/../build/serialboot/lib/libc.a(snprintf.o)
 .debug_info    0x000000000004983a       0xa5 /home/charles/linux/code/tfa/mp157_alientek/tf-a-stm32mp-2.2.r1-r0/tf-a-stm32mp-2.2.r1/../build/serialboot/lib/libc.a(strchr.o)
 .debug_info    0x00000000000498df       0x87 /home/charles/linux/code/tfa/mp157_alientek/tf-a-stm32mp-2.2.r1-r0/tf-a-stm32mp-2.2.r1/../build/serialboot/lib/libc.a(strcmp.o)
 .debug_info    0x0000000000049966       0x8c /home/charles/linux/code/tfa/mp157_alientek/tf-a-stm32mp-2.2.r1-r0/tf-a-stm32mp-2.2.r1/../build/serialboot/lib/libc.a(strlen.o)
 .debug_info    0x00000000000499f2       0xa5 /home/charles/linux/code/tfa/mp157_alientek/tf-a-stm32mp-2.2.r1-r0/tf-a-stm32mp-2.2.r1/../build/serialboot/lib/libc.a(strncmp.o)
 .debug_info    0x0000000000049a97       0x9a /home/charles/linux/code/tfa/mp157_alientek/tf-a-stm32mp-2.2.r1-r0/tf-a-stm32mp-2.2.r1/../build/serialboot/lib/libc.a(strnlen.o)
 .debug_info    0x0000000000049b31       0xb9 /home/charles/linux/code/tfa/mp157_alientek/tf-a-stm32mp-2.2.r1-r0/tf-a-stm32mp-2.2.r1/../build/serialboot/lib/libc.a(strrchr.o)

.debug_abbrev   0x0000000000000000     0xd2e3
 .debug_abbrev  0x0000000000000000       0x45 /home/charles/linux/code/tfa/mp157_alientek/tf-a-stm32mp-2.2.r1-r0/tf-a-stm32mp-2.2.r1/../build/serialboot/bl2/build_message.o
 .debug_abbrev  0x0000000000000045      0x3c4 /home/charles/linux/code/tfa/mp157_alientek/tf-a-stm32mp-2.2.r1-r0/tf-a-stm32mp-2.2.r1/../build/serialboot/bl2/io_block.o
 .debug_abbrev  0x0000000000000409      0x24c /home/charles/linux/code/tfa/mp157_alientek/tf-a-stm32mp-2.2.r1-r0/tf-a-stm32mp-2.2.r1/../build/serialboot/bl2/io_dummy.o
 .debug_abbrev  0x0000000000000655      0x29a /home/charles/linux/code/tfa/mp157_alientek/tf-a-stm32mp-2.2.r1-r0/tf-a-stm32mp-2.2.r1/../build/serialboot/bl2/io_mtd.o
 .debug_abbrev  0x00000000000008ef      0x35b /home/charles/linux/code/tfa/mp157_alientek/tf-a-stm32mp-2.2.r1-r0/tf-a-stm32mp-2.2.r1/../build/serialboot/bl2/io_storage.o
 .debug_abbrev  0x0000000000000c4a      0x3fe /home/charles/linux/code/tfa/mp157_alientek/tf-a-stm32mp-2.2.r1-r0/tf-a-stm32mp-2.2.r1/../build/serialboot/bl2/stm32_hash.o
 .debug_abbrev  0x0000000000001048      0x331 /home/charles/linux/code/tfa/mp157_alientek/tf-a-stm32mp-2.2.r1-r0/tf-a-stm32mp-2.2.r1/../build/serialboot/bl2/io_stm32image.o
 .debug_abbrev  0x0000000000001379      0x345 /home/charles/linux/code/tfa/mp157_alientek/tf-a-stm32mp-2.2.r1-r0/tf-a-stm32mp-2.2.r1/../build/serialboot/bl2/bl2_io_storage.o
 .debug_abbrev  0x00000000000016be      0x401 /home/charles/linux/code/tfa/mp157_alientek/tf-a-stm32mp-2.2.r1-r0/tf-a-stm32mp-2.2.r1/../build/serialboot/bl2/bl2_plat_setup.o
 .debug_abbrev  0x0000000000001abf      0x310 /home/charles/linux/code/tfa/mp157_alientek/tf-a-stm32mp-2.2.r1-r0/tf-a-stm32mp-2.2.r1/../build/serialboot/bl2/auth_mod.o
 .debug_abbrev  0x0000000000001dcf      0x169 /home/charles/linux/code/tfa/mp157_alientek/tf-a-stm32mp-2.2.r1-r0/tf-a-stm32mp-2.2.r1/../build/serialboot/bl2/crypto_mod.o
 .debug_abbrev  0x0000000000001f38      0x1ff /home/charles/linux/code/tfa/mp157_alientek/tf-a-stm32mp-2.2.r1-r0/tf-a-stm32mp-2.2.r1/../build/serialboot/bl2/img_parser_mod.o
 .debug_abbrev  0x0000000000002137      0x134 /home/charles/linux/code/tfa/mp157_alientek/tf-a-stm32mp-2.2.r1-r0/tf-a-stm32mp-2.2.r1/../build/serialboot/bl2/stm32mp_cot.o
 .debug_abbrev  0x000000000000226b      0x260 /home/charles/linux/code/tfa/mp157_alientek/tf-a-stm32mp-2.2.r1-r0/tf-a-stm32mp-2.2.r1/../build/serialboot/bl2/stm32mp_crypto_lib.o
 .debug_abbrev  0x00000000000024cb      0x1ec /home/charles/linux/code/tfa/mp157_alientek/tf-a-stm32mp-2.2.r1-r0/tf-a-stm32mp-2.2.r1/../build/serialboot/bl2/stm32mp_img_parser_lib.o
 .debug_abbrev  0x00000000000026b7      0x1b3 /home/charles/linux/code/tfa/mp157_alientek/tf-a-stm32mp-2.2.r1-r0/tf-a-stm32mp-2.2.r1/../build/serialboot/bl2/stm32mp_trusted_boot.o
 .debug_abbrev  0x000000000000286a      0x4c8 /home/charles/linux/code/tfa/mp157_alientek/tf-a-stm32mp-2.2.r1-r0/tf-a-stm32mp-2.2.r1/../build/serialboot/bl2/mmc.o
 .debug_abbrev  0x0000000000002d32      0x18d /home/charles/linux/code/tfa/mp157_alientek/tf-a-stm32mp-2.2.r1-r0/tf-a-stm32mp-2.2.r1/../build/serialboot/bl2/gpt.o
 .debug_abbrev  0x0000000000002ebf      0x26a /home/charles/linux/code/tfa/mp157_alientek/tf-a-stm32mp-2.2.r1-r0/tf-a-stm32mp-2.2.r1/../build/serialboot/bl2/partition.o
 .debug_abbrev  0x0000000000003129      0x22c /home/charles/linux/code/tfa/mp157_alientek/tf-a-stm32mp-2.2.r1-r0/tf-a-stm32mp-2.2.r1/../build/serialboot/bl2/io_mmc.o
 .debug_abbrev  0x0000000000003355      0x4ea /home/charles/linux/code/tfa/mp157_alientek/tf-a-stm32mp-2.2.r1-r0/tf-a-stm32mp-2.2.r1/../build/serialboot/bl2/stm32_sdmmc2.o
 .debug_abbrev  0x000000000000383f      0x462 /home/charles/linux/code/tfa/mp157_alientek/tf-a-stm32mp-2.2.r1-r0/tf-a-stm32mp-2.2.r1/../build/serialboot/bl2/raw_nand.o
 .debug_abbrev  0x0000000000003ca1      0x501 /home/charles/linux/code/tfa/mp157_alientek/tf-a-stm32mp-2.2.r1-r0/tf-a-stm32mp-2.2.r1/../build/serialboot/bl2/stm32_fmc2_nand.o
 .debug_abbrev  0x00000000000041a2      0x3ce /home/charles/linux/code/tfa/mp157_alientek/tf-a-stm32mp-2.2.r1-r0/tf-a-stm32mp-2.2.r1/../build/serialboot/bl2/spi_nand.o
 .debug_abbrev  0x0000000000004570      0x3e1 /home/charles/linux/code/tfa/mp157_alientek/tf-a-stm32mp-2.2.r1-r0/tf-a-stm32mp-2.2.r1/../build/serialboot/bl2/spi_nor.o
 .debug_abbrev  0x0000000000004951      0x2c8 /home/charles/linux/code/tfa/mp157_alientek/tf-a-stm32mp-2.2.r1-r0/tf-a-stm32mp-2.2.r1/../build/serialboot/bl2/spi_mem.o
 .debug_abbrev  0x0000000000004c19      0x493 /home/charles/linux/code/tfa/mp157_alientek/tf-a-stm32mp-2.2.r1-r0/tf-a-stm32mp-2.2.r1/../build/serialboot/bl2/stm32_qspi.o
 .debug_abbrev  0x00000000000050ac      0x1cd /home/charles/linux/code/tfa/mp157_alientek/tf-a-stm32mp-2.2.r1-r0/tf-a-stm32mp-2.2.r1/../build/serialboot/bl2/core.o
 .debug_abbrev  0x0000000000005279      0x1e4 /home/charles/linux/code/tfa/mp157_alientek/tf-a-stm32mp-2.2.r1-r0/tf-a-stm32mp-2.2.r1/../build/serialboot/bl2/stm32mp1_boot_device.o
 .debug_abbrev  0x000000000000545d      0x426 /home/charles/linux/code/tfa/mp157_alientek/tf-a-stm32mp-2.2.r1-r0/tf-a-stm32mp-2.2.r1/../build/serialboot/bl2/stm32mp1_ddr.o
 .debug_abbrev  0x0000000000005883      0x37b /home/charles/linux/code/tfa/mp157_alientek/tf-a-stm32mp-2.2.r1-r0/tf-a-stm32mp-2.2.r1/../build/serialboot/bl2/stm32mp1_ram.o
 .debug_abbrev  0x0000000000005bfe      0x2b5 /home/charles/linux/code/tfa/mp157_alientek/tf-a-stm32mp-2.2.r1-r0/tf-a-stm32mp-2.2.r1/../build/serialboot/bl2/desc_image_load.o
 .debug_abbrev  0x0000000000005eb3       0xe2 /home/charles/linux/code/tfa/mp157_alientek/tf-a-stm32mp-2.2.r1-r0/tf-a-stm32mp-2.2.r1/../build/serialboot/bl2/plat_bl2_mem_params_desc.o
 .debug_abbrev  0x0000000000005f95      0x217 /home/charles/linux/code/tfa/mp157_alientek/tf-a-stm32mp-2.2.r1-r0/tf-a-stm32mp-2.2.r1/../build/serialboot/bl2/plat_image_load.o
 .debug_abbrev  0x00000000000061ac      0x1a8 /home/charles/linux/code/tfa/mp157_alientek/tf-a-stm32mp-2.2.r1-r0/tf-a-stm32mp-2.2.r1/../build/serialboot/bl2/bl2_image_load_v2.o
 .debug_abbrev  0x0000000000006354      0x1a1 /home/charles/linux/code/tfa/mp157_alientek/tf-a-stm32mp-2.2.r1-r0/tf-a-stm32mp-2.2.r1/../build/serialboot/bl2/bl2_main.o
 .debug_abbrev  0x00000000000064f5       0x8a /home/charles/linux/code/tfa/mp157_alientek/tf-a-stm32mp-2.2.r1-r0/tf-a-stm32mp-2.2.r1/../build/serialboot/bl2/bl2_arch_setup.o
 .debug_abbrev  0x000000000000657f      0x29c /home/charles/linux/code/tfa/mp157_alientek/tf-a-stm32mp-2.2.r1-r0/tf-a-stm32mp-2.2.r1/../build/serialboot/bl2/bl_common.o
 .debug_abbrev  0x000000000000681b      0x163 /home/charles/linux/code/tfa/mp157_alientek/tf-a-stm32mp-2.2.r1-r0/tf-a-stm32mp-2.2.r1/../build/serialboot/bl2/tf_log.o
 .debug_abbrev  0x000000000000697e      0x284 /home/charles/linux/code/tfa/mp157_alientek/tf-a-stm32mp-2.2.r1-r0/tf-a-stm32mp-2.2.r1/../build/serialboot/bl2/multi_console.o
 .debug_abbrev  0x0000000000006c02      0x1e6 /home/charles/linux/code/tfa/mp157_alientek/tf-a-stm32mp-2.2.r1-r0/tf-a-stm32mp-2.2.r1/../build/serialboot/bl2/plat_bl_common.o
 .debug_abbrev  0x0000000000006de8       0xe8 /home/charles/linux/code/tfa/mp157_alientek/tf-a-stm32mp-2.2.r1-r0/tf-a-stm32mp-2.2.r1/../build/serialboot/bl2/plat_log_common.o
 .debug_abbrev  0x0000000000006ed0       0x7d /home/charles/linux/code/tfa/mp157_alientek/tf-a-stm32mp-2.2.r1-r0/tf-a-stm32mp-2.2.r1/../build/serialboot/bl2/popcountsi2.o
 .debug_abbrev  0x0000000000006f4d       0xe2 /home/charles/linux/code/tfa/mp157_alientek/tf-a-stm32mp-2.2.r1-r0/tf-a-stm32mp-2.2.r1/../build/serialboot/bl2/ctzdi2.o
 .debug_abbrev  0x000000000000702f      0x119 /home/charles/linux/code/tfa/mp157_alientek/tf-a-stm32mp-2.2.r1-r0/tf-a-stm32mp-2.2.r1/../build/serialboot/bl2/udivmoddi4.o
 .debug_abbrev  0x0000000000007148      0x28d /home/charles/linux/code/tfa/mp157_alientek/tf-a-stm32mp-2.2.r1-r0/tf-a-stm32mp-2.2.r1/../build/serialboot/bl2/stm32mp_common.o
 .debug_abbrev  0x00000000000073d5      0x45f /home/charles/linux/code/tfa/mp157_alientek/tf-a-stm32mp-2.2.r1-r0/tf-a-stm32mp-2.2.r1/../build/serialboot/bl2/stm32mp1_private.o
 .debug_abbrev  0x0000000000007834      0x322 /home/charles/linux/code/tfa/mp157_alientek/tf-a-stm32mp-2.2.r1-r0/tf-a-stm32mp-2.2.r1/../build/serialboot/bl2/xlat_tables_arch.o
 .debug_abbrev  0x0000000000007b56      0x1f0 /home/charles/linux/code/tfa/mp157_alientek/tf-a-stm32mp-2.2.r1-r0/tf-a-stm32mp-2.2.r1/../build/serialboot/bl2/xlat_tables_context.o
 .debug_abbrev  0x0000000000007d46      0x45d /home/charles/linux/code/tfa/mp157_alientek/tf-a-stm32mp-2.2.r1-r0/tf-a-stm32mp-2.2.r1/../build/serialboot/bl2/xlat_tables_core.o
 .debug_abbrev  0x00000000000081a3      0x2b6 /home/charles/linux/code/tfa/mp157_alientek/tf-a-stm32mp-2.2.r1-r0/tf-a-stm32mp-2.2.r1/../build/serialboot/bl2/xlat_tables_utils.o
 .debug_abbrev  0x0000000000008459      0x2b1 /home/charles/linux/code/tfa/mp157_alientek/tf-a-stm32mp-2.2.r1-r0/tf-a-stm32mp-2.2.r1/../build/serialboot/bl2/tzc400.o
 .debug_abbrev  0x000000000000870a      0x170 /home/charles/linux/code/tfa/mp157_alientek/tf-a-stm32mp-2.2.r1-r0/tf-a-stm32mp-2.2.r1/../build/serialboot/bl2/delay_timer.o
 .debug_abbrev  0x000000000000887a      0x23b /home/charles/linux/code/tfa/mp157_alientek/tf-a-stm32mp-2.2.r1-r0/tf-a-stm32mp-2.2.r1/../build/serialboot/bl2/generic_delay_timer.o
 .debug_abbrev  0x0000000000008ab5      0x409 /home/charles/linux/code/tfa/mp157_alientek/tf-a-stm32mp-2.2.r1-r0/tf-a-stm32mp-2.2.r1/../build/serialboot/bl2/bsec2.o
 .debug_abbrev  0x0000000000008ebe      0x2f9 /home/charles/linux/code/tfa/mp157_alientek/tf-a-stm32mp-2.2.r1-r0/tf-a-stm32mp-2.2.r1/../build/serialboot/bl2/stm32mp_clkfunc.o
 .debug_abbrev  0x00000000000091b7      0x5ad /home/charles/linux/code/tfa/mp157_alientek/tf-a-stm32mp-2.2.r1-r0/tf-a-stm32mp-2.2.r1/../build/serialboot/bl2/stm32mp1_clk.o
 .debug_abbrev  0x0000000000009764      0x3e8 /home/charles/linux/code/tfa/mp157_alientek/tf-a-stm32mp-2.2.r1-r0/tf-a-stm32mp-2.2.r1/../build/serialboot/bl2/stm32mp1_ddr_helpers.o
 .debug_abbrev  0x0000000000009b4c      0x328 /home/charles/linux/code/tfa/mp157_alientek/tf-a-stm32mp-2.2.r1-r0/tf-a-stm32mp-2.2.r1/../build/serialboot/bl2/stm32_gpio.o
 .debug_abbrev  0x0000000000009e74      0x43e /home/charles/linux/code/tfa/mp157_alientek/tf-a-stm32mp-2.2.r1-r0/tf-a-stm32mp-2.2.r1/../build/serialboot/bl2/stm32_i2c.o
 .debug_abbrev  0x000000000000a2b2      0x24a /home/charles/linux/code/tfa/mp157_alientek/tf-a-stm32mp-2.2.r1-r0/tf-a-stm32mp-2.2.r1/../build/serialboot/bl2/stm32_iwdg.o
 .debug_abbrev  0x000000000000a4fc      0x446 /home/charles/linux/code/tfa/mp157_alientek/tf-a-stm32mp-2.2.r1-r0/tf-a-stm32mp-2.2.r1/../build/serialboot/bl2/stm32mp_pmic.o
 .debug_abbrev  0x000000000000a942      0x210 /home/charles/linux/code/tfa/mp157_alientek/tf-a-stm32mp-2.2.r1-r0/tf-a-stm32mp-2.2.r1/../build/serialboot/bl2/stpmic1.o
 .debug_abbrev  0x000000000000ab52      0x110 /home/charles/linux/code/tfa/mp157_alientek/tf-a-stm32mp-2.2.r1-r0/tf-a-stm32mp-2.2.r1/../build/serialboot/bl2/stm32mp_dummy_regulator.o
 .debug_abbrev  0x000000000000ac62      0x176 /home/charles/linux/code/tfa/mp157_alientek/tf-a-stm32mp-2.2.r1-r0/tf-a-stm32mp-2.2.r1/../build/serialboot/bl2/stm32mp_regulator.o
 .debug_abbrev  0x000000000000add8      0x1cc /home/charles/linux/code/tfa/mp157_alientek/tf-a-stm32mp-2.2.r1-r0/tf-a-stm32mp-2.2.r1/../build/serialboot/bl2/stm32mp1_reset.o
 .debug_abbrev  0x000000000000afa4      0x3a6 /home/charles/linux/code/tfa/mp157_alientek/tf-a-stm32mp-2.2.r1-r0/tf-a-stm32mp-2.2.r1/../build/serialboot/bl2/stm32mp_dt.o
 .debug_abbrev  0x000000000000b34a      0x1d7 /home/charles/linux/code/tfa/mp157_alientek/tf-a-stm32mp-2.2.r1-r0/tf-a-stm32mp-2.2.r1/../build/serialboot/bl2/stm32mp_shres_helpers.o
 .debug_abbrev  0x000000000000b521      0x3cf /home/charles/linux/code/tfa/mp157_alientek/tf-a-stm32mp-2.2.r1-r0/tf-a-stm32mp-2.2.r1/../build/serialboot/bl2/stm32mp1_context.o
 .debug_abbrev  0x000000000000b8f0      0x1f1 /home/charles/linux/code/tfa/mp157_alientek/tf-a-stm32mp-2.2.r1-r0/tf-a-stm32mp-2.2.r1/../build/serialboot/bl2/stm32mp1_dbgmcu.o
 .debug_abbrev  0x000000000000bae1      0x148 /home/charles/linux/code/tfa/mp157_alientek/tf-a-stm32mp-2.2.r1-r0/tf-a-stm32mp-2.2.r1/../build/serialboot/bl2/stm32mp1_security.o
 .debug_abbrev  0x000000000000bc29      0x20c /home/charles/linux/code/tfa/mp157_alientek/tf-a-stm32mp-2.2.r1-r0/tf-a-stm32mp-2.2.r1/../build/serialboot/bl2/stm32mp1_syscfg.o
 .debug_abbrev  0x000000000000be35       0x12 /home/charles/linux/code/tfa/mp157_alientek/tf-a-stm32mp-2.2.r1-r0/tf-a-stm32mp-2.2.r1/../build/serialboot/bl2/spinlock.o
 .debug_abbrev  0x000000000000be47       0x12 /home/charles/linux/code/tfa/mp157_alientek/tf-a-stm32mp-2.2.r1-r0/tf-a-stm32mp-2.2.r1/../build/serialboot/bl2/platform_up_stack.o
 .debug_abbrev  0x000000000000be59       0x12 /home/charles/linux/code/tfa/mp157_alientek/tf-a-stm32mp-2.2.r1-r0/tf-a-stm32mp-2.2.r1/../build/serialboot/bl2/bl2_el3_entrypoint.o
 .debug_abbrev  0x000000000000be6b       0x14 /home/charles/linux/code/tfa/mp157_alientek/tf-a-stm32mp-2.2.r1-r0/tf-a-stm32mp-2.2.r1/../build/serialboot/bl2/bl2_el3_exceptions.o
 .debug_abbrev  0x000000000000be7f       0x12 /home/charles/linux/code/tfa/mp157_alientek/tf-a-stm32mp-2.2.r1-r0/tf-a-stm32mp-2.2.r1/../build/serialboot/bl2/cpu_helpers.o
 .debug_abbrev  0x000000000000be91       0x12 /home/charles/linux/code/tfa/mp157_alientek/tf-a-stm32mp-2.2.r1-r0/tf-a-stm32mp-2.2.r1/../build/serialboot/bl2/debug.o
 .debug_abbrev  0x000000000000bea3       0x12 /home/charles/linux/code/tfa/mp157_alientek/tf-a-stm32mp-2.2.r1-r0/tf-a-stm32mp-2.2.r1/../build/serialboot/bl2/cache_helpers.o
 .debug_abbrev  0x000000000000beb5       0x12 /home/charles/linux/code/tfa/mp157_alientek/tf-a-stm32mp-2.2.r1-r0/tf-a-stm32mp-2.2.r1/../build/serialboot/bl2/misc_helpers.o
 .debug_abbrev  0x000000000000bec7       0x14 /home/charles/linux/code/tfa/mp157_alientek/tf-a-stm32mp-2.2.r1-r0/tf-a-stm32mp-2.2.r1/../build/serialboot/bl2/aeabi_uldivmod.o
 .debug_abbrev  0x000000000000bedb       0x12 /home/charles/linux/code/tfa/mp157_alientek/tf-a-stm32mp-2.2.r1-r0/tf-a-stm32mp-2.2.r1/../build/serialboot/bl2/stm32_console.o
 .debug_abbrev  0x000000000000beed       0x12 /home/charles/linux/code/tfa/mp157_alientek/tf-a-stm32mp-2.2.r1-r0/tf-a-stm32mp-2.2.r1/../build/serialboot/bl2/enable_mmu.o
 .debug_abbrev  0x000000000000beff       0x12 /home/charles/linux/code/tfa/mp157_alientek/tf-a-stm32mp-2.2.r1-r0/tf-a-stm32mp-2.2.r1/../build/serialboot/bl2/cortex_a7.o
 .debug_abbrev  0x000000000000bf11       0x12 /home/charles/linux/code/tfa/mp157_alientek/tf-a-stm32mp-2.2.r1-r0/tf-a-stm32mp-2.2.r1/../build/serialboot/bl2/stm32mp1_helper.o
 .debug_abbrev  0x000000000000bf23      0x213 /home/charles/linux/code/tfa/mp157_alientek/tf-a-stm32mp-2.2.r1-r0/tf-a-stm32mp-2.2.r1/../build/serialboot/lib/libfdt.a(fdt.o)
 .debug_abbrev  0x000000000000c136      0x12b /home/charles/linux/code/tfa/mp157_alientek/tf-a-stm32mp-2.2.r1-r0/tf-a-stm32mp-2.2.r1/../build/serialboot/lib/libfdt.a(fdt_addresses.o)
 .debug_abbrev  0x000000000000c261      0x403 /home/charles/linux/code/tfa/mp157_alientek/tf-a-stm32mp-2.2.r1-r0/tf-a-stm32mp-2.2.r1/../build/serialboot/lib/libfdt.a(fdt_ro.o)
 .debug_abbrev  0x000000000000c664       0xfd /home/charles/linux/code/tfa/mp157_alientek/tf-a-stm32mp-2.2.r1-r0/tf-a-stm32mp-2.2.r1/../build/serialboot/lib/libc.a(assert.o)
 .debug_abbrev  0x000000000000c761       0x9b /home/charles/linux/code/tfa/mp157_alientek/tf-a-stm32mp-2.2.r1-r0/tf-a-stm32mp-2.2.r1/../build/serialboot/lib/libc.a(memchr.o)
 .debug_abbrev  0x000000000000c7fc       0x94 /home/charles/linux/code/tfa/mp157_alientek/tf-a-stm32mp-2.2.r1-r0/tf-a-stm32mp-2.2.r1/../build/serialboot/lib/libc.a(memcmp.o)
 .debug_abbrev  0x000000000000c890       0xa1 /home/charles/linux/code/tfa/mp157_alientek/tf-a-stm32mp-2.2.r1-r0/tf-a-stm32mp-2.2.r1/../build/serialboot/lib/libc.a(memcpy.o)
 .debug_abbrev  0x000000000000c931       0xc6 /home/charles/linux/code/tfa/mp157_alientek/tf-a-stm32mp-2.2.r1-r0/tf-a-stm32mp-2.2.r1/../build/serialboot/lib/libc.a(memmove.o)
 .debug_abbrev  0x000000000000c9f7       0xa0 /home/charles/linux/code/tfa/mp157_alientek/tf-a-stm32mp-2.2.r1-r0/tf-a-stm32mp-2.2.r1/../build/serialboot/lib/libc.a(memset.o)
 .debug_abbrev  0x000000000000ca97      0x271 /home/charles/linux/code/tfa/mp157_alientek/tf-a-stm32mp-2.2.r1-r0/tf-a-stm32mp-2.2.r1/../build/serialboot/lib/libc.a(printf.o)
 .debug_abbrev  0x000000000000cd08       0x95 /home/charles/linux/code/tfa/mp157_alientek/tf-a-stm32mp-2.2.r1-r0/tf-a-stm32mp-2.2.r1/../build/serialboot/lib/libc.a(putchar.o)
 .debug_abbrev  0x000000000000cd9d      0x232 /home/charles/linux/code/tfa/mp157_alientek/tf-a-stm32mp-2.2.r1-r0/tf-a-stm32mp-2.2.r1/../build/serialboot/lib/libc.a(snprintf.o)
 .debug_abbrev  0x000000000000cfcf       0x80 /home/charles/linux/code/tfa/mp157_alientek/tf-a-stm32mp-2.2.r1-r0/tf-a-stm32mp-2.2.r1/../build/serialboot/lib/libc.a(strchr.o)
 .debug_abbrev  0x000000000000d04f       0x6c /home/charles/linux/code/tfa/mp157_alientek/tf-a-stm32mp-2.2.r1-r0/tf-a-stm32mp-2.2.r1/../build/serialboot/lib/libc.a(strcmp.o)
 .debug_abbrev  0x000000000000d0bb       0x84 /home/charles/linux/code/tfa/mp157_alientek/tf-a-stm32mp-2.2.r1-r0/tf-a-stm32mp-2.2.r1/../build/serialboot/lib/libc.a(strlen.o)
 .debug_abbrev  0x000000000000d13f       0x7b /home/charles/linux/code/tfa/mp157_alientek/tf-a-stm32mp-2.2.r1-r0/tf-a-stm32mp-2.2.r1/../build/serialboot/lib/libc.a(strncmp.o)
 .debug_abbrev  0x000000000000d1ba       0x95 /home/charles/linux/code/tfa/mp157_alientek/tf-a-stm32mp-2.2.r1-r0/tf-a-stm32mp-2.2.r1/../build/serialboot/lib/libc.a(strnlen.o)
 .debug_abbrev  0x000000000000d24f       0x94 /home/charles/linux/code/tfa/mp157_alientek/tf-a-stm32mp-2.2.r1-r0/tf-a-stm32mp-2.2.r1/../build/serialboot/lib/libc.a(strrchr.o)

.debug_aranges  0x0000000000000000     0x1f10
 .debug_aranges
                0x0000000000000000       0x18 /home/charles/linux/code/tfa/mp157_alientek/tf-a-stm32mp-2.2.r1-r0/tf-a-stm32mp-2.2.r1/../build/serialboot/bl2/build_message.o
 .debug_aranges
                0x0000000000000018       0x60 /home/charles/linux/code/tfa/mp157_alientek/tf-a-stm32mp-2.2.r1-r0/tf-a-stm32mp-2.2.r1/../build/serialboot/bl2/io_block.o
 .debug_aranges
                0x0000000000000078       0x58 /home/charles/linux/code/tfa/mp157_alientek/tf-a-stm32mp-2.2.r1-r0/tf-a-stm32mp-2.2.r1/../build/serialboot/bl2/io_dummy.o
 .debug_aranges
                0x00000000000000d0       0x58 /home/charles/linux/code/tfa/mp157_alientek/tf-a-stm32mp-2.2.r1-r0/tf-a-stm32mp-2.2.r1/../build/serialboot/bl2/io_mtd.o
 .debug_aranges
                0x0000000000000128       0x80 /home/charles/linux/code/tfa/mp157_alientek/tf-a-stm32mp-2.2.r1-r0/tf-a-stm32mp-2.2.r1/../build/serialboot/bl2/io_storage.o
 .debug_aranges
                0x00000000000001a8       0x48 /home/charles/linux/code/tfa/mp157_alientek/tf-a-stm32mp-2.2.r1-r0/tf-a-stm32mp-2.2.r1/../build/serialboot/bl2/stm32_hash.o
 .debug_aranges
                0x00000000000001f0       0x60 /home/charles/linux/code/tfa/mp157_alientek/tf-a-stm32mp-2.2.r1-r0/tf-a-stm32mp-2.2.r1/../build/serialboot/bl2/io_stm32image.o
 .debug_aranges
                0x0000000000000250       0x50 /home/charles/linux/code/tfa/mp157_alientek/tf-a-stm32mp-2.2.r1-r0/tf-a-stm32mp-2.2.r1/../build/serialboot/bl2/bl2_io_storage.o
 .debug_aranges
                0x00000000000002a0       0x40 /home/charles/linux/code/tfa/mp157_alientek/tf-a-stm32mp-2.2.r1-r0/tf-a-stm32mp-2.2.r1/../build/serialboot/bl2/bl2_plat_setup.o
 .debug_aranges
                0x00000000000002e0       0x40 /home/charles/linux/code/tfa/mp157_alientek/tf-a-stm32mp-2.2.r1-r0/tf-a-stm32mp-2.2.r1/../build/serialboot/bl2/auth_mod.o
 .debug_aranges
                0x0000000000000320       0x30 /home/charles/linux/code/tfa/mp157_alientek/tf-a-stm32mp-2.2.r1-r0/tf-a-stm32mp-2.2.r1/../build/serialboot/bl2/crypto_mod.o
 .debug_aranges
                0x0000000000000350       0x30 /home/charles/linux/code/tfa/mp157_alientek/tf-a-stm32mp-2.2.r1-r0/tf-a-stm32mp-2.2.r1/../build/serialboot/bl2/img_parser_mod.o
 .debug_aranges
                0x0000000000000380       0x18 /home/charles/linux/code/tfa/mp157_alientek/tf-a-stm32mp-2.2.r1-r0/tf-a-stm32mp-2.2.r1/../build/serialboot/bl2/stm32mp_cot.o
 .debug_aranges
                0x0000000000000398       0x30 /home/charles/linux/code/tfa/mp157_alientek/tf-a-stm32mp-2.2.r1-r0/tf-a-stm32mp-2.2.r1/../build/serialboot/bl2/stm32mp_crypto_lib.o
 .debug_aranges
                0x00000000000003c8       0x30 /home/charles/linux/code/tfa/mp157_alientek/tf-a-stm32mp-2.2.r1-r0/tf-a-stm32mp-2.2.r1/../build/serialboot/bl2/stm32mp_img_parser_lib.o
 .debug_aranges
                0x00000000000003f8       0x30 /home/charles/linux/code/tfa/mp157_alientek/tf-a-stm32mp-2.2.r1-r0/tf-a-stm32mp-2.2.r1/../build/serialboot/bl2/stm32mp_trusted_boot.o
 .debug_aranges
                0x0000000000000428       0x78 /home/charles/linux/code/tfa/mp157_alientek/tf-a-stm32mp-2.2.r1-r0/tf-a-stm32mp-2.2.r1/../build/serialboot/bl2/mmc.o
 .debug_aranges
                0x00000000000004a0       0x20 /home/charles/linux/code/tfa/mp157_alientek/tf-a-stm32mp-2.2.r1-r0/tf-a-stm32mp-2.2.r1/../build/serialboot/bl2/gpt.o
 .debug_aranges
                0x00000000000004c0       0x38 /home/charles/linux/code/tfa/mp157_alientek/tf-a-stm32mp-2.2.r1-r0/tf-a-stm32mp-2.2.r1/../build/serialboot/bl2/partition.o
 .debug_aranges
                0x00000000000004f8       0x58 /home/charles/linux/code/tfa/mp157_alientek/tf-a-stm32mp-2.2.r1-r0/tf-a-stm32mp-2.2.r1/../build/serialboot/bl2/io_mmc.o
 .debug_aranges
                0x0000000000000550       0x70 /home/charles/linux/code/tfa/mp157_alientek/tf-a-stm32mp-2.2.r1-r0/tf-a-stm32mp-2.2.r1/../build/serialboot/bl2/stm32_sdmmc2.o
 .debug_aranges
                0x00000000000005c0       0x80 /home/charles/linux/code/tfa/mp157_alientek/tf-a-stm32mp-2.2.r1-r0/tf-a-stm32mp-2.2.r1/../build/serialboot/bl2/raw_nand.o
 .debug_aranges
                0x0000000000000640       0x50 /home/charles/linux/code/tfa/mp157_alientek/tf-a-stm32mp-2.2.r1-r0/tf-a-stm32mp-2.2.r1/../build/serialboot/bl2/stm32_fmc2_nand.o
 .debug_aranges
                0x0000000000000690       0x60 /home/charles/linux/code/tfa/mp157_alientek/tf-a-stm32mp-2.2.r1-r0/tf-a-stm32mp-2.2.r1/../build/serialboot/bl2/spi_nand.o
 .debug_aranges
                0x00000000000006f0       0x58 /home/charles/linux/code/tfa/mp157_alientek/tf-a-stm32mp-2.2.r1-r0/tf-a-stm32mp-2.2.r1/../build/serialboot/bl2/spi_nor.o
 .debug_aranges
                0x0000000000000748       0x38 /home/charles/linux/code/tfa/mp157_alientek/tf-a-stm32mp-2.2.r1-r0/tf-a-stm32mp-2.2.r1/../build/serialboot/bl2/spi_mem.o
 .debug_aranges
                0x0000000000000780       0x60 /home/charles/linux/code/tfa/mp157_alientek/tf-a-stm32mp-2.2.r1-r0/tf-a-stm32mp-2.2.r1/../build/serialboot/bl2/stm32_qspi.o
 .debug_aranges
                0x00000000000007e0       0x28 /home/charles/linux/code/tfa/mp157_alientek/tf-a-stm32mp-2.2.r1-r0/tf-a-stm32mp-2.2.r1/../build/serialboot/bl2/core.o
 .debug_aranges
                0x0000000000000808       0x38 /home/charles/linux/code/tfa/mp157_alientek/tf-a-stm32mp-2.2.r1-r0/tf-a-stm32mp-2.2.r1/../build/serialboot/bl2/stm32mp1_boot_device.o
 .debug_aranges
                0x0000000000000840       0x50 /home/charles/linux/code/tfa/mp157_alientek/tf-a-stm32mp-2.2.r1-r0/tf-a-stm32mp-2.2.r1/../build/serialboot/bl2/stm32mp1_ddr.o
 .debug_aranges
                0x0000000000000890       0x30 /home/charles/linux/code/tfa/mp157_alientek/tf-a-stm32mp-2.2.r1-r0/tf-a-stm32mp-2.2.r1/../build/serialboot/bl2/stm32mp1_ram.o
 .debug_aranges
                0x00000000000008c0       0x58 /home/charles/linux/code/tfa/mp157_alientek/tf-a-stm32mp-2.2.r1-r0/tf-a-stm32mp-2.2.r1/../build/serialboot/bl2/desc_image_load.o
 .debug_aranges
                0x0000000000000918       0x18 /home/charles/linux/code/tfa/mp157_alientek/tf-a-stm32mp-2.2.r1-r0/tf-a-stm32mp-2.2.r1/../build/serialboot/bl2/plat_bl2_mem_params_desc.o
 .debug_aranges
                0x0000000000000930       0x30 /home/charles/linux/code/tfa/mp157_alientek/tf-a-stm32mp-2.2.r1-r0/tf-a-stm32mp-2.2.r1/../build/serialboot/bl2/plat_image_load.o
 .debug_aranges
                0x0000000000000960       0x20 /home/charles/linux/code/tfa/mp157_alientek/tf-a-stm32mp-2.2.r1-r0/tf-a-stm32mp-2.2.r1/../build/serialboot/bl2/bl2_image_load_v2.o
 .debug_aranges
                0x0000000000000980       0x28 /home/charles/linux/code/tfa/mp157_alientek/tf-a-stm32mp-2.2.r1-r0/tf-a-stm32mp-2.2.r1/../build/serialboot/bl2/bl2_main.o
 .debug_aranges
                0x00000000000009a8       0x20 /home/charles/linux/code/tfa/mp157_alientek/tf-a-stm32mp-2.2.r1-r0/tf-a-stm32mp-2.2.r1/../build/serialboot/bl2/bl2_arch_setup.o
 .debug_aranges
                0x00000000000009c8       0x38 /home/charles/linux/code/tfa/mp157_alientek/tf-a-stm32mp-2.2.r1-r0/tf-a-stm32mp-2.2.r1/../build/serialboot/bl2/bl_common.o
 .debug_aranges
                0x0000000000000a00       0x28 /home/charles/linux/code/tfa/mp157_alientek/tf-a-stm32mp-2.2.r1-r0/tf-a-stm32mp-2.2.r1/../build/serialboot/bl2/tf_log.o
 .debug_aranges
                0x0000000000000a28       0x58 /home/charles/linux/code/tfa/mp157_alientek/tf-a-stm32mp-2.2.r1-r0/tf-a-stm32mp-2.2.r1/../build/serialboot/bl2/multi_console.o
 .debug_aranges
                0x0000000000000a80       0x38 /home/charles/linux/code/tfa/mp157_alientek/tf-a-stm32mp-2.2.r1-r0/tf-a-stm32mp-2.2.r1/../build/serialboot/bl2/plat_bl_common.o
 .debug_aranges
                0x0000000000000ab8       0x20 /home/charles/linux/code/tfa/mp157_alientek/tf-a-stm32mp-2.2.r1-r0/tf-a-stm32mp-2.2.r1/../build/serialboot/bl2/plat_log_common.o
 .debug_aranges
                0x0000000000000ad8       0x20 /home/charles/linux/code/tfa/mp157_alientek/tf-a-stm32mp-2.2.r1-r0/tf-a-stm32mp-2.2.r1/../build/serialboot/bl2/popcountsi2.o
 .debug_aranges
                0x0000000000000af8       0x20 /home/charles/linux/code/tfa/mp157_alientek/tf-a-stm32mp-2.2.r1-r0/tf-a-stm32mp-2.2.r1/../build/serialboot/bl2/ctzdi2.o
 .debug_aranges
                0x0000000000000b18       0x20 /home/charles/linux/code/tfa/mp157_alientek/tf-a-stm32mp-2.2.r1-r0/tf-a-stm32mp-2.2.r1/../build/serialboot/bl2/udivmoddi4.o
 .debug_aranges
                0x0000000000000b38       0xb0 /home/charles/linux/code/tfa/mp157_alientek/tf-a-stm32mp-2.2.r1-r0/tf-a-stm32mp-2.2.r1/../build/serialboot/bl2/stm32mp_common.o
 .debug_aranges
                0x0000000000000be8       0xb8 /home/charles/linux/code/tfa/mp157_alientek/tf-a-stm32mp-2.2.r1-r0/tf-a-stm32mp-2.2.r1/../build/serialboot/bl2/stm32mp1_private.o
 .debug_aranges
                0x0000000000000ca0       0x70 /home/charles/linux/code/tfa/mp157_alientek/tf-a-stm32mp-2.2.r1-r0/tf-a-stm32mp-2.2.r1/../build/serialboot/bl2/xlat_tables_arch.o
 .debug_aranges
                0x0000000000000d10       0x78 /home/charles/linux/code/tfa/mp157_alientek/tf-a-stm32mp-2.2.r1-r0/tf-a-stm32mp-2.2.r1/../build/serialboot/bl2/xlat_tables_context.o
 .debug_aranges
                0x0000000000000d88       0x90 /home/charles/linux/code/tfa/mp157_alientek/tf-a-stm32mp-2.2.r1-r0/tf-a-stm32mp-2.2.r1/../build/serialboot/bl2/xlat_tables_core.o
 .debug_aranges
                0x0000000000000e18       0x40 /home/charles/linux/code/tfa/mp157_alientek/tf-a-stm32mp-2.2.r1-r0/tf-a-stm32mp-2.2.r1/../build/serialboot/bl2/xlat_tables_utils.o
 .debug_aranges
                0x0000000000000e58       0x60 /home/charles/linux/code/tfa/mp157_alientek/tf-a-stm32mp-2.2.r1-r0/tf-a-stm32mp-2.2.r1/../build/serialboot/bl2/tzc400.o
 .debug_aranges
                0x0000000000000eb8       0x30 /home/charles/linux/code/tfa/mp157_alientek/tf-a-stm32mp-2.2.r1-r0/tf-a-stm32mp-2.2.r1/../build/serialboot/bl2/delay_timer.o
 .debug_aranges
                0x0000000000000ee8       0x30 /home/charles/linux/code/tfa/mp157_alientek/tf-a-stm32mp-2.2.r1-r0/tf-a-stm32mp-2.2.r1/../build/serialboot/bl2/generic_delay_timer.o
 .debug_aranges
                0x0000000000000f18      0x118 /home/charles/linux/code/tfa/mp157_alientek/tf-a-stm32mp-2.2.r1-r0/tf-a-stm32mp-2.2.r1/../build/serialboot/bl2/bsec2.o
 .debug_aranges
                0x0000000000001030       0xa0 /home/charles/linux/code/tfa/mp157_alientek/tf-a-stm32mp-2.2.r1-r0/tf-a-stm32mp-2.2.r1/../build/serialboot/bl2/stm32mp_clkfunc.o
 .debug_aranges
                0x00000000000010d0      0x1c8 /home/charles/linux/code/tfa/mp157_alientek/tf-a-stm32mp-2.2.r1-r0/tf-a-stm32mp-2.2.r1/../build/serialboot/bl2/stm32mp1_clk.o
 .debug_aranges
                0x0000000000001298       0x68 /home/charles/linux/code/tfa/mp157_alientek/tf-a-stm32mp-2.2.r1-r0/tf-a-stm32mp-2.2.r1/../build/serialboot/bl2/stm32mp1_ddr_helpers.o
 .debug_aranges
                0x0000000000001300       0x38 /home/charles/linux/code/tfa/mp157_alientek/tf-a-stm32mp-2.2.r1-r0/tf-a-stm32mp-2.2.r1/../build/serialboot/bl2/stm32_gpio.o
 .debug_aranges
                0x0000000000001338       0x88 /home/charles/linux/code/tfa/mp157_alientek/tf-a-stm32mp-2.2.r1-r0/tf-a-stm32mp-2.2.r1/../build/serialboot/bl2/stm32_i2c.o
 .debug_aranges
                0x00000000000013c0       0x28 /home/charles/linux/code/tfa/mp157_alientek/tf-a-stm32mp-2.2.r1-r0/tf-a-stm32mp-2.2.r1/../build/serialboot/bl2/stm32_iwdg.o
 .debug_aranges
                0x00000000000013e8       0xa0 /home/charles/linux/code/tfa/mp157_alientek/tf-a-stm32mp-2.2.r1-r0/tf-a-stm32mp-2.2.r1/../build/serialboot/bl2/stm32mp_pmic.o
 .debug_aranges
                0x0000000000001488       0xc0 /home/charles/linux/code/tfa/mp157_alientek/tf-a-stm32mp-2.2.r1-r0/tf-a-stm32mp-2.2.r1/../build/serialboot/bl2/stpmic1.o
 .debug_aranges
                0x0000000000001548       0x28 /home/charles/linux/code/tfa/mp157_alientek/tf-a-stm32mp-2.2.r1-r0/tf-a-stm32mp-2.2.r1/../build/serialboot/bl2/stm32mp_dummy_regulator.o
 .debug_aranges
                0x0000000000001570       0x38 /home/charles/linux/code/tfa/mp157_alientek/tf-a-stm32mp-2.2.r1-r0/tf-a-stm32mp-2.2.r1/../build/serialboot/bl2/stm32mp_regulator.o
 .debug_aranges
                0x00000000000015a8       0x28 /home/charles/linux/code/tfa/mp157_alientek/tf-a-stm32mp-2.2.r1-r0/tf-a-stm32mp-2.2.r1/../build/serialboot/bl2/stm32mp1_reset.o
 .debug_aranges
                0x00000000000015d0       0xe8 /home/charles/linux/code/tfa/mp157_alientek/tf-a-stm32mp-2.2.r1-r0/tf-a-stm32mp-2.2.r1/../build/serialboot/bl2/stm32mp_dt.o
 .debug_aranges
                0x00000000000016b8       0x40 /home/charles/linux/code/tfa/mp157_alientek/tf-a-stm32mp-2.2.r1-r0/tf-a-stm32mp-2.2.r1/../build/serialboot/bl2/stm32mp_shres_helpers.o
 .debug_aranges
                0x00000000000016f8       0x78 /home/charles/linux/code/tfa/mp157_alientek/tf-a-stm32mp-2.2.r1-r0/tf-a-stm32mp-2.2.r1/../build/serialboot/bl2/stm32mp1_context.o
 .debug_aranges
                0x0000000000001770       0x38 /home/charles/linux/code/tfa/mp157_alientek/tf-a-stm32mp-2.2.r1-r0/tf-a-stm32mp-2.2.r1/../build/serialboot/bl2/stm32mp1_dbgmcu.o
 .debug_aranges
                0x00000000000017a8       0x28 /home/charles/linux/code/tfa/mp157_alientek/tf-a-stm32mp-2.2.r1-r0/tf-a-stm32mp-2.2.r1/../build/serialboot/bl2/stm32mp1_security.o
 .debug_aranges
                0x00000000000017d0       0x30 /home/charles/linux/code/tfa/mp157_alientek/tf-a-stm32mp-2.2.r1-r0/tf-a-stm32mp-2.2.r1/../build/serialboot/bl2/stm32mp1_syscfg.o
 .debug_aranges
                0x0000000000001800       0x28 /home/charles/linux/code/tfa/mp157_alientek/tf-a-stm32mp-2.2.r1-r0/tf-a-stm32mp-2.2.r1/../build/serialboot/bl2/spinlock.o
 .debug_aranges
                0x0000000000001828       0x28 /home/charles/linux/code/tfa/mp157_alientek/tf-a-stm32mp-2.2.r1-r0/tf-a-stm32mp-2.2.r1/../build/serialboot/bl2/platform_up_stack.o
 .debug_aranges
                0x0000000000001850       0x28 /home/charles/linux/code/tfa/mp157_alientek/tf-a-stm32mp-2.2.r1-r0/tf-a-stm32mp-2.2.r1/../build/serialboot/bl2/bl2_el3_entrypoint.o
 .debug_aranges
                0x0000000000001878       0x20 /home/charles/linux/code/tfa/mp157_alientek/tf-a-stm32mp-2.2.r1-r0/tf-a-stm32mp-2.2.r1/../build/serialboot/bl2/bl2_el3_exceptions.o
 .debug_aranges
                0x0000000000001898       0x40 /home/charles/linux/code/tfa/mp157_alientek/tf-a-stm32mp-2.2.r1-r0/tf-a-stm32mp-2.2.r1/../build/serialboot/bl2/cpu_helpers.o
 .debug_aranges
                0x00000000000018d8       0x58 /home/charles/linux/code/tfa/mp157_alientek/tf-a-stm32mp-2.2.r1-r0/tf-a-stm32mp-2.2.r1/../build/serialboot/bl2/debug.o
 .debug_aranges
                0x0000000000001930       0x60 /home/charles/linux/code/tfa/mp157_alientek/tf-a-stm32mp-2.2.r1-r0/tf-a-stm32mp-2.2.r1/../build/serialboot/bl2/cache_helpers.o
 .debug_aranges
                0x0000000000001990       0x40 /home/charles/linux/code/tfa/mp157_alientek/tf-a-stm32mp-2.2.r1-r0/tf-a-stm32mp-2.2.r1/../build/serialboot/bl2/misc_helpers.o
 .debug_aranges
                0x00000000000019d0       0x20 /home/charles/linux/code/tfa/mp157_alientek/tf-a-stm32mp-2.2.r1-r0/tf-a-stm32mp-2.2.r1/../build/serialboot/bl2/aeabi_uldivmod.o
 .debug_aranges
                0x00000000000019f0       0x50 /home/charles/linux/code/tfa/mp157_alientek/tf-a-stm32mp-2.2.r1-r0/tf-a-stm32mp-2.2.r1/../build/serialboot/bl2/stm32_console.o
 .debug_aranges
                0x0000000000001a40       0x28 /home/charles/linux/code/tfa/mp157_alientek/tf-a-stm32mp-2.2.r1-r0/tf-a-stm32mp-2.2.r1/../build/serialboot/bl2/enable_mmu.o
 .debug_aranges
                0x0000000000001a68       0x40 /home/charles/linux/code/tfa/mp157_alientek/tf-a-stm32mp-2.2.r1-r0/tf-a-stm32mp-2.2.r1/../build/serialboot/bl2/cortex_a7.o
 .debug_aranges
                0x0000000000001aa8       0x98 /home/charles/linux/code/tfa/mp157_alientek/tf-a-stm32mp-2.2.r1-r0/tf-a-stm32mp-2.2.r1/../build/serialboot/bl2/stm32mp1_helper.o
 .debug_aranges
                0x0000000000001b40       0x70 /home/charles/linux/code/tfa/mp157_alientek/tf-a-stm32mp-2.2.r1-r0/tf-a-stm32mp-2.2.r1/../build/serialboot/lib/libfdt.a(fdt.o)
 .debug_aranges
                0x0000000000001bb0       0x28 /home/charles/linux/code/tfa/mp157_alientek/tf-a-stm32mp-2.2.r1-r0/tf-a-stm32mp-2.2.r1/../build/serialboot/lib/libfdt.a(fdt_addresses.o)
 .debug_aranges
                0x0000000000001bd8      0x140 /home/charles/linux/code/tfa/mp157_alientek/tf-a-stm32mp-2.2.r1-r0/tf-a-stm32mp-2.2.r1/../build/serialboot/lib/libfdt.a(fdt_ro.o)
 .debug_aranges
                0x0000000000001d18       0x20 /home/charles/linux/code/tfa/mp157_alientek/tf-a-stm32mp-2.2.r1-r0/tf-a-stm32mp-2.2.r1/../build/serialboot/lib/libc.a(assert.o)
 .debug_aranges
                0x0000000000001d38       0x20 /home/charles/linux/code/tfa/mp157_alientek/tf-a-stm32mp-2.2.r1-r0/tf-a-stm32mp-2.2.r1/../build/serialboot/lib/libc.a(memchr.o)
 .debug_aranges
                0x0000000000001d58       0x20 /home/charles/linux/code/tfa/mp157_alientek/tf-a-stm32mp-2.2.r1-r0/tf-a-stm32mp-2.2.r1/../build/serialboot/lib/libc.a(memcmp.o)
 .debug_aranges
                0x0000000000001d78       0x20 /home/charles/linux/code/tfa/mp157_alientek/tf-a-stm32mp-2.2.r1-r0/tf-a-stm32mp-2.2.r1/../build/serialboot/lib/libc.a(memcpy.o)
 .debug_aranges
                0x0000000000001d98       0x20 /home/charles/linux/code/tfa/mp157_alientek/tf-a-stm32mp-2.2.r1-r0/tf-a-stm32mp-2.2.r1/../build/serialboot/lib/libc.a(memmove.o)
 .debug_aranges
                0x0000000000001db8       0x20 /home/charles/linux/code/tfa/mp157_alientek/tf-a-stm32mp-2.2.r1-r0/tf-a-stm32mp-2.2.r1/../build/serialboot/lib/libc.a(memset.o)
 .debug_aranges
                0x0000000000001dd8       0x30 /home/charles/linux/code/tfa/mp157_alientek/tf-a-stm32mp-2.2.r1-r0/tf-a-stm32mp-2.2.r1/../build/serialboot/lib/libc.a(printf.o)
 .debug_aranges
                0x0000000000001e08       0x20 /home/charles/linux/code/tfa/mp157_alientek/tf-a-stm32mp-2.2.r1-r0/tf-a-stm32mp-2.2.r1/../build/serialboot/lib/libc.a(putchar.o)
 .debug_aranges
                0x0000000000001e28       0x28 /home/charles/linux/code/tfa/mp157_alientek/tf-a-stm32mp-2.2.r1-r0/tf-a-stm32mp-2.2.r1/../build/serialboot/lib/libc.a(snprintf.o)
 .debug_aranges
                0x0000000000001e50       0x20 /home/charles/linux/code/tfa/mp157_alientek/tf-a-stm32mp-2.2.r1-r0/tf-a-stm32mp-2.2.r1/../build/serialboot/lib/libc.a(strchr.o)
 .debug_aranges
                0x0000000000001e70       0x20 /home/charles/linux/code/tfa/mp157_alientek/tf-a-stm32mp-2.2.r1-r0/tf-a-stm32mp-2.2.r1/../build/serialboot/lib/libc.a(strcmp.o)
 .debug_aranges
                0x0000000000001e90       0x20 /home/charles/linux/code/tfa/mp157_alientek/tf-a-stm32mp-2.2.r1-r0/tf-a-stm32mp-2.2.r1/../build/serialboot/lib/libc.a(strlen.o)
 .debug_aranges
                0x0000000000001eb0       0x20 /home/charles/linux/code/tfa/mp157_alientek/tf-a-stm32mp-2.2.r1-r0/tf-a-stm32mp-2.2.r1/../build/serialboot/lib/libc.a(strncmp.o)
 .debug_aranges
                0x0000000000001ed0       0x20 /home/charles/linux/code/tfa/mp157_alientek/tf-a-stm32mp-2.2.r1-r0/tf-a-stm32mp-2.2.r1/../build/serialboot/lib/libc.a(strnlen.o)
 .debug_aranges
                0x0000000000001ef0       0x20 /home/charles/linux/code/tfa/mp157_alientek/tf-a-stm32mp-2.2.r1-r0/tf-a-stm32mp-2.2.r1/../build/serialboot/lib/libc.a(strrchr.o)

.debug_line     0x0000000000000000    0x227b0
 .debug_line    0x0000000000000000       0x28 /home/charles/linux/code/tfa/mp157_alientek/tf-a-stm32mp-2.2.r1-r0/tf-a-stm32mp-2.2.r1/../build/serialboot/bl2/build_message.o
 .debug_line    0x0000000000000028      0x71f /home/charles/linux/code/tfa/mp157_alientek/tf-a-stm32mp-2.2.r1-r0/tf-a-stm32mp-2.2.r1/../build/serialboot/bl2/io_block.o
 .debug_line    0x0000000000000747      0x2fd /home/charles/linux/code/tfa/mp157_alientek/tf-a-stm32mp-2.2.r1-r0/tf-a-stm32mp-2.2.r1/../build/serialboot/bl2/io_dummy.o
 .debug_line    0x0000000000000a44      0x444 /home/charles/linux/code/tfa/mp157_alientek/tf-a-stm32mp-2.2.r1-r0/tf-a-stm32mp-2.2.r1/../build/serialboot/bl2/io_mtd.o
 .debug_line    0x0000000000000e88      0x5ea /home/charles/linux/code/tfa/mp157_alientek/tf-a-stm32mp-2.2.r1-r0/tf-a-stm32mp-2.2.r1/../build/serialboot/bl2/io_storage.o
 .debug_line    0x0000000000001472      0x7fd /home/charles/linux/code/tfa/mp157_alientek/tf-a-stm32mp-2.2.r1-r0/tf-a-stm32mp-2.2.r1/../build/serialboot/bl2/stm32_hash.o
 .debug_line    0x0000000000001c6f      0x5d5 /home/charles/linux/code/tfa/mp157_alientek/tf-a-stm32mp-2.2.r1-r0/tf-a-stm32mp-2.2.r1/../build/serialboot/bl2/io_stm32image.o
 .debug_line    0x0000000000002244      0x821 /home/charles/linux/code/tfa/mp157_alientek/tf-a-stm32mp-2.2.r1-r0/tf-a-stm32mp-2.2.r1/../build/serialboot/bl2/bl2_io_storage.o
 .debug_line    0x0000000000002a65      0xb16 /home/charles/linux/code/tfa/mp157_alientek/tf-a-stm32mp-2.2.r1-r0/tf-a-stm32mp-2.2.r1/../build/serialboot/bl2/bl2_plat_setup.o
 .debug_line    0x000000000000357b      0x534 /home/charles/linux/code/tfa/mp157_alientek/tf-a-stm32mp-2.2.r1-r0/tf-a-stm32mp-2.2.r1/../build/serialboot/bl2/auth_mod.o
 .debug_line    0x0000000000003aaf      0x249 /home/charles/linux/code/tfa/mp157_alientek/tf-a-stm32mp-2.2.r1-r0/tf-a-stm32mp-2.2.r1/../build/serialboot/bl2/crypto_mod.o
 .debug_line    0x0000000000003cf8      0x310 /home/charles/linux/code/tfa/mp157_alientek/tf-a-stm32mp-2.2.r1-r0/tf-a-stm32mp-2.2.r1/../build/serialboot/bl2/img_parser_mod.o
 .debug_line    0x0000000000004008      0x107 /home/charles/linux/code/tfa/mp157_alientek/tf-a-stm32mp-2.2.r1-r0/tf-a-stm32mp-2.2.r1/../build/serialboot/bl2/stm32mp_cot.o
 .debug_line    0x000000000000410f      0x37d /home/charles/linux/code/tfa/mp157_alientek/tf-a-stm32mp-2.2.r1-r0/tf-a-stm32mp-2.2.r1/../build/serialboot/bl2/stm32mp_crypto_lib.o
 .debug_line    0x000000000000448c      0x226 /home/charles/linux/code/tfa/mp157_alientek/tf-a-stm32mp-2.2.r1-r0/tf-a-stm32mp-2.2.r1/../build/serialboot/bl2/stm32mp_img_parser_lib.o
 .debug_line    0x00000000000046b2      0x1fa /home/charles/linux/code/tfa/mp157_alientek/tf-a-stm32mp-2.2.r1-r0/tf-a-stm32mp-2.2.r1/../build/serialboot/bl2/stm32mp_trusted_boot.o
 .debug_line    0x00000000000048ac      0xc8a /home/charles/linux/code/tfa/mp157_alientek/tf-a-stm32mp-2.2.r1-r0/tf-a-stm32mp-2.2.r1/../build/serialboot/bl2/mmc.o
 .debug_line    0x0000000000005536      0x1e2 /home/charles/linux/code/tfa/mp157_alientek/tf-a-stm32mp-2.2.r1-r0/tf-a-stm32mp-2.2.r1/../build/serialboot/bl2/gpt.o
 .debug_line    0x0000000000005718      0x475 /home/charles/linux/code/tfa/mp157_alientek/tf-a-stm32mp-2.2.r1-r0/tf-a-stm32mp-2.2.r1/../build/serialboot/bl2/partition.o
 .debug_line    0x0000000000005b8d      0x2b3 /home/charles/linux/code/tfa/mp157_alientek/tf-a-stm32mp-2.2.r1-r0/tf-a-stm32mp-2.2.r1/../build/serialboot/bl2/io_mmc.o
 .debug_line    0x0000000000005e40     0x11f3 /home/charles/linux/code/tfa/mp157_alientek/tf-a-stm32mp-2.2.r1-r0/tf-a-stm32mp-2.2.r1/../build/serialboot/bl2/stm32_sdmmc2.o
 .debug_line    0x0000000000007033      0x8c5 /home/charles/linux/code/tfa/mp157_alientek/tf-a-stm32mp-2.2.r1-r0/tf-a-stm32mp-2.2.r1/../build/serialboot/bl2/raw_nand.o
 .debug_line    0x00000000000078f8     0x139e /home/charles/linux/code/tfa/mp157_alientek/tf-a-stm32mp-2.2.r1-r0/tf-a-stm32mp-2.2.r1/../build/serialboot/bl2/stm32_fmc2_nand.o
 .debug_line    0x0000000000008c96      0x6eb /home/charles/linux/code/tfa/mp157_alientek/tf-a-stm32mp-2.2.r1-r0/tf-a-stm32mp-2.2.r1/../build/serialboot/bl2/spi_nand.o
 .debug_line    0x0000000000009381      0x6e9 /home/charles/linux/code/tfa/mp157_alientek/tf-a-stm32mp-2.2.r1-r0/tf-a-stm32mp-2.2.r1/../build/serialboot/bl2/spi_nor.o
 .debug_line    0x0000000000009a6a      0x4dd /home/charles/linux/code/tfa/mp157_alientek/tf-a-stm32mp-2.2.r1-r0/tf-a-stm32mp-2.2.r1/../build/serialboot/bl2/spi_mem.o
 .debug_line    0x0000000000009f47      0xcaf /home/charles/linux/code/tfa/mp157_alientek/tf-a-stm32mp-2.2.r1-r0/tf-a-stm32mp-2.2.r1/../build/serialboot/bl2/stm32_qspi.o
 .debug_line    0x000000000000abf6      0x2a6 /home/charles/linux/code/tfa/mp157_alientek/tf-a-stm32mp-2.2.r1-r0/tf-a-stm32mp-2.2.r1/../build/serialboot/bl2/core.o
 .debug_line    0x000000000000ae9c      0x362 /home/charles/linux/code/tfa/mp157_alientek/tf-a-stm32mp-2.2.r1-r0/tf-a-stm32mp-2.2.r1/../build/serialboot/bl2/stm32mp1_boot_device.o
 .debug_line    0x000000000000b1fe     0x17f3 /home/charles/linux/code/tfa/mp157_alientek/tf-a-stm32mp-2.2.r1-r0/tf-a-stm32mp-2.2.r1/../build/serialboot/bl2/stm32mp1_ddr.o
 .debug_line    0x000000000000c9f1      0x903 /home/charles/linux/code/tfa/mp157_alientek/tf-a-stm32mp-2.2.r1-r0/tf-a-stm32mp-2.2.r1/../build/serialboot/bl2/stm32mp1_ram.o
 .debug_line    0x000000000000d2f4      0x63d /home/charles/linux/code/tfa/mp157_alientek/tf-a-stm32mp-2.2.r1-r0/tf-a-stm32mp-2.2.r1/../build/serialboot/bl2/desc_image_load.o
 .debug_line    0x000000000000d931      0x133 /home/charles/linux/code/tfa/mp157_alientek/tf-a-stm32mp-2.2.r1-r0/tf-a-stm32mp-2.2.r1/../build/serialboot/bl2/plat_bl2_mem_params_desc.o
 .debug_line    0x000000000000da64      0x2c7 /home/charles/linux/code/tfa/mp157_alientek/tf-a-stm32mp-2.2.r1-r0/tf-a-stm32mp-2.2.r1/../build/serialboot/bl2/plat_image_load.o
 .debug_line    0x000000000000dd2b      0x2fa /home/charles/linux/code/tfa/mp157_alientek/tf-a-stm32mp-2.2.r1-r0/tf-a-stm32mp-2.2.r1/../build/serialboot/bl2/bl2_image_load_v2.o
 .debug_line    0x000000000000e025      0x1f6 /home/charles/linux/code/tfa/mp157_alientek/tf-a-stm32mp-2.2.r1-r0/tf-a-stm32mp-2.2.r1/../build/serialboot/bl2/bl2_main.o
 .debug_line    0x000000000000e21b       0x93 /home/charles/linux/code/tfa/mp157_alientek/tf-a-stm32mp-2.2.r1-r0/tf-a-stm32mp-2.2.r1/../build/serialboot/bl2/bl2_arch_setup.o
 .debug_line    0x000000000000e2ae      0x42e /home/charles/linux/code/tfa/mp157_alientek/tf-a-stm32mp-2.2.r1-r0/tf-a-stm32mp-2.2.r1/../build/serialboot/bl2/bl_common.o
 .debug_line    0x000000000000e6dc      0x1d6 /home/charles/linux/code/tfa/mp157_alientek/tf-a-stm32mp-2.2.r1-r0/tf-a-stm32mp-2.2.r1/../build/serialboot/bl2/tf_log.o
 .debug_line    0x000000000000e8b2      0x423 /home/charles/linux/code/tfa/mp157_alientek/tf-a-stm32mp-2.2.r1-r0/tf-a-stm32mp-2.2.r1/../build/serialboot/bl2/multi_console.o
 .debug_line    0x000000000000ecd5      0x1a7 /home/charles/linux/code/tfa/mp157_alientek/tf-a-stm32mp-2.2.r1-r0/tf-a-stm32mp-2.2.r1/../build/serialboot/bl2/plat_bl_common.o
 .debug_line    0x000000000000ee7c       0xe4 /home/charles/linux/code/tfa/mp157_alientek/tf-a-stm32mp-2.2.r1-r0/tf-a-stm32mp-2.2.r1/../build/serialboot/bl2/plat_log_common.o
 .debug_line    0x000000000000ef60       0xa4 /home/charles/linux/code/tfa/mp157_alientek/tf-a-stm32mp-2.2.r1-r0/tf-a-stm32mp-2.2.r1/../build/serialboot/bl2/popcountsi2.o
 .debug_line    0x000000000000f004       0x88 /home/charles/linux/code/tfa/mp157_alientek/tf-a-stm32mp-2.2.r1-r0/tf-a-stm32mp-2.2.r1/../build/serialboot/bl2/ctzdi2.o
 .debug_line    0x000000000000f08c      0x3a6 /home/charles/linux/code/tfa/mp157_alientek/tf-a-stm32mp-2.2.r1-r0/tf-a-stm32mp-2.2.r1/../build/serialboot/bl2/udivmoddi4.o
 .debug_line    0x000000000000f432      0x52f /home/charles/linux/code/tfa/mp157_alientek/tf-a-stm32mp-2.2.r1-r0/tf-a-stm32mp-2.2.r1/../build/serialboot/bl2/stm32mp_common.o
 .debug_line    0x000000000000f961      0xa6b /home/charles/linux/code/tfa/mp157_alientek/tf-a-stm32mp-2.2.r1-r0/tf-a-stm32mp-2.2.r1/../build/serialboot/bl2/stm32mp1_private.o
 .debug_line    0x00000000000103cc      0x578 /home/charles/linux/code/tfa/mp157_alientek/tf-a-stm32mp-2.2.r1-r0/tf-a-stm32mp-2.2.r1/../build/serialboot/bl2/xlat_tables_arch.o
 .debug_line    0x0000000000010944      0x3af /home/charles/linux/code/tfa/mp157_alientek/tf-a-stm32mp-2.2.r1-r0/tf-a-stm32mp-2.2.r1/../build/serialboot/bl2/xlat_tables_context.o
 .debug_line    0x0000000000010cf3     0x101c /home/charles/linux/code/tfa/mp157_alientek/tf-a-stm32mp-2.2.r1-r0/tf-a-stm32mp-2.2.r1/../build/serialboot/bl2/xlat_tables_core.o
 .debug_line    0x0000000000011d0f      0x68c /home/charles/linux/code/tfa/mp157_alientek/tf-a-stm32mp-2.2.r1-r0/tf-a-stm32mp-2.2.r1/../build/serialboot/bl2/xlat_tables_utils.o
 .debug_line    0x000000000001239b      0x985 /home/charles/linux/code/tfa/mp157_alientek/tf-a-stm32mp-2.2.r1-r0/tf-a-stm32mp-2.2.r1/../build/serialboot/bl2/tzc400.o
 .debug_line    0x0000000000012d20      0x1ec /home/charles/linux/code/tfa/mp157_alientek/tf-a-stm32mp-2.2.r1-r0/tf-a-stm32mp-2.2.r1/../build/serialboot/bl2/delay_timer.o
 .debug_line    0x0000000000012f0c      0x241 /home/charles/linux/code/tfa/mp157_alientek/tf-a-stm32mp-2.2.r1-r0/tf-a-stm32mp-2.2.r1/../build/serialboot/bl2/generic_delay_timer.o
 .debug_line    0x000000000001314d     0x10d0 /home/charles/linux/code/tfa/mp157_alientek/tf-a-stm32mp-2.2.r1-r0/tf-a-stm32mp-2.2.r1/../build/serialboot/bl2/bsec2.o
 .debug_line    0x000000000001421d      0x94e /home/charles/linux/code/tfa/mp157_alientek/tf-a-stm32mp-2.2.r1-r0/tf-a-stm32mp-2.2.r1/../build/serialboot/bl2/stm32mp_clkfunc.o
 .debug_line    0x0000000000014b6b     0x3899 /home/charles/linux/code/tfa/mp157_alientek/tf-a-stm32mp-2.2.r1-r0/tf-a-stm32mp-2.2.r1/../build/serialboot/bl2/stm32mp1_clk.o
 .debug_line    0x0000000000018404     0x1ad1 /home/charles/linux/code/tfa/mp157_alientek/tf-a-stm32mp-2.2.r1-r0/tf-a-stm32mp-2.2.r1/../build/serialboot/bl2/stm32mp1_ddr_helpers.o
 .debug_line    0x0000000000019ed5      0x899 /home/charles/linux/code/tfa/mp157_alientek/tf-a-stm32mp-2.2.r1-r0/tf-a-stm32mp-2.2.r1/../build/serialboot/bl2/stm32_gpio.o
 .debug_line    0x000000000001a76e     0x1937 /home/charles/linux/code/tfa/mp157_alientek/tf-a-stm32mp-2.2.r1-r0/tf-a-stm32mp-2.2.r1/../build/serialboot/bl2/stm32_i2c.o
 .debug_line    0x000000000001c0a5      0x3a4 /home/charles/linux/code/tfa/mp157_alientek/tf-a-stm32mp-2.2.r1-r0/tf-a-stm32mp-2.2.r1/../build/serialboot/bl2/stm32_iwdg.o
 .debug_line    0x000000000001c449      0xa9b /home/charles/linux/code/tfa/mp157_alientek/tf-a-stm32mp-2.2.r1-r0/tf-a-stm32mp-2.2.r1/../build/serialboot/bl2/stm32mp_pmic.o
 .debug_line    0x000000000001cee4      0x617 /home/charles/linux/code/tfa/mp157_alientek/tf-a-stm32mp-2.2.r1-r0/tf-a-stm32mp-2.2.r1/../build/serialboot/bl2/stpmic1.o
 .debug_line    0x000000000001d4fb       0xad /home/charles/linux/code/tfa/mp157_alientek/tf-a-stm32mp-2.2.r1-r0/tf-a-stm32mp-2.2.r1/../build/serialboot/bl2/stm32mp_dummy_regulator.o
 .debug_line    0x000000000001d5a8      0x1a2 /home/charles/linux/code/tfa/mp157_alientek/tf-a-stm32mp-2.2.r1-r0/tf-a-stm32mp-2.2.r1/../build/serialboot/bl2/stm32mp_regulator.o
 .debug_line    0x000000000001d74a      0x386 /home/charles/linux/code/tfa/mp157_alientek/tf-a-stm32mp-2.2.r1-r0/tf-a-stm32mp-2.2.r1/../build/serialboot/bl2/stm32mp1_reset.o
 .debug_line    0x000000000001dad0      0xc9a /home/charles/linux/code/tfa/mp157_alientek/tf-a-stm32mp-2.2.r1-r0/tf-a-stm32mp-2.2.r1/../build/serialboot/bl2/stm32mp_dt.o
 .debug_line    0x000000000001e76a      0x27b /home/charles/linux/code/tfa/mp157_alientek/tf-a-stm32mp-2.2.r1-r0/tf-a-stm32mp-2.2.r1/../build/serialboot/bl2/stm32mp_shres_helpers.o
 .debug_line    0x000000000001e9e5      0x5dc /home/charles/linux/code/tfa/mp157_alientek/tf-a-stm32mp-2.2.r1-r0/tf-a-stm32mp-2.2.r1/../build/serialboot/bl2/stm32mp1_context.o
 .debug_line    0x000000000001efc1      0x293 /home/charles/linux/code/tfa/mp157_alientek/tf-a-stm32mp-2.2.r1-r0/tf-a-stm32mp-2.2.r1/../build/serialboot/bl2/stm32mp1_dbgmcu.o
 .debug_line    0x000000000001f254      0x1be /home/charles/linux/code/tfa/mp157_alientek/tf-a-stm32mp-2.2.r1-r0/tf-a-stm32mp-2.2.r1/../build/serialboot/bl2/stm32mp1_security.o
 .debug_line    0x000000000001f412      0x4ca /home/charles/linux/code/tfa/mp157_alientek/tf-a-stm32mp-2.2.r1-r0/tf-a-stm32mp-2.2.r1/../build/serialboot/bl2/stm32mp1_syscfg.o
 .debug_line    0x000000000001f8dc       0x70 /home/charles/linux/code/tfa/mp157_alientek/tf-a-stm32mp-2.2.r1-r0/tf-a-stm32mp-2.2.r1/../build/serialboot/bl2/spinlock.o
 .debug_line    0x000000000001f94c       0x6b /home/charles/linux/code/tfa/mp157_alientek/tf-a-stm32mp-2.2.r1-r0/tf-a-stm32mp-2.2.r1/../build/serialboot/bl2/platform_up_stack.o
 .debug_line    0x000000000001f9b7       0x81 /home/charles/linux/code/tfa/mp157_alientek/tf-a-stm32mp-2.2.r1-r0/tf-a-stm32mp-2.2.r1/../build/serialboot/bl2/bl2_el3_entrypoint.o
 .debug_line    0x000000000001fa38       0x57 /home/charles/linux/code/tfa/mp157_alientek/tf-a-stm32mp-2.2.r1-r0/tf-a-stm32mp-2.2.r1/../build/serialboot/bl2/bl2_el3_exceptions.o
 .debug_line    0x000000000001fa8f       0xb7 /home/charles/linux/code/tfa/mp157_alientek/tf-a-stm32mp-2.2.r1-r0/tf-a-stm32mp-2.2.r1/../build/serialboot/bl2/cpu_helpers.o
 .debug_line    0x000000000001fb46      0x104 /home/charles/linux/code/tfa/mp157_alientek/tf-a-stm32mp-2.2.r1-r0/tf-a-stm32mp-2.2.r1/../build/serialboot/bl2/debug.o
 .debug_line    0x000000000001fc4a       0xef /home/charles/linux/code/tfa/mp157_alientek/tf-a-stm32mp-2.2.r1-r0/tf-a-stm32mp-2.2.r1/../build/serialboot/bl2/cache_helpers.o
 .debug_line    0x000000000001fd39       0xbe /home/charles/linux/code/tfa/mp157_alientek/tf-a-stm32mp-2.2.r1-r0/tf-a-stm32mp-2.2.r1/../build/serialboot/bl2/misc_helpers.o
 .debug_line    0x000000000001fdf7       0x67 /home/charles/linux/code/tfa/mp157_alientek/tf-a-stm32mp-2.2.r1-r0/tf-a-stm32mp-2.2.r1/../build/serialboot/bl2/aeabi_uldivmod.o
 .debug_line    0x000000000001fe5e      0x107 /home/charles/linux/code/tfa/mp157_alientek/tf-a-stm32mp-2.2.r1-r0/tf-a-stm32mp-2.2.r1/../build/serialboot/bl2/stm32_console.o
 .debug_line    0x000000000001ff65       0xa4 /home/charles/linux/code/tfa/mp157_alientek/tf-a-stm32mp-2.2.r1-r0/tf-a-stm32mp-2.2.r1/../build/serialboot/bl2/enable_mmu.o
 .debug_line    0x0000000000020009       0xa2 /home/charles/linux/code/tfa/mp157_alientek/tf-a-stm32mp-2.2.r1-r0/tf-a-stm32mp-2.2.r1/../build/serialboot/bl2/cortex_a7.o
 .debug_line    0x00000000000200ab      0x1ec /home/charles/linux/code/tfa/mp157_alientek/tf-a-stm32mp-2.2.r1-r0/tf-a-stm32mp-2.2.r1/../build/serialboot/bl2/stm32mp1_helper.o
 .debug_line    0x0000000000020297      0x513 /home/charles/linux/code/tfa/mp157_alientek/tf-a-stm32mp-2.2.r1-r0/tf-a-stm32mp-2.2.r1/../build/serialboot/lib/libfdt.a(fdt.o)
 .debug_line    0x00000000000207aa      0x15e /home/charles/linux/code/tfa/mp157_alientek/tf-a-stm32mp-2.2.r1-r0/tf-a-stm32mp-2.2.r1/../build/serialboot/lib/libfdt.a(fdt_addresses.o)
 .debug_line    0x0000000000020908      0xfb0 /home/charles/linux/code/tfa/mp157_alientek/tf-a-stm32mp-2.2.r1-r0/tf-a-stm32mp-2.2.r1/../build/serialboot/lib/libfdt.a(fdt_ro.o)
 .debug_line    0x00000000000218b8      0x140 /home/charles/linux/code/tfa/mp157_alientek/tf-a-stm32mp-2.2.r1-r0/tf-a-stm32mp-2.2.r1/../build/serialboot/lib/libc.a(assert.o)
 .debug_line    0x00000000000219f8       0x8b /home/charles/linux/code/tfa/mp157_alientek/tf-a-stm32mp-2.2.r1-r0/tf-a-stm32mp-2.2.r1/../build/serialboot/lib/libc.a(memchr.o)
 .debug_line    0x0000000000021a83       0xa5 /home/charles/linux/code/tfa/mp157_alientek/tf-a-stm32mp-2.2.r1-r0/tf-a-stm32mp-2.2.r1/../build/serialboot/lib/libc.a(memcmp.o)
 .debug_line    0x0000000000021b28       0x87 /home/charles/linux/code/tfa/mp157_alientek/tf-a-stm32mp-2.2.r1-r0/tf-a-stm32mp-2.2.r1/../build/serialboot/lib/libc.a(memcpy.o)
 .debug_line    0x0000000000021baf       0xe2 /home/charles/linux/code/tfa/mp157_alientek/tf-a-stm32mp-2.2.r1-r0/tf-a-stm32mp-2.2.r1/../build/serialboot/lib/libc.a(memmove.o)
 .debug_line    0x0000000000021c91       0x80 /home/charles/linux/code/tfa/mp157_alientek/tf-a-stm32mp-2.2.r1-r0/tf-a-stm32mp-2.2.r1/../build/serialboot/lib/libc.a(memset.o)
 .debug_line    0x0000000000021d11      0x3e8 /home/charles/linux/code/tfa/mp157_alientek/tf-a-stm32mp-2.2.r1-r0/tf-a-stm32mp-2.2.r1/../build/serialboot/lib/libc.a(printf.o)
 .debug_line    0x00000000000220f9       0x78 /home/charles/linux/code/tfa/mp157_alientek/tf-a-stm32mp-2.2.r1-r0/tf-a-stm32mp-2.2.r1/../build/serialboot/lib/libc.a(putchar.o)
 .debug_line    0x0000000000022171      0x328 /home/charles/linux/code/tfa/mp157_alientek/tf-a-stm32mp-2.2.r1-r0/tf-a-stm32mp-2.2.r1/../build/serialboot/lib/libc.a(snprintf.o)
 .debug_line    0x0000000000022499       0x78 /home/charles/linux/code/tfa/mp157_alientek/tf-a-stm32mp-2.2.r1-r0/tf-a-stm32mp-2.2.r1/../build/serialboot/lib/libc.a(strchr.o)
 .debug_line    0x0000000000022511       0x66 /home/charles/linux/code/tfa/mp157_alientek/tf-a-stm32mp-2.2.r1-r0/tf-a-stm32mp-2.2.r1/../build/serialboot/lib/libc.a(strcmp.o)
 .debug_line    0x0000000000022577       0x7b /home/charles/linux/code/tfa/mp157_alientek/tf-a-stm32mp-2.2.r1-r0/tf-a-stm32mp-2.2.r1/../build/serialboot/lib/libc.a(strlen.o)
 .debug_line    0x00000000000225f2       0xab /home/charles/linux/code/tfa/mp157_alientek/tf-a-stm32mp-2.2.r1-r0/tf-a-stm32mp-2.2.r1/../build/serialboot/lib/libc.a(strncmp.o)
 .debug_line    0x000000000002269d       0xa5 /home/charles/linux/code/tfa/mp157_alientek/tf-a-stm32mp-2.2.r1-r0/tf-a-stm32mp-2.2.r1/../build/serialboot/lib/libc.a(strnlen.o)
 .debug_line    0x0000000000022742       0x6e /home/charles/linux/code/tfa/mp157_alientek/tf-a-stm32mp-2.2.r1-r0/tf-a-stm32mp-2.2.r1/../build/serialboot/lib/libc.a(strrchr.o)

.debug_str      0x0000000000000000     0x9c86
 .debug_str     0x0000000000000000      0x148 /home/charles/linux/code/tfa/mp157_alientek/tf-a-stm32mp-2.2.r1-r0/tf-a-stm32mp-2.2.r1/../build/serialboot/bl2/build_message.o
                                        0x15a (size before relaxing)
 .debug_str     0x0000000000000148      0x42e /home/charles/linux/code/tfa/mp157_alientek/tf-a-stm32mp-2.2.r1-r0/tf-a-stm32mp-2.2.r1/../build/serialboot/bl2/io_block.o
                                        0x698 (size before relaxing)
 .debug_str     0x0000000000000576       0xfa /home/charles/linux/code/tfa/mp157_alientek/tf-a-stm32mp-2.2.r1-r0/tf-a-stm32mp-2.2.r1/../build/serialboot/bl2/io_dummy.o
                                        0x56f (size before relaxing)
 .debug_str     0x0000000000000670      0x10d /home/charles/linux/code/tfa/mp157_alientek/tf-a-stm32mp-2.2.r1-r0/tf-a-stm32mp-2.2.r1/../build/serialboot/bl2/io_mtd.o
                                        0x5ff (size before relaxing)
 .debug_str     0x000000000000077d      0x136 /home/charles/linux/code/tfa/mp157_alientek/tf-a-stm32mp-2.2.r1-r0/tf-a-stm32mp-2.2.r1/../build/serialboot/bl2/io_storage.o
                                        0x5e8 (size before relaxing)
 .debug_str     0x00000000000008b3      0x35e /home/charles/linux/code/tfa/mp157_alientek/tf-a-stm32mp-2.2.r1-r0/tf-a-stm32mp-2.2.r1/../build/serialboot/bl2/stm32_hash.o
                                        0x62c (size before relaxing)
 .debug_str     0x0000000000000c11      0x31c /home/charles/linux/code/tfa/mp157_alientek/tf-a-stm32mp-2.2.r1-r0/tf-a-stm32mp-2.2.r1/../build/serialboot/bl2/io_stm32image.o
                                        0x85a (size before relaxing)
 .debug_str     0x0000000000000f2d      0x6a8 /home/charles/linux/code/tfa/mp157_alientek/tf-a-stm32mp-2.2.r1-r0/tf-a-stm32mp-2.2.r1/../build/serialboot/bl2/bl2_io_storage.o
                                        0xd5f (size before relaxing)
 .debug_str     0x00000000000015d5      0x7a0 /home/charles/linux/code/tfa/mp157_alientek/tf-a-stm32mp-2.2.r1-r0/tf-a-stm32mp-2.2.r1/../build/serialboot/bl2/bl2_plat_setup.o
                                        0xec2 (size before relaxing)
 .debug_str     0x0000000000001d75      0x576 /home/charles/linux/code/tfa/mp157_alientek/tf-a-stm32mp-2.2.r1-r0/tf-a-stm32mp-2.2.r1/../build/serialboot/bl2/auth_mod.o
                                        0x856 (size before relaxing)
 .debug_str     0x00000000000022eb       0x3a /home/charles/linux/code/tfa/mp157_alientek/tf-a-stm32mp-2.2.r1-r0/tf-a-stm32mp-2.2.r1/../build/serialboot/bl2/crypto_mod.o
                                        0x37c (size before relaxing)
 .debug_str     0x0000000000002325      0x145 /home/charles/linux/code/tfa/mp157_alientek/tf-a-stm32mp-2.2.r1-r0/tf-a-stm32mp-2.2.r1/../build/serialboot/bl2/img_parser_mod.o
                                        0x567 (size before relaxing)
 .debug_str     0x000000000000246a       0x7d /home/charles/linux/code/tfa/mp157_alientek/tf-a-stm32mp-2.2.r1-r0/tf-a-stm32mp-2.2.r1/../build/serialboot/bl2/stm32mp_cot.o
                                        0x624 (size before relaxing)
 .debug_str     0x00000000000024e7       0xcb /home/charles/linux/code/tfa/mp157_alientek/tf-a-stm32mp-2.2.r1-r0/tf-a-stm32mp-2.2.r1/../build/serialboot/bl2/stm32mp_crypto_lib.o
                                        0x8e0 (size before relaxing)
 .debug_str     0x00000000000025b2       0x9d /home/charles/linux/code/tfa/mp157_alientek/tf-a-stm32mp-2.2.r1-r0/tf-a-stm32mp-2.2.r1/../build/serialboot/bl2/stm32mp_img_parser_lib.o
                                        0x57d (size before relaxing)
 .debug_str     0x000000000000264f       0x7e /home/charles/linux/code/tfa/mp157_alientek/tf-a-stm32mp-2.2.r1-r0/tf-a-stm32mp-2.2.r1/../build/serialboot/bl2/stm32mp_trusted_boot.o
                                        0x363 (size before relaxing)
 .debug_str     0x00000000000026cd      0x554 /home/charles/linux/code/tfa/mp157_alientek/tf-a-stm32mp-2.2.r1-r0/tf-a-stm32mp-2.2.r1/../build/serialboot/bl2/mmc.o
                                        0x8f2 (size before relaxing)
 .debug_str     0x0000000000002c21       0x7d /home/charles/linux/code/tfa/mp157_alientek/tf-a-stm32mp-2.2.r1-r0/tf-a-stm32mp-2.2.r1/../build/serialboot/bl2/gpt.o
                                        0x33b (size before relaxing)
 .debug_str     0x0000000000002c9e      0x181 /home/charles/linux/code/tfa/mp157_alientek/tf-a-stm32mp-2.2.r1-r0/tf-a-stm32mp-2.2.r1/../build/serialboot/bl2/partition.o
                                        0x5d2 (size before relaxing)
 .debug_str     0x0000000000002e1f       0xb8 /home/charles/linux/code/tfa/mp157_alientek/tf-a-stm32mp-2.2.r1-r0/tf-a-stm32mp-2.2.r1/../build/serialboot/bl2/io_mmc.o
                                        0x553 (size before relaxing)
 .debug_str     0x0000000000002ed7      0x2a4 /home/charles/linux/code/tfa/mp157_alientek/tf-a-stm32mp-2.2.r1-r0/tf-a-stm32mp-2.2.r1/../build/serialboot/bl2/stm32_sdmmc2.o
                                        0x8e6 (size before relaxing)
 .debug_str     0x000000000000317b      0x466 /home/charles/linux/code/tfa/mp157_alientek/tf-a-stm32mp-2.2.r1-r0/tf-a-stm32mp-2.2.r1/../build/serialboot/bl2/raw_nand.o
                                        0x883 (size before relaxing)
 .debug_str     0x00000000000035e1      0x36f /home/charles/linux/code/tfa/mp157_alientek/tf-a-stm32mp-2.2.r1-r0/tf-a-stm32mp-2.2.r1/../build/serialboot/bl2/stm32_fmc2_nand.o
                                        0x915 (size before relaxing)
 .debug_str     0x0000000000003950      0x20d /home/charles/linux/code/tfa/mp157_alientek/tf-a-stm32mp-2.2.r1-r0/tf-a-stm32mp-2.2.r1/../build/serialboot/bl2/spi_nand.o
                                        0x617 (size before relaxing)
 .debug_str     0x0000000000003b5d      0x190 /home/charles/linux/code/tfa/mp157_alientek/tf-a-stm32mp-2.2.r1-r0/tf-a-stm32mp-2.2.r1/../build/serialboot/bl2/spi_nor.o
                                        0x549 (size before relaxing)
 .debug_str     0x0000000000003ced       0xb3 /home/charles/linux/code/tfa/mp157_alientek/tf-a-stm32mp-2.2.r1-r0/tf-a-stm32mp-2.2.r1/../build/serialboot/bl2/spi_mem.o
                                        0x43c (size before relaxing)
 .debug_str     0x0000000000003da0      0x1b3 /home/charles/linux/code/tfa/mp157_alientek/tf-a-stm32mp-2.2.r1-r0/tf-a-stm32mp-2.2.r1/../build/serialboot/bl2/stm32_qspi.o
                                        0x6e5 (size before relaxing)
 .debug_str     0x0000000000003f53       0x64 /home/charles/linux/code/tfa/mp157_alientek/tf-a-stm32mp-2.2.r1-r0/tf-a-stm32mp-2.2.r1/../build/serialboot/bl2/core.o
                                        0x396 (size before relaxing)
 .debug_str     0x0000000000003fb7       0x4c /home/charles/linux/code/tfa/mp157_alientek/tf-a-stm32mp-2.2.r1-r0/tf-a-stm32mp-2.2.r1/../build/serialboot/bl2/stm32mp1_boot_device.o
                                        0x4bb (size before relaxing)
 .debug_str     0x0000000000004003      0xad4 /home/charles/linux/code/tfa/mp157_alientek/tf-a-stm32mp-2.2.r1-r0/tf-a-stm32mp-2.2.r1/../build/serialboot/bl2/stm32mp1_ddr.o
                                        0xf0f (size before relaxing)
 .debug_str     0x0000000000004ad7      0x1c6 /home/charles/linux/code/tfa/mp157_alientek/tf-a-stm32mp-2.2.r1-r0/tf-a-stm32mp-2.2.r1/../build/serialboot/bl2/stm32mp1_ram.o
                                        0xdb5 (size before relaxing)
 .debug_str     0x0000000000004c9d      0x213 /home/charles/linux/code/tfa/mp157_alientek/tf-a-stm32mp-2.2.r1-r0/tf-a-stm32mp-2.2.r1/../build/serialboot/bl2/desc_image_load.o
                                        0x709 (size before relaxing)
 .debug_str     0x0000000000004eb0       0x41 /home/charles/linux/code/tfa/mp157_alientek/tf-a-stm32mp-2.2.r1-r0/tf-a-stm32mp-2.2.r1/../build/serialboot/bl2/plat_bl2_mem_params_desc.o
                                        0x478 (size before relaxing)
 .debug_str     0x0000000000004ef1       0x76 /home/charles/linux/code/tfa/mp157_alientek/tf-a-stm32mp-2.2.r1-r0/tf-a-stm32mp-2.2.r1/../build/serialboot/bl2/plat_image_load.o
                                        0x8da (size before relaxing)
 .debug_str     0x0000000000004f67       0x96 /home/charles/linux/code/tfa/mp157_alientek/tf-a-stm32mp-2.2.r1-r0/tf-a-stm32mp-2.2.r1/../build/serialboot/bl2/bl2_image_load_v2.o
                                        0x90e (size before relaxing)
 .debug_str     0x0000000000004ffd       0x86 /home/charles/linux/code/tfa/mp157_alientek/tf-a-stm32mp-2.2.r1-r0/tf-a-stm32mp-2.2.r1/../build/serialboot/bl2/bl2_main.o
                                        0x74a (size before relaxing)
 .debug_str     0x0000000000005083       0x1d /home/charles/linux/code/tfa/mp157_alientek/tf-a-stm32mp-2.2.r1-r0/tf-a-stm32mp-2.2.r1/../build/serialboot/bl2/bl2_arch_setup.o
                                        0x24c (size before relaxing)
 .debug_str     0x00000000000050a0       0x81 /home/charles/linux/code/tfa/mp157_alientek/tf-a-stm32mp-2.2.r1-r0/tf-a-stm32mp-2.2.r1/../build/serialboot/bl2/bl_common.o
                                        0x845 (size before relaxing)
 .debug_str     0x0000000000005121       0x66 /home/charles/linux/code/tfa/mp157_alientek/tf-a-stm32mp-2.2.r1-r0/tf-a-stm32mp-2.2.r1/../build/serialboot/bl2/tf_log.o
                                        0x2dc (size before relaxing)
 .debug_str     0x0000000000005187      0x104 /home/charles/linux/code/tfa/mp157_alientek/tf-a-stm32mp-2.2.r1-r0/tf-a-stm32mp-2.2.r1/../build/serialboot/bl2/multi_console.o
                                        0x3c1 (size before relaxing)
 .debug_str     0x000000000000528b       0xa9 /home/charles/linux/code/tfa/mp157_alientek/tf-a-stm32mp-2.2.r1-r0/tf-a-stm32mp-2.2.r1/../build/serialboot/bl2/plat_bl_common.o
                                        0x3a0 (size before relaxing)
 .debug_str     0x0000000000005334       0x2e /home/charles/linux/code/tfa/mp157_alientek/tf-a-stm32mp-2.2.r1-r0/tf-a-stm32mp-2.2.r1/../build/serialboot/bl2/plat_log_common.o
                                        0x29e (size before relaxing)
 .debug_str     0x0000000000005362       0x74 /home/charles/linux/code/tfa/mp157_alientek/tf-a-stm32mp-2.2.r1-r0/tf-a-stm32mp-2.2.r1/../build/serialboot/bl2/popcountsi2.o
                                        0x23c (size before relaxing)
 .debug_str     0x00000000000053d6       0x32 /home/charles/linux/code/tfa/mp157_alientek/tf-a-stm32mp-2.2.r1-r0/tf-a-stm32mp-2.2.r1/../build/serialboot/bl2/ctzdi2.o
                                        0x245 (size before relaxing)
 .debug_str     0x0000000000005408       0x63 /home/charles/linux/code/tfa/mp157_alientek/tf-a-stm32mp-2.2.r1-r0/tf-a-stm32mp-2.2.r1/../build/serialboot/bl2/udivmoddi4.o
                                        0x26f (size before relaxing)
 .debug_str     0x000000000000546b      0x158 /home/charles/linux/code/tfa/mp157_alientek/tf-a-stm32mp-2.2.r1-r0/tf-a-stm32mp-2.2.r1/../build/serialboot/bl2/stm32mp_common.o
                                        0x633 (size before relaxing)
 .debug_str     0x00000000000055c3      0x414 /home/charles/linux/code/tfa/mp157_alientek/tf-a-stm32mp-2.2.r1-r0/tf-a-stm32mp-2.2.r1/../build/serialboot/bl2/stm32mp1_private.o
                                        0x93b (size before relaxing)
 .debug_str     0x00000000000059d7      0x2a0 /home/charles/linux/code/tfa/mp157_alientek/tf-a-stm32mp-2.2.r1-r0/tf-a-stm32mp-2.2.r1/../build/serialboot/bl2/xlat_tables_arch.o
                                        0x580 (size before relaxing)
 .debug_str     0x0000000000005c77      0x20e /home/charles/linux/code/tfa/mp157_alientek/tf-a-stm32mp-2.2.r1-r0/tf-a-stm32mp-2.2.r1/../build/serialboot/bl2/xlat_tables_context.o
                                        0x637 (size before relaxing)
 .debug_str     0x0000000000005e85      0x3c1 /home/charles/linux/code/tfa/mp157_alientek/tf-a-stm32mp-2.2.r1-r0/tf-a-stm32mp-2.2.r1/../build/serialboot/bl2/xlat_tables_core.o
                                        0x94a (size before relaxing)
 .debug_str     0x0000000000006246      0x115 /home/charles/linux/code/tfa/mp157_alientek/tf-a-stm32mp-2.2.r1-r0/tf-a-stm32mp-2.2.r1/../build/serialboot/bl2/xlat_tables_utils.o
                                        0x5c8 (size before relaxing)
 .debug_str     0x000000000000635b      0x320 /home/charles/linux/code/tfa/mp157_alientek/tf-a-stm32mp-2.2.r1-r0/tf-a-stm32mp-2.2.r1/../build/serialboot/bl2/tzc400.o
                                        0x653 (size before relaxing)
 .debug_str     0x000000000000667b       0x6f /home/charles/linux/code/tfa/mp157_alientek/tf-a-stm32mp-2.2.r1-r0/tf-a-stm32mp-2.2.r1/../build/serialboot/bl2/delay_timer.o
                                        0x2ff (size before relaxing)
 .debug_str     0x00000000000066ea       0x6f /home/charles/linux/code/tfa/mp157_alientek/tf-a-stm32mp-2.2.r1-r0/tf-a-stm32mp-2.2.r1/../build/serialboot/bl2/generic_delay_timer.o
                                        0x36d (size before relaxing)
 .debug_str     0x0000000000006759      0x2c2 /home/charles/linux/code/tfa/mp157_alientek/tf-a-stm32mp-2.2.r1-r0/tf-a-stm32mp-2.2.r1/../build/serialboot/bl2/bsec2.o
                                        0x72f (size before relaxing)
 .debug_str     0x0000000000006a1b      0x281 /home/charles/linux/code/tfa/mp157_alientek/tf-a-stm32mp-2.2.r1-r0/tf-a-stm32mp-2.2.r1/../build/serialboot/bl2/stm32mp_clkfunc.o
                                        0x6af (size before relaxing)
 .debug_str     0x0000000000006c9c     0x1215 /home/charles/linux/code/tfa/mp157_alientek/tf-a-stm32mp-2.2.r1-r0/tf-a-stm32mp-2.2.r1/../build/serialboot/bl2/stm32mp1_clk.o
                                       0x196b (size before relaxing)
 .debug_str     0x0000000000007eb1      0x1b5 /home/charles/linux/code/tfa/mp157_alientek/tf-a-stm32mp-2.2.r1-r0/tf-a-stm32mp-2.2.r1/../build/serialboot/bl2/stm32mp1_ddr_helpers.o
                                        0x65d (size before relaxing)
 .debug_str     0x0000000000008066      0x117 /home/charles/linux/code/tfa/mp157_alientek/tf-a-stm32mp-2.2.r1-r0/tf-a-stm32mp-2.2.r1/../build/serialboot/bl2/stm32_gpio.o
                                        0x559 (size before relaxing)
 .debug_str     0x000000000000817d      0x551 /home/charles/linux/code/tfa/mp157_alientek/tf-a-stm32mp-2.2.r1-r0/tf-a-stm32mp-2.2.r1/../build/serialboot/bl2/stm32_i2c.o
                                        0x98d (size before relaxing)
 .debug_str     0x00000000000086ce       0x5b /home/charles/linux/code/tfa/mp157_alientek/tf-a-stm32mp-2.2.r1-r0/tf-a-stm32mp-2.2.r1/../build/serialboot/bl2/stm32_iwdg.o
                                        0x46a (size before relaxing)
 .debug_str     0x0000000000008729      0x326 /home/charles/linux/code/tfa/mp157_alientek/tf-a-stm32mp-2.2.r1-r0/tf-a-stm32mp-2.2.r1/../build/serialboot/bl2/stm32mp_pmic.o
                                        0xadd (size before relaxing)
 .debug_str     0x0000000000008a4f      0x29c /home/charles/linux/code/tfa/mp157_alientek/tf-a-stm32mp-2.2.r1-r0/tf-a-stm32mp-2.2.r1/../build/serialboot/bl2/stpmic1.o
                                        0x758 (size before relaxing)
 .debug_str     0x0000000000008ceb       0x6d /home/charles/linux/code/tfa/mp157_alientek/tf-a-stm32mp-2.2.r1-r0/tf-a-stm32mp-2.2.r1/../build/serialboot/bl2/stm32mp_dummy_regulator.o
                                        0x1f9 (size before relaxing)
 .debug_str     0x0000000000008d58       0x29 /home/charles/linux/code/tfa/mp157_alientek/tf-a-stm32mp-2.2.r1-r0/tf-a-stm32mp-2.2.r1/../build/serialboot/bl2/stm32mp_regulator.o
                                        0x32c (size before relaxing)
 .debug_str     0x0000000000008d81       0x4c /home/charles/linux/code/tfa/mp157_alientek/tf-a-stm32mp-2.2.r1-r0/tf-a-stm32mp-2.2.r1/../build/serialboot/bl2/stm32mp1_reset.o
                                        0x3ab (size before relaxing)
 .debug_str     0x0000000000008dcd      0x207 /home/charles/linux/code/tfa/mp157_alientek/tf-a-stm32mp-2.2.r1-r0/tf-a-stm32mp-2.2.r1/../build/serialboot/bl2/stm32mp_dt.o
                                        0x81c (size before relaxing)
 .debug_str     0x0000000000008fd4       0x7f /home/charles/linux/code/tfa/mp157_alientek/tf-a-stm32mp-2.2.r1-r0/tf-a-stm32mp-2.2.r1/../build/serialboot/bl2/stm32mp_shres_helpers.o
                                        0x3ac (size before relaxing)
 .debug_str     0x0000000000009053      0x2f3 /home/charles/linux/code/tfa/mp157_alientek/tf-a-stm32mp-2.2.r1-r0/tf-a-stm32mp-2.2.r1/../build/serialboot/bl2/stm32mp1_context.o
                                        0x810 (size before relaxing)
 .debug_str     0x0000000000009346       0x4e /home/charles/linux/code/tfa/mp157_alientek/tf-a-stm32mp-2.2.r1-r0/tf-a-stm32mp-2.2.r1/../build/serialboot/bl2/stm32mp1_dbgmcu.o
                                        0x37e (size before relaxing)
 .debug_str     0x0000000000009394       0x57 /home/charles/linux/code/tfa/mp157_alientek/tf-a-stm32mp-2.2.r1-r0/tf-a-stm32mp-2.2.r1/../build/serialboot/bl2/stm32mp1_security.o
                                        0x37b (size before relaxing)
 .debug_str     0x00000000000093eb       0x8a /home/charles/linux/code/tfa/mp157_alientek/tf-a-stm32mp-2.2.r1-r0/tf-a-stm32mp-2.2.r1/../build/serialboot/bl2/stm32mp1_syscfg.o
                                        0x461 (size before relaxing)
 .debug_str     0x0000000000009475       0x35 /home/charles/linux/code/tfa/mp157_alientek/tf-a-stm32mp-2.2.r1-r0/tf-a-stm32mp-2.2.r1/../build/serialboot/bl2/spinlock.o
                                         0x8c (size before relaxing)
 .debug_str     0x00000000000094aa       0x28 /home/charles/linux/code/tfa/mp157_alientek/tf-a-stm32mp-2.2.r1-r0/tf-a-stm32mp-2.2.r1/../build/serialboot/bl2/platform_up_stack.o
                                         0x8d (size before relaxing)
 .debug_str     0x00000000000094d2       0x21 /home/charles/linux/code/tfa/mp157_alientek/tf-a-stm32mp-2.2.r1-r0/tf-a-stm32mp-2.2.r1/../build/serialboot/bl2/bl2_el3_entrypoint.o
                                         0x86 (size before relaxing)
 .debug_str     0x00000000000094f3       0x21 /home/charles/linux/code/tfa/mp157_alientek/tf-a-stm32mp-2.2.r1-r0/tf-a-stm32mp-2.2.r1/../build/serialboot/bl2/bl2_el3_exceptions.o
                                         0x86 (size before relaxing)
 .debug_str     0x0000000000009514       0x1f /home/charles/linux/code/tfa/mp157_alientek/tf-a-stm32mp-2.2.r1-r0/tf-a-stm32mp-2.2.r1/../build/serialboot/bl2/cpu_helpers.o
                                         0x84 (size before relaxing)
 .debug_str     0x0000000000009533       0x17 /home/charles/linux/code/tfa/mp157_alientek/tf-a-stm32mp-2.2.r1-r0/tf-a-stm32mp-2.2.r1/../build/serialboot/bl2/debug.o
                                         0x7c (size before relaxing)
 .debug_str     0x000000000000954a       0x1c /home/charles/linux/code/tfa/mp157_alientek/tf-a-stm32mp-2.2.r1-r0/tf-a-stm32mp-2.2.r1/../build/serialboot/bl2/cache_helpers.o
                                         0x81 (size before relaxing)
 .debug_str     0x0000000000009566       0x1b /home/charles/linux/code/tfa/mp157_alientek/tf-a-stm32mp-2.2.r1-r0/tf-a-stm32mp-2.2.r1/../build/serialboot/bl2/misc_helpers.o
                                         0x80 (size before relaxing)
 .debug_str     0x0000000000009581       0x2e /home/charles/linux/code/tfa/mp157_alientek/tf-a-stm32mp-2.2.r1-r0/tf-a-stm32mp-2.2.r1/../build/serialboot/bl2/aeabi_uldivmod.o
                                         0x93 (size before relaxing)
 .debug_str     0x00000000000095af       0x28 /home/charles/linux/code/tfa/mp157_alientek/tf-a-stm32mp-2.2.r1-r0/tf-a-stm32mp-2.2.r1/../build/serialboot/bl2/stm32_console.o
                                         0x8d (size before relaxing)
 .debug_str     0x00000000000095d7       0x28 /home/charles/linux/code/tfa/mp157_alientek/tf-a-stm32mp-2.2.r1-r0/tf-a-stm32mp-2.2.r1/../build/serialboot/bl2/enable_mmu.o
                                         0x8d (size before relaxing)
 .debug_str     0x00000000000095ff       0x1d /home/charles/linux/code/tfa/mp157_alientek/tf-a-stm32mp-2.2.r1-r0/tf-a-stm32mp-2.2.r1/../build/serialboot/bl2/cortex_a7.o
                                         0x82 (size before relaxing)
 .debug_str     0x000000000000961c       0x23 /home/charles/linux/code/tfa/mp157_alientek/tf-a-stm32mp-2.2.r1-r0/tf-a-stm32mp-2.2.r1/../build/serialboot/bl2/stm32mp1_helper.o
                                         0x88 (size before relaxing)
 .debug_str     0x000000000000963f      0x157 /home/charles/linux/code/tfa/mp157_alientek/tf-a-stm32mp-2.2.r1-r0/tf-a-stm32mp-2.2.r1/../build/serialboot/lib/libfdt.a(fdt.o)
                                        0x3a0 (size before relaxing)
 .debug_str     0x0000000000009796       0x1b /home/charles/linux/code/tfa/mp157_alientek/tf-a-stm32mp-2.2.r1-r0/tf-a-stm32mp-2.2.r1/../build/serialboot/lib/libfdt.a(fdt_addresses.o)
                                        0x22d (size before relaxing)
 .debug_str     0x00000000000097b1      0x33b /home/charles/linux/code/tfa/mp157_alientek/tf-a-stm32mp-2.2.r1-r0/tf-a-stm32mp-2.2.r1/../build/serialboot/lib/libfdt.a(fdt_ro.o)
                                        0x7c1 (size before relaxing)
 .debug_str     0x0000000000009aec       0x2a /home/charles/linux/code/tfa/mp157_alientek/tf-a-stm32mp-2.2.r1-r0/tf-a-stm32mp-2.2.r1/../build/serialboot/lib/libc.a(assert.o)
                                        0x285 (size before relaxing)
 .debug_str     0x0000000000009b16       0x12 /home/charles/linux/code/tfa/mp157_alientek/tf-a-stm32mp-2.2.r1-r0/tf-a-stm32mp-2.2.r1/../build/serialboot/lib/libc.a(memchr.o)
                                        0x16f (size before relaxing)
 .debug_str     0x0000000000009b28       0x12 /home/charles/linux/code/tfa/mp157_alientek/tf-a-stm32mp-2.2.r1-r0/tf-a-stm32mp-2.2.r1/../build/serialboot/lib/libc.a(memcmp.o)
                                        0x16f (size before relaxing)
 .debug_str     0x0000000000009b3a       0x12 /home/charles/linux/code/tfa/mp157_alientek/tf-a-stm32mp-2.2.r1-r0/tf-a-stm32mp-2.2.r1/../build/serialboot/lib/libc.a(memcpy.o)
                                        0x166 (size before relaxing)
 .debug_str     0x0000000000009b4c       0x13 /home/charles/linux/code/tfa/mp157_alientek/tf-a-stm32mp-2.2.r1-r0/tf-a-stm32mp-2.2.r1/../build/serialboot/lib/libc.a(memmove.o)
                                        0x166 (size before relaxing)
 .debug_str     0x0000000000009b5f       0x12 /home/charles/linux/code/tfa/mp157_alientek/tf-a-stm32mp-2.2.r1-r0/tf-a-stm32mp-2.2.r1/../build/serialboot/lib/libc.a(memset.o)
                                        0x16c (size before relaxing)
 .debug_str     0x0000000000009b71       0x57 /home/charles/linux/code/tfa/mp157_alientek/tf-a-stm32mp-2.2.r1-r0/tf-a-stm32mp-2.2.r1/../build/serialboot/lib/libc.a(printf.o)
                                        0x2ce (size before relaxing)
 .debug_str     0x0000000000009bc8       0x13 /home/charles/linux/code/tfa/mp157_alientek/tf-a-stm32mp-2.2.r1-r0/tf-a-stm32mp-2.2.r1/../build/serialboot/lib/libc.a(putchar.o)
                                        0x1dc (size before relaxing)
 .debug_str     0x0000000000009bdb       0x35 /home/charles/linux/code/tfa/mp157_alientek/tf-a-stm32mp-2.2.r1-r0/tf-a-stm32mp-2.2.r1/../build/serialboot/lib/libc.a(snprintf.o)
                                        0x2c5 (size before relaxing)
 .debug_str     0x0000000000009c10       0x12 /home/charles/linux/code/tfa/mp157_alientek/tf-a-stm32mp-2.2.r1-r0/tf-a-stm32mp-2.2.r1/../build/serialboot/lib/libc.a(strchr.o)
                                        0x15f (size before relaxing)
 .debug_str     0x0000000000009c22       0x12 /home/charles/linux/code/tfa/mp157_alientek/tf-a-stm32mp-2.2.r1-r0/tf-a-stm32mp-2.2.r1/../build/serialboot/lib/libc.a(strcmp.o)
                                        0x156 (size before relaxing)
 .debug_str     0x0000000000009c34       0x12 /home/charles/linux/code/tfa/mp157_alientek/tf-a-stm32mp-2.2.r1-r0/tf-a-stm32mp-2.2.r1/../build/serialboot/lib/libc.a(strlen.o)
                                        0x164 (size before relaxing)
 .debug_str     0x0000000000009c46       0x13 /home/charles/linux/code/tfa/mp157_alientek/tf-a-stm32mp-2.2.r1-r0/tf-a-stm32mp-2.2.r1/../build/serialboot/lib/libc.a(strncmp.o)
                                        0x15f (size before relaxing)
 .debug_str     0x0000000000009c59       0x1a /home/charles/linux/code/tfa/mp157_alientek/tf-a-stm32mp-2.2.r1-r0/tf-a-stm32mp-2.2.r1/../build/serialboot/lib/libc.a(strnlen.o)
                                        0x166 (size before relaxing)
 .debug_str     0x0000000000009c73       0x13 /home/charles/linux/code/tfa/mp157_alientek/tf-a-stm32mp-2.2.r1-r0/tf-a-stm32mp-2.2.r1/../build/serialboot/lib/libc.a(strrchr.o)
                                        0x166 (size before relaxing)

.comment        0x0000000000000000       0x5a
 .comment       0x0000000000000000       0x5a /home/charles/linux/code/tfa/mp157_alientek/tf-a-stm32mp-2.2.r1-r0/tf-a-stm32mp-2.2.r1/../build/serialboot/bl2/build_message.o
                                         0x5b (size before relaxing)
 .comment       0x000000000000005a       0x5b /home/charles/linux/code/tfa/mp157_alientek/tf-a-stm32mp-2.2.r1-r0/tf-a-stm32mp-2.2.r1/../build/serialboot/bl2/io_block.o
 .comment       0x000000000000005a       0x5b /home/charles/linux/code/tfa/mp157_alientek/tf-a-stm32mp-2.2.r1-r0/tf-a-stm32mp-2.2.r1/../build/serialboot/bl2/io_dummy.o
 .comment       0x000000000000005a       0x5b /home/charles/linux/code/tfa/mp157_alientek/tf-a-stm32mp-2.2.r1-r0/tf-a-stm32mp-2.2.r1/../build/serialboot/bl2/io_mtd.o
 .comment       0x000000000000005a       0x5b /home/charles/linux/code/tfa/mp157_alientek/tf-a-stm32mp-2.2.r1-r0/tf-a-stm32mp-2.2.r1/../build/serialboot/bl2/io_storage.o
 .comment       0x000000000000005a       0x5b /home/charles/linux/code/tfa/mp157_alientek/tf-a-stm32mp-2.2.r1-r0/tf-a-stm32mp-2.2.r1/../build/serialboot/bl2/stm32_hash.o
 .comment       0x000000000000005a       0x5b /home/charles/linux/code/tfa/mp157_alientek/tf-a-stm32mp-2.2.r1-r0/tf-a-stm32mp-2.2.r1/../build/serialboot/bl2/io_stm32image.o
 .comment       0x000000000000005a       0x5b /home/charles/linux/code/tfa/mp157_alientek/tf-a-stm32mp-2.2.r1-r0/tf-a-stm32mp-2.2.r1/../build/serialboot/bl2/bl2_io_storage.o
 .comment       0x000000000000005a       0x5b /home/charles/linux/code/tfa/mp157_alientek/tf-a-stm32mp-2.2.r1-r0/tf-a-stm32mp-2.2.r1/../build/serialboot/bl2/bl2_plat_setup.o
 .comment       0x000000000000005a       0x5b /home/charles/linux/code/tfa/mp157_alientek/tf-a-stm32mp-2.2.r1-r0/tf-a-stm32mp-2.2.r1/../build/serialboot/bl2/auth_mod.o
 .comment       0x000000000000005a       0x5b /home/charles/linux/code/tfa/mp157_alientek/tf-a-stm32mp-2.2.r1-r0/tf-a-stm32mp-2.2.r1/../build/serialboot/bl2/crypto_mod.o
 .comment       0x000000000000005a       0x5b /home/charles/linux/code/tfa/mp157_alientek/tf-a-stm32mp-2.2.r1-r0/tf-a-stm32mp-2.2.r1/../build/serialboot/bl2/img_parser_mod.o
 .comment       0x000000000000005a       0x5b /home/charles/linux/code/tfa/mp157_alientek/tf-a-stm32mp-2.2.r1-r0/tf-a-stm32mp-2.2.r1/../build/serialboot/bl2/stm32mp_cot.o
 .comment       0x000000000000005a       0x5b /home/charles/linux/code/tfa/mp157_alientek/tf-a-stm32mp-2.2.r1-r0/tf-a-stm32mp-2.2.r1/../build/serialboot/bl2/stm32mp_crypto_lib.o
 .comment       0x000000000000005a       0x5b /home/charles/linux/code/tfa/mp157_alientek/tf-a-stm32mp-2.2.r1-r0/tf-a-stm32mp-2.2.r1/../build/serialboot/bl2/stm32mp_img_parser_lib.o
 .comment       0x000000000000005a       0x5b /home/charles/linux/code/tfa/mp157_alientek/tf-a-stm32mp-2.2.r1-r0/tf-a-stm32mp-2.2.r1/../build/serialboot/bl2/stm32mp_trusted_boot.o
 .comment       0x000000000000005a       0x5b /home/charles/linux/code/tfa/mp157_alientek/tf-a-stm32mp-2.2.r1-r0/tf-a-stm32mp-2.2.r1/../build/serialboot/bl2/mmc.o
 .comment       0x000000000000005a       0x5b /home/charles/linux/code/tfa/mp157_alientek/tf-a-stm32mp-2.2.r1-r0/tf-a-stm32mp-2.2.r1/../build/serialboot/bl2/gpt.o
 .comment       0x000000000000005a       0x5b /home/charles/linux/code/tfa/mp157_alientek/tf-a-stm32mp-2.2.r1-r0/tf-a-stm32mp-2.2.r1/../build/serialboot/bl2/partition.o
 .comment       0x000000000000005a       0x5b /home/charles/linux/code/tfa/mp157_alientek/tf-a-stm32mp-2.2.r1-r0/tf-a-stm32mp-2.2.r1/../build/serialboot/bl2/io_mmc.o
 .comment       0x000000000000005a       0x5b /home/charles/linux/code/tfa/mp157_alientek/tf-a-stm32mp-2.2.r1-r0/tf-a-stm32mp-2.2.r1/../build/serialboot/bl2/stm32_sdmmc2.o
 .comment       0x000000000000005a       0x5b /home/charles/linux/code/tfa/mp157_alientek/tf-a-stm32mp-2.2.r1-r0/tf-a-stm32mp-2.2.r1/../build/serialboot/bl2/raw_nand.o
 .comment       0x000000000000005a       0x5b /home/charles/linux/code/tfa/mp157_alientek/tf-a-stm32mp-2.2.r1-r0/tf-a-stm32mp-2.2.r1/../build/serialboot/bl2/stm32_fmc2_nand.o
 .comment       0x000000000000005a       0x5b /home/charles/linux/code/tfa/mp157_alientek/tf-a-stm32mp-2.2.r1-r0/tf-a-stm32mp-2.2.r1/../build/serialboot/bl2/spi_nand.o
 .comment       0x000000000000005a       0x5b /home/charles/linux/code/tfa/mp157_alientek/tf-a-stm32mp-2.2.r1-r0/tf-a-stm32mp-2.2.r1/../build/serialboot/bl2/spi_nor.o
 .comment       0x000000000000005a       0x5b /home/charles/linux/code/tfa/mp157_alientek/tf-a-stm32mp-2.2.r1-r0/tf-a-stm32mp-2.2.r1/../build/serialboot/bl2/spi_mem.o
 .comment       0x000000000000005a       0x5b /home/charles/linux/code/tfa/mp157_alientek/tf-a-stm32mp-2.2.r1-r0/tf-a-stm32mp-2.2.r1/../build/serialboot/bl2/stm32_qspi.o
 .comment       0x000000000000005a       0x5b /home/charles/linux/code/tfa/mp157_alientek/tf-a-stm32mp-2.2.r1-r0/tf-a-stm32mp-2.2.r1/../build/serialboot/bl2/core.o
 .comment       0x000000000000005a       0x5b /home/charles/linux/code/tfa/mp157_alientek/tf-a-stm32mp-2.2.r1-r0/tf-a-stm32mp-2.2.r1/../build/serialboot/bl2/stm32mp1_boot_device.o
 .comment       0x000000000000005a       0x5b /home/charles/linux/code/tfa/mp157_alientek/tf-a-stm32mp-2.2.r1-r0/tf-a-stm32mp-2.2.r1/../build/serialboot/bl2/stm32mp1_ddr.o
 .comment       0x000000000000005a       0x5b /home/charles/linux/code/tfa/mp157_alientek/tf-a-stm32mp-2.2.r1-r0/tf-a-stm32mp-2.2.r1/../build/serialboot/bl2/stm32mp1_ram.o
 .comment       0x000000000000005a       0x5b /home/charles/linux/code/tfa/mp157_alientek/tf-a-stm32mp-2.2.r1-r0/tf-a-stm32mp-2.2.r1/../build/serialboot/bl2/desc_image_load.o
 .comment       0x000000000000005a       0x5b /home/charles/linux/code/tfa/mp157_alientek/tf-a-stm32mp-2.2.r1-r0/tf-a-stm32mp-2.2.r1/../build/serialboot/bl2/plat_bl2_mem_params_desc.o
 .comment       0x000000000000005a       0x5b /home/charles/linux/code/tfa/mp157_alientek/tf-a-stm32mp-2.2.r1-r0/tf-a-stm32mp-2.2.r1/../build/serialboot/bl2/plat_image_load.o
 .comment       0x000000000000005a       0x5b /home/charles/linux/code/tfa/mp157_alientek/tf-a-stm32mp-2.2.r1-r0/tf-a-stm32mp-2.2.r1/../build/serialboot/bl2/bl2_image_load_v2.o
 .comment       0x000000000000005a       0x5b /home/charles/linux/code/tfa/mp157_alientek/tf-a-stm32mp-2.2.r1-r0/tf-a-stm32mp-2.2.r1/../build/serialboot/bl2/bl2_main.o
 .comment       0x000000000000005a       0x5b /home/charles/linux/code/tfa/mp157_alientek/tf-a-stm32mp-2.2.r1-r0/tf-a-stm32mp-2.2.r1/../build/serialboot/bl2/bl2_arch_setup.o
 .comment       0x000000000000005a       0x5b /home/charles/linux/code/tfa/mp157_alientek/tf-a-stm32mp-2.2.r1-r0/tf-a-stm32mp-2.2.r1/../build/serialboot/bl2/bl_common.o
 .comment       0x000000000000005a       0x5b /home/charles/linux/code/tfa/mp157_alientek/tf-a-stm32mp-2.2.r1-r0/tf-a-stm32mp-2.2.r1/../build/serialboot/bl2/tf_log.o
 .comment       0x000000000000005a       0x5b /home/charles/linux/code/tfa/mp157_alientek/tf-a-stm32mp-2.2.r1-r0/tf-a-stm32mp-2.2.r1/../build/serialboot/bl2/multi_console.o
 .comment       0x000000000000005a       0x5b /home/charles/linux/code/tfa/mp157_alientek/tf-a-stm32mp-2.2.r1-r0/tf-a-stm32mp-2.2.r1/../build/serialboot/bl2/plat_bl_common.o
 .comment       0x000000000000005a       0x5b /home/charles/linux/code/tfa/mp157_alientek/tf-a-stm32mp-2.2.r1-r0/tf-a-stm32mp-2.2.r1/../build/serialboot/bl2/plat_log_common.o
 .comment       0x000000000000005a       0x5b /home/charles/linux/code/tfa/mp157_alientek/tf-a-stm32mp-2.2.r1-r0/tf-a-stm32mp-2.2.r1/../build/serialboot/bl2/popcountsi2.o
 .comment       0x000000000000005a       0x5b /home/charles/linux/code/tfa/mp157_alientek/tf-a-stm32mp-2.2.r1-r0/tf-a-stm32mp-2.2.r1/../build/serialboot/bl2/ctzdi2.o
 .comment       0x000000000000005a       0x5b /home/charles/linux/code/tfa/mp157_alientek/tf-a-stm32mp-2.2.r1-r0/tf-a-stm32mp-2.2.r1/../build/serialboot/bl2/udivmoddi4.o
 .comment       0x000000000000005a       0x5b /home/charles/linux/code/tfa/mp157_alientek/tf-a-stm32mp-2.2.r1-r0/tf-a-stm32mp-2.2.r1/../build/serialboot/bl2/stm32mp_common.o
 .comment       0x000000000000005a       0x5b /home/charles/linux/code/tfa/mp157_alientek/tf-a-stm32mp-2.2.r1-r0/tf-a-stm32mp-2.2.r1/../build/serialboot/bl2/stm32mp1_private.o
 .comment       0x000000000000005a       0x5b /home/charles/linux/code/tfa/mp157_alientek/tf-a-stm32mp-2.2.r1-r0/tf-a-stm32mp-2.2.r1/../build/serialboot/bl2/xlat_tables_arch.o
 .comment       0x000000000000005a       0x5b /home/charles/linux/code/tfa/mp157_alientek/tf-a-stm32mp-2.2.r1-r0/tf-a-stm32mp-2.2.r1/../build/serialboot/bl2/xlat_tables_context.o
 .comment       0x000000000000005a       0x5b /home/charles/linux/code/tfa/mp157_alientek/tf-a-stm32mp-2.2.r1-r0/tf-a-stm32mp-2.2.r1/../build/serialboot/bl2/xlat_tables_core.o
 .comment       0x000000000000005a       0x5b /home/charles/linux/code/tfa/mp157_alientek/tf-a-stm32mp-2.2.r1-r0/tf-a-stm32mp-2.2.r1/../build/serialboot/bl2/xlat_tables_utils.o
 .comment       0x000000000000005a       0x5b /home/charles/linux/code/tfa/mp157_alientek/tf-a-stm32mp-2.2.r1-r0/tf-a-stm32mp-2.2.r1/../build/serialboot/bl2/tzc400.o
 .comment       0x000000000000005a       0x5b /home/charles/linux/code/tfa/mp157_alientek/tf-a-stm32mp-2.2.r1-r0/tf-a-stm32mp-2.2.r1/../build/serialboot/bl2/delay_timer.o
 .comment       0x000000000000005a       0x5b /home/charles/linux/code/tfa/mp157_alientek/tf-a-stm32mp-2.2.r1-r0/tf-a-stm32mp-2.2.r1/../build/serialboot/bl2/generic_delay_timer.o
 .comment       0x000000000000005a       0x5b /home/charles/linux/code/tfa/mp157_alientek/tf-a-stm32mp-2.2.r1-r0/tf-a-stm32mp-2.2.r1/../build/serialboot/bl2/bsec2.o
 .comment       0x000000000000005a       0x5b /home/charles/linux/code/tfa/mp157_alientek/tf-a-stm32mp-2.2.r1-r0/tf-a-stm32mp-2.2.r1/../build/serialboot/bl2/stm32mp_clkfunc.o
 .comment       0x000000000000005a       0x5b /home/charles/linux/code/tfa/mp157_alientek/tf-a-stm32mp-2.2.r1-r0/tf-a-stm32mp-2.2.r1/../build/serialboot/bl2/stm32mp1_clk.o
 .comment       0x000000000000005a       0x5b /home/charles/linux/code/tfa/mp157_alientek/tf-a-stm32mp-2.2.r1-r0/tf-a-stm32mp-2.2.r1/../build/serialboot/bl2/stm32mp1_ddr_helpers.o
 .comment       0x000000000000005a       0x5b /home/charles/linux/code/tfa/mp157_alientek/tf-a-stm32mp-2.2.r1-r0/tf-a-stm32mp-2.2.r1/../build/serialboot/bl2/stm32_gpio.o
 .comment       0x000000000000005a       0x5b /home/charles/linux/code/tfa/mp157_alientek/tf-a-stm32mp-2.2.r1-r0/tf-a-stm32mp-2.2.r1/../build/serialboot/bl2/stm32_i2c.o
 .comment       0x000000000000005a       0x5b /home/charles/linux/code/tfa/mp157_alientek/tf-a-stm32mp-2.2.r1-r0/tf-a-stm32mp-2.2.r1/../build/serialboot/bl2/stm32_iwdg.o
 .comment       0x000000000000005a       0x5b /home/charles/linux/code/tfa/mp157_alientek/tf-a-stm32mp-2.2.r1-r0/tf-a-stm32mp-2.2.r1/../build/serialboot/bl2/stm32mp_pmic.o
 .comment       0x000000000000005a       0x5b /home/charles/linux/code/tfa/mp157_alientek/tf-a-stm32mp-2.2.r1-r0/tf-a-stm32mp-2.2.r1/../build/serialboot/bl2/stpmic1.o
 .comment       0x000000000000005a       0x5b /home/charles/linux/code/tfa/mp157_alientek/tf-a-stm32mp-2.2.r1-r0/tf-a-stm32mp-2.2.r1/../build/serialboot/bl2/stm32mp_dummy_regulator.o
 .comment       0x000000000000005a       0x5b /home/charles/linux/code/tfa/mp157_alientek/tf-a-stm32mp-2.2.r1-r0/tf-a-stm32mp-2.2.r1/../build/serialboot/bl2/stm32mp_regulator.o
 .comment       0x000000000000005a       0x5b /home/charles/linux/code/tfa/mp157_alientek/tf-a-stm32mp-2.2.r1-r0/tf-a-stm32mp-2.2.r1/../build/serialboot/bl2/stm32mp1_reset.o
 .comment       0x000000000000005a       0x5b /home/charles/linux/code/tfa/mp157_alientek/tf-a-stm32mp-2.2.r1-r0/tf-a-stm32mp-2.2.r1/../build/serialboot/bl2/stm32mp_dt.o
 .comment       0x000000000000005a       0x5b /home/charles/linux/code/tfa/mp157_alientek/tf-a-stm32mp-2.2.r1-r0/tf-a-stm32mp-2.2.r1/../build/serialboot/bl2/stm32mp_shres_helpers.o
 .comment       0x000000000000005a       0x5b /home/charles/linux/code/tfa/mp157_alientek/tf-a-stm32mp-2.2.r1-r0/tf-a-stm32mp-2.2.r1/../build/serialboot/bl2/stm32mp1_context.o
 .comment       0x000000000000005a       0x5b /home/charles/linux/code/tfa/mp157_alientek/tf-a-stm32mp-2.2.r1-r0/tf-a-stm32mp-2.2.r1/../build/serialboot/bl2/stm32mp1_dbgmcu.o
 .comment       0x000000000000005a       0x5b /home/charles/linux/code/tfa/mp157_alientek/tf-a-stm32mp-2.2.r1-r0/tf-a-stm32mp-2.2.r1/../build/serialboot/bl2/stm32mp1_security.o
 .comment       0x000000000000005a       0x5b /home/charles/linux/code/tfa/mp157_alientek/tf-a-stm32mp-2.2.r1-r0/tf-a-stm32mp-2.2.r1/../build/serialboot/bl2/stm32mp1_syscfg.o
 .comment       0x000000000000005a       0x5b /home/charles/linux/code/tfa/mp157_alientek/tf-a-stm32mp-2.2.r1-r0/tf-a-stm32mp-2.2.r1/../build/serialboot/lib/libfdt.a(fdt.o)
 .comment       0x000000000000005a       0x5b /home/charles/linux/code/tfa/mp157_alientek/tf-a-stm32mp-2.2.r1-r0/tf-a-stm32mp-2.2.r1/../build/serialboot/lib/libfdt.a(fdt_addresses.o)
 .comment       0x000000000000005a       0x5b /home/charles/linux/code/tfa/mp157_alientek/tf-a-stm32mp-2.2.r1-r0/tf-a-stm32mp-2.2.r1/../build/serialboot/lib/libfdt.a(fdt_ro.o)
 .comment       0x000000000000005a       0x5b /home/charles/linux/code/tfa/mp157_alientek/tf-a-stm32mp-2.2.r1-r0/tf-a-stm32mp-2.2.r1/../build/serialboot/lib/libc.a(assert.o)
 .comment       0x000000000000005a       0x5b /home/charles/linux/code/tfa/mp157_alientek/tf-a-stm32mp-2.2.r1-r0/tf-a-stm32mp-2.2.r1/../build/serialboot/lib/libc.a(memchr.o)
 .comment       0x000000000000005a       0x5b /home/charles/linux/code/tfa/mp157_alientek/tf-a-stm32mp-2.2.r1-r0/tf-a-stm32mp-2.2.r1/../build/serialboot/lib/libc.a(memcmp.o)
 .comment       0x000000000000005a       0x5b /home/charles/linux/code/tfa/mp157_alientek/tf-a-stm32mp-2.2.r1-r0/tf-a-stm32mp-2.2.r1/../build/serialboot/lib/libc.a(memcpy.o)
 .comment       0x000000000000005a       0x5b /home/charles/linux/code/tfa/mp157_alientek/tf-a-stm32mp-2.2.r1-r0/tf-a-stm32mp-2.2.r1/../build/serialboot/lib/libc.a(memmove.o)
 .comment       0x000000000000005a       0x5b /home/charles/linux/code/tfa/mp157_alientek/tf-a-stm32mp-2.2.r1-r0/tf-a-stm32mp-2.2.r1/../build/serialboot/lib/libc.a(memset.o)
 .comment       0x000000000000005a       0x5b /home/charles/linux/code/tfa/mp157_alientek/tf-a-stm32mp-2.2.r1-r0/tf-a-stm32mp-2.2.r1/../build/serialboot/lib/libc.a(printf.o)
 .comment       0x000000000000005a       0x5b /home/charles/linux/code/tfa/mp157_alientek/tf-a-stm32mp-2.2.r1-r0/tf-a-stm32mp-2.2.r1/../build/serialboot/lib/libc.a(putchar.o)
 .comment       0x000000000000005a       0x5b /home/charles/linux/code/tfa/mp157_alientek/tf-a-stm32mp-2.2.r1-r0/tf-a-stm32mp-2.2.r1/../build/serialboot/lib/libc.a(snprintf.o)
 .comment       0x000000000000005a       0x5b /home/charles/linux/code/tfa/mp157_alientek/tf-a-stm32mp-2.2.r1-r0/tf-a-stm32mp-2.2.r1/../build/serialboot/lib/libc.a(strchr.o)
 .comment       0x000000000000005a       0x5b /home/charles/linux/code/tfa/mp157_alientek/tf-a-stm32mp-2.2.r1-r0/tf-a-stm32mp-2.2.r1/../build/serialboot/lib/libc.a(strcmp.o)
 .comment       0x000000000000005a       0x5b /home/charles/linux/code/tfa/mp157_alientek/tf-a-stm32mp-2.2.r1-r0/tf-a-stm32mp-2.2.r1/../build/serialboot/lib/libc.a(strlen.o)
 .comment       0x000000000000005a       0x5b /home/charles/linux/code/tfa/mp157_alientek/tf-a-stm32mp-2.2.r1-r0/tf-a-stm32mp-2.2.r1/../build/serialboot/lib/libc.a(strncmp.o)
 .comment       0x000000000000005a       0x5b /home/charles/linux/code/tfa/mp157_alientek/tf-a-stm32mp-2.2.r1-r0/tf-a-stm32mp-2.2.r1/../build/serialboot/lib/libc.a(strnlen.o)
 .comment       0x000000000000005a       0x5b /home/charles/linux/code/tfa/mp157_alientek/tf-a-stm32mp-2.2.r1-r0/tf-a-stm32mp-2.2.r1/../build/serialboot/lib/libc.a(strrchr.o)

.note.GNU-stack
                0x0000000000000000        0x0
 .note.GNU-stack
                0x0000000000000000        0x0 /home/charles/linux/code/tfa/mp157_alientek/tf-a-stm32mp-2.2.r1-r0/tf-a-stm32mp-2.2.r1/../build/serialboot/bl2/build_message.o
 .note.GNU-stack
                0x0000000000000000        0x0 /home/charles/linux/code/tfa/mp157_alientek/tf-a-stm32mp-2.2.r1-r0/tf-a-stm32mp-2.2.r1/../build/serialboot/bl2/io_block.o
 .note.GNU-stack
                0x0000000000000000        0x0 /home/charles/linux/code/tfa/mp157_alientek/tf-a-stm32mp-2.2.r1-r0/tf-a-stm32mp-2.2.r1/../build/serialboot/bl2/io_dummy.o
 .note.GNU-stack
                0x0000000000000000        0x0 /home/charles/linux/code/tfa/mp157_alientek/tf-a-stm32mp-2.2.r1-r0/tf-a-stm32mp-2.2.r1/../build/serialboot/bl2/io_mtd.o
 .note.GNU-stack
                0x0000000000000000        0x0 /home/charles/linux/code/tfa/mp157_alientek/tf-a-stm32mp-2.2.r1-r0/tf-a-stm32mp-2.2.r1/../build/serialboot/bl2/io_storage.o
 .note.GNU-stack
                0x0000000000000000        0x0 /home/charles/linux/code/tfa/mp157_alientek/tf-a-stm32mp-2.2.r1-r0/tf-a-stm32mp-2.2.r1/../build/serialboot/bl2/stm32_hash.o
 .note.GNU-stack
                0x0000000000000000        0x0 /home/charles/linux/code/tfa/mp157_alientek/tf-a-stm32mp-2.2.r1-r0/tf-a-stm32mp-2.2.r1/../build/serialboot/bl2/io_stm32image.o
 .note.GNU-stack
                0x0000000000000000        0x0 /home/charles/linux/code/tfa/mp157_alientek/tf-a-stm32mp-2.2.r1-r0/tf-a-stm32mp-2.2.r1/../build/serialboot/bl2/bl2_io_storage.o
 .note.GNU-stack
                0x0000000000000000        0x0 /home/charles/linux/code/tfa/mp157_alientek/tf-a-stm32mp-2.2.r1-r0/tf-a-stm32mp-2.2.r1/../build/serialboot/bl2/bl2_plat_setup.o
 .note.GNU-stack
                0x0000000000000000        0x0 /home/charles/linux/code/tfa/mp157_alientek/tf-a-stm32mp-2.2.r1-r0/tf-a-stm32mp-2.2.r1/../build/serialboot/bl2/auth_mod.o
 .note.GNU-stack
                0x0000000000000000        0x0 /home/charles/linux/code/tfa/mp157_alientek/tf-a-stm32mp-2.2.r1-r0/tf-a-stm32mp-2.2.r1/../build/serialboot/bl2/crypto_mod.o
 .note.GNU-stack
                0x0000000000000000        0x0 /home/charles/linux/code/tfa/mp157_alientek/tf-a-stm32mp-2.2.r1-r0/tf-a-stm32mp-2.2.r1/../build/serialboot/bl2/img_parser_mod.o
 .note.GNU-stack
                0x0000000000000000        0x0 /home/charles/linux/code/tfa/mp157_alientek/tf-a-stm32mp-2.2.r1-r0/tf-a-stm32mp-2.2.r1/../build/serialboot/bl2/stm32mp_cot.o
 .note.GNU-stack
                0x0000000000000000        0x0 /home/charles/linux/code/tfa/mp157_alientek/tf-a-stm32mp-2.2.r1-r0/tf-a-stm32mp-2.2.r1/../build/serialboot/bl2/stm32mp_crypto_lib.o
 .note.GNU-stack
                0x0000000000000000        0x0 /home/charles/linux/code/tfa/mp157_alientek/tf-a-stm32mp-2.2.r1-r0/tf-a-stm32mp-2.2.r1/../build/serialboot/bl2/stm32mp_img_parser_lib.o
 .note.GNU-stack
                0x0000000000000000        0x0 /home/charles/linux/code/tfa/mp157_alientek/tf-a-stm32mp-2.2.r1-r0/tf-a-stm32mp-2.2.r1/../build/serialboot/bl2/stm32mp_trusted_boot.o
 .note.GNU-stack
                0x0000000000000000        0x0 /home/charles/linux/code/tfa/mp157_alientek/tf-a-stm32mp-2.2.r1-r0/tf-a-stm32mp-2.2.r1/../build/serialboot/bl2/mmc.o
 .note.GNU-stack
                0x0000000000000000        0x0 /home/charles/linux/code/tfa/mp157_alientek/tf-a-stm32mp-2.2.r1-r0/tf-a-stm32mp-2.2.r1/../build/serialboot/bl2/gpt.o
 .note.GNU-stack
                0x0000000000000000        0x0 /home/charles/linux/code/tfa/mp157_alientek/tf-a-stm32mp-2.2.r1-r0/tf-a-stm32mp-2.2.r1/../build/serialboot/bl2/partition.o
 .note.GNU-stack
                0x0000000000000000        0x0 /home/charles/linux/code/tfa/mp157_alientek/tf-a-stm32mp-2.2.r1-r0/tf-a-stm32mp-2.2.r1/../build/serialboot/bl2/io_mmc.o
 .note.GNU-stack
                0x0000000000000000        0x0 /home/charles/linux/code/tfa/mp157_alientek/tf-a-stm32mp-2.2.r1-r0/tf-a-stm32mp-2.2.r1/../build/serialboot/bl2/stm32_sdmmc2.o
 .note.GNU-stack
                0x0000000000000000        0x0 /home/charles/linux/code/tfa/mp157_alientek/tf-a-stm32mp-2.2.r1-r0/tf-a-stm32mp-2.2.r1/../build/serialboot/bl2/raw_nand.o
 .note.GNU-stack
                0x0000000000000000        0x0 /home/charles/linux/code/tfa/mp157_alientek/tf-a-stm32mp-2.2.r1-r0/tf-a-stm32mp-2.2.r1/../build/serialboot/bl2/stm32_fmc2_nand.o
 .note.GNU-stack
                0x0000000000000000        0x0 /home/charles/linux/code/tfa/mp157_alientek/tf-a-stm32mp-2.2.r1-r0/tf-a-stm32mp-2.2.r1/../build/serialboot/bl2/spi_nand.o
 .note.GNU-stack
                0x0000000000000000        0x0 /home/charles/linux/code/tfa/mp157_alientek/tf-a-stm32mp-2.2.r1-r0/tf-a-stm32mp-2.2.r1/../build/serialboot/bl2/spi_nor.o
 .note.GNU-stack
                0x0000000000000000        0x0 /home/charles/linux/code/tfa/mp157_alientek/tf-a-stm32mp-2.2.r1-r0/tf-a-stm32mp-2.2.r1/../build/serialboot/bl2/spi_mem.o
 .note.GNU-stack
                0x0000000000000000        0x0 /home/charles/linux/code/tfa/mp157_alientek/tf-a-stm32mp-2.2.r1-r0/tf-a-stm32mp-2.2.r1/../build/serialboot/bl2/stm32_qspi.o
 .note.GNU-stack
                0x0000000000000000        0x0 /home/charles/linux/code/tfa/mp157_alientek/tf-a-stm32mp-2.2.r1-r0/tf-a-stm32mp-2.2.r1/../build/serialboot/bl2/core.o
 .note.GNU-stack
                0x0000000000000000        0x0 /home/charles/linux/code/tfa/mp157_alientek/tf-a-stm32mp-2.2.r1-r0/tf-a-stm32mp-2.2.r1/../build/serialboot/bl2/stm32mp1_boot_device.o
 .note.GNU-stack
                0x0000000000000000        0x0 /home/charles/linux/code/tfa/mp157_alientek/tf-a-stm32mp-2.2.r1-r0/tf-a-stm32mp-2.2.r1/../build/serialboot/bl2/stm32mp1_ddr.o
 .note.GNU-stack
                0x0000000000000000        0x0 /home/charles/linux/code/tfa/mp157_alientek/tf-a-stm32mp-2.2.r1-r0/tf-a-stm32mp-2.2.r1/../build/serialboot/bl2/stm32mp1_ram.o
 .note.GNU-stack
                0x0000000000000000        0x0 /home/charles/linux/code/tfa/mp157_alientek/tf-a-stm32mp-2.2.r1-r0/tf-a-stm32mp-2.2.r1/../build/serialboot/bl2/desc_image_load.o
 .note.GNU-stack
                0x0000000000000000        0x0 /home/charles/linux/code/tfa/mp157_alientek/tf-a-stm32mp-2.2.r1-r0/tf-a-stm32mp-2.2.r1/../build/serialboot/bl2/plat_bl2_mem_params_desc.o
 .note.GNU-stack
                0x0000000000000000        0x0 /home/charles/linux/code/tfa/mp157_alientek/tf-a-stm32mp-2.2.r1-r0/tf-a-stm32mp-2.2.r1/../build/serialboot/bl2/plat_image_load.o
 .note.GNU-stack
                0x0000000000000000        0x0 /home/charles/linux/code/tfa/mp157_alientek/tf-a-stm32mp-2.2.r1-r0/tf-a-stm32mp-2.2.r1/../build/serialboot/bl2/bl2_image_load_v2.o
 .note.GNU-stack
                0x0000000000000000        0x0 /home/charles/linux/code/tfa/mp157_alientek/tf-a-stm32mp-2.2.r1-r0/tf-a-stm32mp-2.2.r1/../build/serialboot/bl2/bl2_main.o
 .note.GNU-stack
                0x0000000000000000        0x0 /home/charles/linux/code/tfa/mp157_alientek/tf-a-stm32mp-2.2.r1-r0/tf-a-stm32mp-2.2.r1/../build/serialboot/bl2/bl2_arch_setup.o
 .note.GNU-stack
                0x0000000000000000        0x0 /home/charles/linux/code/tfa/mp157_alientek/tf-a-stm32mp-2.2.r1-r0/tf-a-stm32mp-2.2.r1/../build/serialboot/bl2/bl_common.o
 .note.GNU-stack
                0x0000000000000000        0x0 /home/charles/linux/code/tfa/mp157_alientek/tf-a-stm32mp-2.2.r1-r0/tf-a-stm32mp-2.2.r1/../build/serialboot/bl2/tf_log.o
 .note.GNU-stack
                0x0000000000000000        0x0 /home/charles/linux/code/tfa/mp157_alientek/tf-a-stm32mp-2.2.r1-r0/tf-a-stm32mp-2.2.r1/../build/serialboot/bl2/multi_console.o
 .note.GNU-stack
                0x0000000000000000        0x0 /home/charles/linux/code/tfa/mp157_alientek/tf-a-stm32mp-2.2.r1-r0/tf-a-stm32mp-2.2.r1/../build/serialboot/bl2/plat_bl_common.o
 .note.GNU-stack
                0x0000000000000000        0x0 /home/charles/linux/code/tfa/mp157_alientek/tf-a-stm32mp-2.2.r1-r0/tf-a-stm32mp-2.2.r1/../build/serialboot/bl2/plat_log_common.o
 .note.GNU-stack
                0x0000000000000000        0x0 /home/charles/linux/code/tfa/mp157_alientek/tf-a-stm32mp-2.2.r1-r0/tf-a-stm32mp-2.2.r1/../build/serialboot/bl2/popcountsi2.o
 .note.GNU-stack
                0x0000000000000000        0x0 /home/charles/linux/code/tfa/mp157_alientek/tf-a-stm32mp-2.2.r1-r0/tf-a-stm32mp-2.2.r1/../build/serialboot/bl2/ctzdi2.o
 .note.GNU-stack
                0x0000000000000000        0x0 /home/charles/linux/code/tfa/mp157_alientek/tf-a-stm32mp-2.2.r1-r0/tf-a-stm32mp-2.2.r1/../build/serialboot/bl2/udivmoddi4.o
 .note.GNU-stack
                0x0000000000000000        0x0 /home/charles/linux/code/tfa/mp157_alientek/tf-a-stm32mp-2.2.r1-r0/tf-a-stm32mp-2.2.r1/../build/serialboot/bl2/stm32mp_common.o
 .note.GNU-stack
                0x0000000000000000        0x0 /home/charles/linux/code/tfa/mp157_alientek/tf-a-stm32mp-2.2.r1-r0/tf-a-stm32mp-2.2.r1/../build/serialboot/bl2/stm32mp1_private.o
 .note.GNU-stack
                0x0000000000000000        0x0 /home/charles/linux/code/tfa/mp157_alientek/tf-a-stm32mp-2.2.r1-r0/tf-a-stm32mp-2.2.r1/../build/serialboot/bl2/xlat_tables_arch.o
 .note.GNU-stack
                0x0000000000000000        0x0 /home/charles/linux/code/tfa/mp157_alientek/tf-a-stm32mp-2.2.r1-r0/tf-a-stm32mp-2.2.r1/../build/serialboot/bl2/xlat_tables_context.o
 .note.GNU-stack
                0x0000000000000000        0x0 /home/charles/linux/code/tfa/mp157_alientek/tf-a-stm32mp-2.2.r1-r0/tf-a-stm32mp-2.2.r1/../build/serialboot/bl2/xlat_tables_core.o
 .note.GNU-stack
                0x0000000000000000        0x0 /home/charles/linux/code/tfa/mp157_alientek/tf-a-stm32mp-2.2.r1-r0/tf-a-stm32mp-2.2.r1/../build/serialboot/bl2/xlat_tables_utils.o
 .note.GNU-stack
                0x0000000000000000        0x0 /home/charles/linux/code/tfa/mp157_alientek/tf-a-stm32mp-2.2.r1-r0/tf-a-stm32mp-2.2.r1/../build/serialboot/bl2/tzc400.o
 .note.GNU-stack
                0x0000000000000000        0x0 /home/charles/linux/code/tfa/mp157_alientek/tf-a-stm32mp-2.2.r1-r0/tf-a-stm32mp-2.2.r1/../build/serialboot/bl2/delay_timer.o
 .note.GNU-stack
                0x0000000000000000        0x0 /home/charles/linux/code/tfa/mp157_alientek/tf-a-stm32mp-2.2.r1-r0/tf-a-stm32mp-2.2.r1/../build/serialboot/bl2/generic_delay_timer.o
 .note.GNU-stack
                0x0000000000000000        0x0 /home/charles/linux/code/tfa/mp157_alientek/tf-a-stm32mp-2.2.r1-r0/tf-a-stm32mp-2.2.r1/../build/serialboot/bl2/bsec2.o
 .note.GNU-stack
                0x0000000000000000        0x0 /home/charles/linux/code/tfa/mp157_alientek/tf-a-stm32mp-2.2.r1-r0/tf-a-stm32mp-2.2.r1/../build/serialboot/bl2/stm32mp_clkfunc.o
 .note.GNU-stack
                0x0000000000000000        0x0 /home/charles/linux/code/tfa/mp157_alientek/tf-a-stm32mp-2.2.r1-r0/tf-a-stm32mp-2.2.r1/../build/serialboot/bl2/stm32mp1_clk.o
 .note.GNU-stack
                0x0000000000000000        0x0 /home/charles/linux/code/tfa/mp157_alientek/tf-a-stm32mp-2.2.r1-r0/tf-a-stm32mp-2.2.r1/../build/serialboot/bl2/stm32mp1_ddr_helpers.o
 .note.GNU-stack
                0x0000000000000000        0x0 /home/charles/linux/code/tfa/mp157_alientek/tf-a-stm32mp-2.2.r1-r0/tf-a-stm32mp-2.2.r1/../build/serialboot/bl2/stm32_gpio.o
 .note.GNU-stack
                0x0000000000000000        0x0 /home/charles/linux/code/tfa/mp157_alientek/tf-a-stm32mp-2.2.r1-r0/tf-a-stm32mp-2.2.r1/../build/serialboot/bl2/stm32_i2c.o
 .note.GNU-stack
                0x0000000000000000        0x0 /home/charles/linux/code/tfa/mp157_alientek/tf-a-stm32mp-2.2.r1-r0/tf-a-stm32mp-2.2.r1/../build/serialboot/bl2/stm32_iwdg.o
 .note.GNU-stack
                0x0000000000000000        0x0 /home/charles/linux/code/tfa/mp157_alientek/tf-a-stm32mp-2.2.r1-r0/tf-a-stm32mp-2.2.r1/../build/serialboot/bl2/stm32mp_pmic.o
 .note.GNU-stack
                0x0000000000000000        0x0 /home/charles/linux/code/tfa/mp157_alientek/tf-a-stm32mp-2.2.r1-r0/tf-a-stm32mp-2.2.r1/../build/serialboot/bl2/stpmic1.o
 .note.GNU-stack
                0x0000000000000000        0x0 /home/charles/linux/code/tfa/mp157_alientek/tf-a-stm32mp-2.2.r1-r0/tf-a-stm32mp-2.2.r1/../build/serialboot/bl2/stm32mp_dummy_regulator.o
 .note.GNU-stack
                0x0000000000000000        0x0 /home/charles/linux/code/tfa/mp157_alientek/tf-a-stm32mp-2.2.r1-r0/tf-a-stm32mp-2.2.r1/../build/serialboot/bl2/stm32mp_regulator.o
 .note.GNU-stack
                0x0000000000000000        0x0 /home/charles/linux/code/tfa/mp157_alientek/tf-a-stm32mp-2.2.r1-r0/tf-a-stm32mp-2.2.r1/../build/serialboot/bl2/stm32mp1_reset.o
 .note.GNU-stack
                0x0000000000000000        0x0 /home/charles/linux/code/tfa/mp157_alientek/tf-a-stm32mp-2.2.r1-r0/tf-a-stm32mp-2.2.r1/../build/serialboot/bl2/stm32mp_dt.o
 .note.GNU-stack
                0x0000000000000000        0x0 /home/charles/linux/code/tfa/mp157_alientek/tf-a-stm32mp-2.2.r1-r0/tf-a-stm32mp-2.2.r1/../build/serialboot/bl2/stm32mp_shres_helpers.o
 .note.GNU-stack
                0x0000000000000000        0x0 /home/charles/linux/code/tfa/mp157_alientek/tf-a-stm32mp-2.2.r1-r0/tf-a-stm32mp-2.2.r1/../build/serialboot/bl2/stm32mp1_context.o
 .note.GNU-stack
                0x0000000000000000        0x0 /home/charles/linux/code/tfa/mp157_alientek/tf-a-stm32mp-2.2.r1-r0/tf-a-stm32mp-2.2.r1/../build/serialboot/bl2/stm32mp1_dbgmcu.o
 .note.GNU-stack
                0x0000000000000000        0x0 /home/charles/linux/code/tfa/mp157_alientek/tf-a-stm32mp-2.2.r1-r0/tf-a-stm32mp-2.2.r1/../build/serialboot/bl2/stm32mp1_security.o
 .note.GNU-stack
                0x0000000000000000        0x0 /home/charles/linux/code/tfa/mp157_alientek/tf-a-stm32mp-2.2.r1-r0/tf-a-stm32mp-2.2.r1/../build/serialboot/bl2/stm32mp1_syscfg.o
 .note.GNU-stack
                0x0000000000000000        0x0 /home/charles/linux/code/tfa/mp157_alientek/tf-a-stm32mp-2.2.r1-r0/tf-a-stm32mp-2.2.r1/../build/serialboot/lib/libfdt.a(fdt.o)
 .note.GNU-stack
                0x0000000000000000        0x0 /home/charles/linux/code/tfa/mp157_alientek/tf-a-stm32mp-2.2.r1-r0/tf-a-stm32mp-2.2.r1/../build/serialboot/lib/libfdt.a(fdt_addresses.o)
 .note.GNU-stack
                0x0000000000000000        0x0 /home/charles/linux/code/tfa/mp157_alientek/tf-a-stm32mp-2.2.r1-r0/tf-a-stm32mp-2.2.r1/../build/serialboot/lib/libfdt.a(fdt_ro.o)
 .note.GNU-stack
                0x0000000000000000        0x0 /home/charles/linux/code/tfa/mp157_alientek/tf-a-stm32mp-2.2.r1-r0/tf-a-stm32mp-2.2.r1/../build/serialboot/lib/libc.a(assert.o)
 .note.GNU-stack
                0x0000000000000000        0x0 /home/charles/linux/code/tfa/mp157_alientek/tf-a-stm32mp-2.2.r1-r0/tf-a-stm32mp-2.2.r1/../build/serialboot/lib/libc.a(memchr.o)
 .note.GNU-stack
                0x0000000000000000        0x0 /home/charles/linux/code/tfa/mp157_alientek/tf-a-stm32mp-2.2.r1-r0/tf-a-stm32mp-2.2.r1/../build/serialboot/lib/libc.a(memcmp.o)
 .note.GNU-stack
                0x0000000000000000        0x0 /home/charles/linux/code/tfa/mp157_alientek/tf-a-stm32mp-2.2.r1-r0/tf-a-stm32mp-2.2.r1/../build/serialboot/lib/libc.a(memcpy.o)
 .note.GNU-stack
                0x0000000000000000        0x0 /home/charles/linux/code/tfa/mp157_alientek/tf-a-stm32mp-2.2.r1-r0/tf-a-stm32mp-2.2.r1/../build/serialboot/lib/libc.a(memmove.o)
 .note.GNU-stack
                0x0000000000000000        0x0 /home/charles/linux/code/tfa/mp157_alientek/tf-a-stm32mp-2.2.r1-r0/tf-a-stm32mp-2.2.r1/../build/serialboot/lib/libc.a(memset.o)
 .note.GNU-stack
                0x0000000000000000        0x0 /home/charles/linux/code/tfa/mp157_alientek/tf-a-stm32mp-2.2.r1-r0/tf-a-stm32mp-2.2.r1/../build/serialboot/lib/libc.a(printf.o)
 .note.GNU-stack
                0x0000000000000000        0x0 /home/charles/linux/code/tfa/mp157_alientek/tf-a-stm32mp-2.2.r1-r0/tf-a-stm32mp-2.2.r1/../build/serialboot/lib/libc.a(putchar.o)
 .note.GNU-stack
                0x0000000000000000        0x0 /home/charles/linux/code/tfa/mp157_alientek/tf-a-stm32mp-2.2.r1-r0/tf-a-stm32mp-2.2.r1/../build/serialboot/lib/libc.a(snprintf.o)
 .note.GNU-stack
                0x0000000000000000        0x0 /home/charles/linux/code/tfa/mp157_alientek/tf-a-stm32mp-2.2.r1-r0/tf-a-stm32mp-2.2.r1/../build/serialboot/lib/libc.a(strchr.o)
 .note.GNU-stack
                0x0000000000000000        0x0 /home/charles/linux/code/tfa/mp157_alientek/tf-a-stm32mp-2.2.r1-r0/tf-a-stm32mp-2.2.r1/../build/serialboot/lib/libc.a(strcmp.o)
 .note.GNU-stack
                0x0000000000000000        0x0 /home/charles/linux/code/tfa/mp157_alientek/tf-a-stm32mp-2.2.r1-r0/tf-a-stm32mp-2.2.r1/../build/serialboot/lib/libc.a(strlen.o)
 .note.GNU-stack
                0x0000000000000000        0x0 /home/charles/linux/code/tfa/mp157_alientek/tf-a-stm32mp-2.2.r1-r0/tf-a-stm32mp-2.2.r1/../build/serialboot/lib/libc.a(strncmp.o)
 .note.GNU-stack
                0x0000000000000000        0x0 /home/charles/linux/code/tfa/mp157_alientek/tf-a-stm32mp-2.2.r1-r0/tf-a-stm32mp-2.2.r1/../build/serialboot/lib/libc.a(strnlen.o)
 .note.GNU-stack
                0x0000000000000000        0x0 /home/charles/linux/code/tfa/mp157_alientek/tf-a-stm32mp-2.2.r1-r0/tf-a-stm32mp-2.2.r1/../build/serialboot/lib/libc.a(strrchr.o)

.ARM.attributes
                0x0000000000000000       0x3b
 .ARM.attributes
                0x0000000000000000       0x3d /home/charles/linux/code/tfa/mp157_alientek/tf-a-stm32mp-2.2.r1-r0/tf-a-stm32mp-2.2.r1/../build/serialboot/bl2/build_message.o
 .ARM.attributes
                0x000000000000003d       0x33 /home/charles/linux/code/tfa/mp157_alientek/tf-a-stm32mp-2.2.r1-r0/tf-a-stm32mp-2.2.r1/../build/serialboot/bl2/io_block.o
 .ARM.attributes
                0x0000000000000070       0x33 /home/charles/linux/code/tfa/mp157_alientek/tf-a-stm32mp-2.2.r1-r0/tf-a-stm32mp-2.2.r1/../build/serialboot/bl2/io_dummy.o
 .ARM.attributes
                0x00000000000000a3       0x33 /home/charles/linux/code/tfa/mp157_alientek/tf-a-stm32mp-2.2.r1-r0/tf-a-stm32mp-2.2.r1/../build/serialboot/bl2/io_mtd.o
 .ARM.attributes
                0x00000000000000d6       0x33 /home/charles/linux/code/tfa/mp157_alientek/tf-a-stm32mp-2.2.r1-r0/tf-a-stm32mp-2.2.r1/../build/serialboot/bl2/io_storage.o
 .ARM.attributes
                0x0000000000000109       0x33 /home/charles/linux/code/tfa/mp157_alientek/tf-a-stm32mp-2.2.r1-r0/tf-a-stm32mp-2.2.r1/../build/serialboot/bl2/stm32_hash.o
 .ARM.attributes
                0x000000000000013c       0x33 /home/charles/linux/code/tfa/mp157_alientek/tf-a-stm32mp-2.2.r1-r0/tf-a-stm32mp-2.2.r1/../build/serialboot/bl2/io_stm32image.o
 .ARM.attributes
                0x000000000000016f       0x33 /home/charles/linux/code/tfa/mp157_alientek/tf-a-stm32mp-2.2.r1-r0/tf-a-stm32mp-2.2.r1/../build/serialboot/bl2/bl2_io_storage.o
 .ARM.attributes
                0x00000000000001a2       0x33 /home/charles/linux/code/tfa/mp157_alientek/tf-a-stm32mp-2.2.r1-r0/tf-a-stm32mp-2.2.r1/../build/serialboot/bl2/bl2_plat_setup.o
 .ARM.attributes
                0x00000000000001d5       0x33 /home/charles/linux/code/tfa/mp157_alientek/tf-a-stm32mp-2.2.r1-r0/tf-a-stm32mp-2.2.r1/../build/serialboot/bl2/auth_mod.o
 .ARM.attributes
                0x0000000000000208       0x33 /home/charles/linux/code/tfa/mp157_alientek/tf-a-stm32mp-2.2.r1-r0/tf-a-stm32mp-2.2.r1/../build/serialboot/bl2/crypto_mod.o
 .ARM.attributes
                0x000000000000023b       0x33 /home/charles/linux/code/tfa/mp157_alientek/tf-a-stm32mp-2.2.r1-r0/tf-a-stm32mp-2.2.r1/../build/serialboot/bl2/img_parser_mod.o
 .ARM.attributes
                0x000000000000026e       0x3d /home/charles/linux/code/tfa/mp157_alientek/tf-a-stm32mp-2.2.r1-r0/tf-a-stm32mp-2.2.r1/../build/serialboot/bl2/stm32mp_cot.o
 .ARM.attributes
                0x00000000000002ab       0x33 /home/charles/linux/code/tfa/mp157_alientek/tf-a-stm32mp-2.2.r1-r0/tf-a-stm32mp-2.2.r1/../build/serialboot/bl2/stm32mp_crypto_lib.o
 .ARM.attributes
                0x00000000000002de       0x33 /home/charles/linux/code/tfa/mp157_alientek/tf-a-stm32mp-2.2.r1-r0/tf-a-stm32mp-2.2.r1/../build/serialboot/bl2/stm32mp_img_parser_lib.o
 .ARM.attributes
                0x0000000000000311       0x33 /home/charles/linux/code/tfa/mp157_alientek/tf-a-stm32mp-2.2.r1-r0/tf-a-stm32mp-2.2.r1/../build/serialboot/bl2/stm32mp_trusted_boot.o
 .ARM.attributes
                0x0000000000000344       0x33 /home/charles/linux/code/tfa/mp157_alientek/tf-a-stm32mp-2.2.r1-r0/tf-a-stm32mp-2.2.r1/../build/serialboot/bl2/mmc.o
 .ARM.attributes
                0x0000000000000377       0x33 /home/charles/linux/code/tfa/mp157_alientek/tf-a-stm32mp-2.2.r1-r0/tf-a-stm32mp-2.2.r1/../build/serialboot/bl2/gpt.o
 .ARM.attributes
                0x00000000000003aa       0x33 /home/charles/linux/code/tfa/mp157_alientek/tf-a-stm32mp-2.2.r1-r0/tf-a-stm32mp-2.2.r1/../build/serialboot/bl2/partition.o
 .ARM.attributes
                0x00000000000003dd       0x33 /home/charles/linux/code/tfa/mp157_alientek/tf-a-stm32mp-2.2.r1-r0/tf-a-stm32mp-2.2.r1/../build/serialboot/bl2/io_mmc.o
 .ARM.attributes
                0x0000000000000410       0x33 /home/charles/linux/code/tfa/mp157_alientek/tf-a-stm32mp-2.2.r1-r0/tf-a-stm32mp-2.2.r1/../build/serialboot/bl2/stm32_sdmmc2.o
 .ARM.attributes
                0x0000000000000443       0x33 /home/charles/linux/code/tfa/mp157_alientek/tf-a-stm32mp-2.2.r1-r0/tf-a-stm32mp-2.2.r1/../build/serialboot/bl2/raw_nand.o
 .ARM.attributes
                0x0000000000000476       0x33 /home/charles/linux/code/tfa/mp157_alientek/tf-a-stm32mp-2.2.r1-r0/tf-a-stm32mp-2.2.r1/../build/serialboot/bl2/stm32_fmc2_nand.o
 .ARM.attributes
                0x00000000000004a9       0x33 /home/charles/linux/code/tfa/mp157_alientek/tf-a-stm32mp-2.2.r1-r0/tf-a-stm32mp-2.2.r1/../build/serialboot/bl2/spi_nand.o
 .ARM.attributes
                0x00000000000004dc       0x33 /home/charles/linux/code/tfa/mp157_alientek/tf-a-stm32mp-2.2.r1-r0/tf-a-stm32mp-2.2.r1/../build/serialboot/bl2/spi_nor.o
 .ARM.attributes
                0x000000000000050f       0x33 /home/charles/linux/code/tfa/mp157_alientek/tf-a-stm32mp-2.2.r1-r0/tf-a-stm32mp-2.2.r1/../build/serialboot/bl2/spi_mem.o
 .ARM.attributes
                0x0000000000000542       0x33 /home/charles/linux/code/tfa/mp157_alientek/tf-a-stm32mp-2.2.r1-r0/tf-a-stm32mp-2.2.r1/../build/serialboot/bl2/stm32_qspi.o
 .ARM.attributes
                0x0000000000000575       0x33 /home/charles/linux/code/tfa/mp157_alientek/tf-a-stm32mp-2.2.r1-r0/tf-a-stm32mp-2.2.r1/../build/serialboot/bl2/core.o
 .ARM.attributes
                0x00000000000005a8       0x33 /home/charles/linux/code/tfa/mp157_alientek/tf-a-stm32mp-2.2.r1-r0/tf-a-stm32mp-2.2.r1/../build/serialboot/bl2/stm32mp1_boot_device.o
 .ARM.attributes
                0x00000000000005db       0x33 /home/charles/linux/code/tfa/mp157_alientek/tf-a-stm32mp-2.2.r1-r0/tf-a-stm32mp-2.2.r1/../build/serialboot/bl2/stm32mp1_ddr.o
 .ARM.attributes
                0x000000000000060e       0x33 /home/charles/linux/code/tfa/mp157_alientek/tf-a-stm32mp-2.2.r1-r0/tf-a-stm32mp-2.2.r1/../build/serialboot/bl2/stm32mp1_ram.o
 .ARM.attributes
                0x0000000000000641       0x33 /home/charles/linux/code/tfa/mp157_alientek/tf-a-stm32mp-2.2.r1-r0/tf-a-stm32mp-2.2.r1/../build/serialboot/bl2/desc_image_load.o
 .ARM.attributes
                0x0000000000000674       0x3d /home/charles/linux/code/tfa/mp157_alientek/tf-a-stm32mp-2.2.r1-r0/tf-a-stm32mp-2.2.r1/../build/serialboot/bl2/plat_bl2_mem_params_desc.o
 .ARM.attributes
                0x00000000000006b1       0x33 /home/charles/linux/code/tfa/mp157_alientek/tf-a-stm32mp-2.2.r1-r0/tf-a-stm32mp-2.2.r1/../build/serialboot/bl2/plat_image_load.o
 .ARM.attributes
                0x00000000000006e4       0x33 /home/charles/linux/code/tfa/mp157_alientek/tf-a-stm32mp-2.2.r1-r0/tf-a-stm32mp-2.2.r1/../build/serialboot/bl2/bl2_image_load_v2.o
 .ARM.attributes
                0x0000000000000717       0x33 /home/charles/linux/code/tfa/mp157_alientek/tf-a-stm32mp-2.2.r1-r0/tf-a-stm32mp-2.2.r1/../build/serialboot/bl2/bl2_main.o
 .ARM.attributes
                0x000000000000074a       0x33 /home/charles/linux/code/tfa/mp157_alientek/tf-a-stm32mp-2.2.r1-r0/tf-a-stm32mp-2.2.r1/../build/serialboot/bl2/bl2_arch_setup.o
 .ARM.attributes
                0x000000000000077d       0x33 /home/charles/linux/code/tfa/mp157_alientek/tf-a-stm32mp-2.2.r1-r0/tf-a-stm32mp-2.2.r1/../build/serialboot/bl2/bl_common.o
 .ARM.attributes
                0x00000000000007b0       0x33 /home/charles/linux/code/tfa/mp157_alientek/tf-a-stm32mp-2.2.r1-r0/tf-a-stm32mp-2.2.r1/../build/serialboot/bl2/tf_log.o
 .ARM.attributes
                0x00000000000007e3       0x33 /home/charles/linux/code/tfa/mp157_alientek/tf-a-stm32mp-2.2.r1-r0/tf-a-stm32mp-2.2.r1/../build/serialboot/bl2/multi_console.o
 .ARM.attributes
                0x0000000000000816       0x33 /home/charles/linux/code/tfa/mp157_alientek/tf-a-stm32mp-2.2.r1-r0/tf-a-stm32mp-2.2.r1/../build/serialboot/bl2/plat_bl_common.o
 .ARM.attributes
                0x0000000000000849       0x33 /home/charles/linux/code/tfa/mp157_alientek/tf-a-stm32mp-2.2.r1-r0/tf-a-stm32mp-2.2.r1/../build/serialboot/bl2/plat_log_common.o
 .ARM.attributes
                0x000000000000087c       0x33 /home/charles/linux/code/tfa/mp157_alientek/tf-a-stm32mp-2.2.r1-r0/tf-a-stm32mp-2.2.r1/../build/serialboot/bl2/popcountsi2.o
 .ARM.attributes
                0x00000000000008af       0x33 /home/charles/linux/code/tfa/mp157_alientek/tf-a-stm32mp-2.2.r1-r0/tf-a-stm32mp-2.2.r1/../build/serialboot/bl2/ctzdi2.o
 .ARM.attributes
                0x00000000000008e2       0x33 /home/charles/linux/code/tfa/mp157_alientek/tf-a-stm32mp-2.2.r1-r0/tf-a-stm32mp-2.2.r1/../build/serialboot/bl2/udivmoddi4.o
 .ARM.attributes
                0x0000000000000915       0x33 /home/charles/linux/code/tfa/mp157_alientek/tf-a-stm32mp-2.2.r1-r0/tf-a-stm32mp-2.2.r1/../build/serialboot/bl2/stm32mp_common.o
 .ARM.attributes
                0x0000000000000948       0x33 /home/charles/linux/code/tfa/mp157_alientek/tf-a-stm32mp-2.2.r1-r0/tf-a-stm32mp-2.2.r1/../build/serialboot/bl2/stm32mp1_private.o
 .ARM.attributes
                0x000000000000097b       0x33 /home/charles/linux/code/tfa/mp157_alientek/tf-a-stm32mp-2.2.r1-r0/tf-a-stm32mp-2.2.r1/../build/serialboot/bl2/xlat_tables_arch.o
 .ARM.attributes
                0x00000000000009ae       0x33 /home/charles/linux/code/tfa/mp157_alientek/tf-a-stm32mp-2.2.r1-r0/tf-a-stm32mp-2.2.r1/../build/serialboot/bl2/xlat_tables_context.o
 .ARM.attributes
                0x00000000000009e1       0x33 /home/charles/linux/code/tfa/mp157_alientek/tf-a-stm32mp-2.2.r1-r0/tf-a-stm32mp-2.2.r1/../build/serialboot/bl2/xlat_tables_core.o
 .ARM.attributes
                0x0000000000000a14       0x33 /home/charles/linux/code/tfa/mp157_alientek/tf-a-stm32mp-2.2.r1-r0/tf-a-stm32mp-2.2.r1/../build/serialboot/bl2/xlat_tables_utils.o
 .ARM.attributes
                0x0000000000000a47       0x33 /home/charles/linux/code/tfa/mp157_alientek/tf-a-stm32mp-2.2.r1-r0/tf-a-stm32mp-2.2.r1/../build/serialboot/bl2/tzc400.o
 .ARM.attributes
                0x0000000000000a7a       0x33 /home/charles/linux/code/tfa/mp157_alientek/tf-a-stm32mp-2.2.r1-r0/tf-a-stm32mp-2.2.r1/../build/serialboot/bl2/delay_timer.o
 .ARM.attributes
                0x0000000000000aad       0x33 /home/charles/linux/code/tfa/mp157_alientek/tf-a-stm32mp-2.2.r1-r0/tf-a-stm32mp-2.2.r1/../build/serialboot/bl2/generic_delay_timer.o
 .ARM.attributes
                0x0000000000000ae0       0x33 /home/charles/linux/code/tfa/mp157_alientek/tf-a-stm32mp-2.2.r1-r0/tf-a-stm32mp-2.2.r1/../build/serialboot/bl2/bsec2.o
 .ARM.attributes
                0x0000000000000b13       0x33 /home/charles/linux/code/tfa/mp157_alientek/tf-a-stm32mp-2.2.r1-r0/tf-a-stm32mp-2.2.r1/../build/serialboot/bl2/stm32mp_clkfunc.o
 .ARM.attributes
                0x0000000000000b46       0x33 /home/charles/linux/code/tfa/mp157_alientek/tf-a-stm32mp-2.2.r1-r0/tf-a-stm32mp-2.2.r1/../build/serialboot/bl2/stm32mp1_clk.o
 .ARM.attributes
                0x0000000000000b79       0x33 /home/charles/linux/code/tfa/mp157_alientek/tf-a-stm32mp-2.2.r1-r0/tf-a-stm32mp-2.2.r1/../build/serialboot/bl2/stm32mp1_ddr_helpers.o
 .ARM.attributes
                0x0000000000000bac       0x33 /home/charles/linux/code/tfa/mp157_alientek/tf-a-stm32mp-2.2.r1-r0/tf-a-stm32mp-2.2.r1/../build/serialboot/bl2/stm32_gpio.o
 .ARM.attributes
                0x0000000000000bdf       0x33 /home/charles/linux/code/tfa/mp157_alientek/tf-a-stm32mp-2.2.r1-r0/tf-a-stm32mp-2.2.r1/../build/serialboot/bl2/stm32_i2c.o
 .ARM.attributes
                0x0000000000000c12       0x33 /home/charles/linux/code/tfa/mp157_alientek/tf-a-stm32mp-2.2.r1-r0/tf-a-stm32mp-2.2.r1/../build/serialboot/bl2/stm32_iwdg.o
 .ARM.attributes
                0x0000000000000c45       0x33 /home/charles/linux/code/tfa/mp157_alientek/tf-a-stm32mp-2.2.r1-r0/tf-a-stm32mp-2.2.r1/../build/serialboot/bl2/stm32mp_pmic.o
 .ARM.attributes
                0x0000000000000c78       0x33 /home/charles/linux/code/tfa/mp157_alientek/tf-a-stm32mp-2.2.r1-r0/tf-a-stm32mp-2.2.r1/../build/serialboot/bl2/stpmic1.o
 .ARM.attributes
                0x0000000000000cab       0x33 /home/charles/linux/code/tfa/mp157_alientek/tf-a-stm32mp-2.2.r1-r0/tf-a-stm32mp-2.2.r1/../build/serialboot/bl2/stm32mp_dummy_regulator.o
 .ARM.attributes
                0x0000000000000cde       0x33 /home/charles/linux/code/tfa/mp157_alientek/tf-a-stm32mp-2.2.r1-r0/tf-a-stm32mp-2.2.r1/../build/serialboot/bl2/stm32mp_regulator.o
 .ARM.attributes
                0x0000000000000d11       0x33 /home/charles/linux/code/tfa/mp157_alientek/tf-a-stm32mp-2.2.r1-r0/tf-a-stm32mp-2.2.r1/../build/serialboot/bl2/stm32mp1_reset.o
 .ARM.attributes
                0x0000000000000d44       0x33 /home/charles/linux/code/tfa/mp157_alientek/tf-a-stm32mp-2.2.r1-r0/tf-a-stm32mp-2.2.r1/../build/serialboot/bl2/stm32mp_dt.o
 .ARM.attributes
                0x0000000000000d77       0x33 /home/charles/linux/code/tfa/mp157_alientek/tf-a-stm32mp-2.2.r1-r0/tf-a-stm32mp-2.2.r1/../build/serialboot/bl2/stm32mp_shres_helpers.o
 .ARM.attributes
                0x0000000000000daa       0x33 /home/charles/linux/code/tfa/mp157_alientek/tf-a-stm32mp-2.2.r1-r0/tf-a-stm32mp-2.2.r1/../build/serialboot/bl2/stm32mp1_context.o
 .ARM.attributes
                0x0000000000000ddd       0x33 /home/charles/linux/code/tfa/mp157_alientek/tf-a-stm32mp-2.2.r1-r0/tf-a-stm32mp-2.2.r1/../build/serialboot/bl2/stm32mp1_dbgmcu.o
 .ARM.attributes
                0x0000000000000e10       0x33 /home/charles/linux/code/tfa/mp157_alientek/tf-a-stm32mp-2.2.r1-r0/tf-a-stm32mp-2.2.r1/../build/serialboot/bl2/stm32mp1_security.o
 .ARM.attributes
                0x0000000000000e43       0x33 /home/charles/linux/code/tfa/mp157_alientek/tf-a-stm32mp-2.2.r1-r0/tf-a-stm32mp-2.2.r1/../build/serialboot/bl2/stm32mp1_syscfg.o
 .ARM.attributes
                0x0000000000000e76       0x27 /home/charles/linux/code/tfa/mp157_alientek/tf-a-stm32mp-2.2.r1-r0/tf-a-stm32mp-2.2.r1/../build/serialboot/bl2/spinlock.o
 .ARM.attributes
                0x0000000000000e9d       0x27 /home/charles/linux/code/tfa/mp157_alientek/tf-a-stm32mp-2.2.r1-r0/tf-a-stm32mp-2.2.r1/../build/serialboot/bl2/platform_up_stack.o
 .ARM.attributes
                0x0000000000000ec4       0x27 /home/charles/linux/code/tfa/mp157_alientek/tf-a-stm32mp-2.2.r1-r0/tf-a-stm32mp-2.2.r1/../build/serialboot/bl2/bl2_el3_entrypoint.o
 .ARM.attributes
                0x0000000000000eeb       0x27 /home/charles/linux/code/tfa/mp157_alientek/tf-a-stm32mp-2.2.r1-r0/tf-a-stm32mp-2.2.r1/../build/serialboot/bl2/bl2_el3_exceptions.o
 .ARM.attributes
                0x0000000000000f12       0x27 /home/charles/linux/code/tfa/mp157_alientek/tf-a-stm32mp-2.2.r1-r0/tf-a-stm32mp-2.2.r1/../build/serialboot/bl2/cpu_helpers.o
 .ARM.attributes
                0x0000000000000f39       0x27 /home/charles/linux/code/tfa/mp157_alientek/tf-a-stm32mp-2.2.r1-r0/tf-a-stm32mp-2.2.r1/../build/serialboot/bl2/debug.o
 .ARM.attributes
                0x0000000000000f60       0x27 /home/charles/linux/code/tfa/mp157_alientek/tf-a-stm32mp-2.2.r1-r0/tf-a-stm32mp-2.2.r1/../build/serialboot/bl2/cache_helpers.o
 .ARM.attributes
                0x0000000000000f87       0x27 /home/charles/linux/code/tfa/mp157_alientek/tf-a-stm32mp-2.2.r1-r0/tf-a-stm32mp-2.2.r1/../build/serialboot/bl2/misc_helpers.o
 .ARM.attributes
                0x0000000000000fae       0x27 /home/charles/linux/code/tfa/mp157_alientek/tf-a-stm32mp-2.2.r1-r0/tf-a-stm32mp-2.2.r1/../build/serialboot/bl2/aeabi_uldivmod.o
 .ARM.attributes
                0x0000000000000fd5       0x27 /home/charles/linux/code/tfa/mp157_alientek/tf-a-stm32mp-2.2.r1-r0/tf-a-stm32mp-2.2.r1/../build/serialboot/bl2/stm32_console.o
 .ARM.attributes
                0x0000000000000ffc       0x27 /home/charles/linux/code/tfa/mp157_alientek/tf-a-stm32mp-2.2.r1-r0/tf-a-stm32mp-2.2.r1/../build/serialboot/bl2/enable_mmu.o
 .ARM.attributes
                0x0000000000001023       0x27 /home/charles/linux/code/tfa/mp157_alientek/tf-a-stm32mp-2.2.r1-r0/tf-a-stm32mp-2.2.r1/../build/serialboot/bl2/cortex_a7.o
 .ARM.attributes
                0x000000000000104a       0x27 /home/charles/linux/code/tfa/mp157_alientek/tf-a-stm32mp-2.2.r1-r0/tf-a-stm32mp-2.2.r1/../build/serialboot/bl2/stm32mp1_helper.o
 .ARM.attributes
                0x0000000000001071       0x33 /home/charles/linux/code/tfa/mp157_alientek/tf-a-stm32mp-2.2.r1-r0/tf-a-stm32mp-2.2.r1/../build/serialboot/lib/libfdt.a(fdt.o)
 .ARM.attributes
                0x00000000000010a4       0x33 /home/charles/linux/code/tfa/mp157_alientek/tf-a-stm32mp-2.2.r1-r0/tf-a-stm32mp-2.2.r1/../build/serialboot/lib/libfdt.a(fdt_addresses.o)
 .ARM.attributes
                0x00000000000010d7       0x33 /home/charles/linux/code/tfa/mp157_alientek/tf-a-stm32mp-2.2.r1-r0/tf-a-stm32mp-2.2.r1/../build/serialboot/lib/libfdt.a(fdt_ro.o)
 .ARM.attributes
                0x000000000000110a       0x33 /home/charles/linux/code/tfa/mp157_alientek/tf-a-stm32mp-2.2.r1-r0/tf-a-stm32mp-2.2.r1/../build/serialboot/lib/libc.a(assert.o)
 .ARM.attributes
                0x000000000000113d       0x33 /home/charles/linux/code/tfa/mp157_alientek/tf-a-stm32mp-2.2.r1-r0/tf-a-stm32mp-2.2.r1/../build/serialboot/lib/libc.a(memchr.o)
 .ARM.attributes
                0x0000000000001170       0x33 /home/charles/linux/code/tfa/mp157_alientek/tf-a-stm32mp-2.2.r1-r0/tf-a-stm32mp-2.2.r1/../build/serialboot/lib/libc.a(memcmp.o)
 .ARM.attributes
                0x00000000000011a3       0x33 /home/charles/linux/code/tfa/mp157_alientek/tf-a-stm32mp-2.2.r1-r0/tf-a-stm32mp-2.2.r1/../build/serialboot/lib/libc.a(memcpy.o)
 .ARM.attributes
                0x00000000000011d6       0x33 /home/charles/linux/code/tfa/mp157_alientek/tf-a-stm32mp-2.2.r1-r0/tf-a-stm32mp-2.2.r1/../build/serialboot/lib/libc.a(memmove.o)
 .ARM.attributes
                0x0000000000001209       0x33 /home/charles/linux/code/tfa/mp157_alientek/tf-a-stm32mp-2.2.r1-r0/tf-a-stm32mp-2.2.r1/../build/serialboot/lib/libc.a(memset.o)
 .ARM.attributes
                0x000000000000123c       0x33 /home/charles/linux/code/tfa/mp157_alientek/tf-a-stm32mp-2.2.r1-r0/tf-a-stm32mp-2.2.r1/../build/serialboot/lib/libc.a(printf.o)
 .ARM.attributes
                0x000000000000126f       0x33 /home/charles/linux/code/tfa/mp157_alientek/tf-a-stm32mp-2.2.r1-r0/tf-a-stm32mp-2.2.r1/../build/serialboot/lib/libc.a(putchar.o)
 .ARM.attributes
                0x00000000000012a2       0x33 /home/charles/linux/code/tfa/mp157_alientek/tf-a-stm32mp-2.2.r1-r0/tf-a-stm32mp-2.2.r1/../build/serialboot/lib/libc.a(snprintf.o)
 .ARM.attributes
                0x00000000000012d5       0x33 /home/charles/linux/code/tfa/mp157_alientek/tf-a-stm32mp-2.2.r1-r0/tf-a-stm32mp-2.2.r1/../build/serialboot/lib/libc.a(strchr.o)
 .ARM.attributes
                0x0000000000001308       0x33 /home/charles/linux/code/tfa/mp157_alientek/tf-a-stm32mp-2.2.r1-r0/tf-a-stm32mp-2.2.r1/../build/serialboot/lib/libc.a(strcmp.o)
 .ARM.attributes
                0x000000000000133b       0x33 /home/charles/linux/code/tfa/mp157_alientek/tf-a-stm32mp-2.2.r1-r0/tf-a-stm32mp-2.2.r1/../build/serialboot/lib/libc.a(strlen.o)
 .ARM.attributes
                0x000000000000136e       0x33 /home/charles/linux/code/tfa/mp157_alientek/tf-a-stm32mp-2.2.r1-r0/tf-a-stm32mp-2.2.r1/../build/serialboot/lib/libc.a(strncmp.o)
 .ARM.attributes
                0x00000000000013a1       0x33 /home/charles/linux/code/tfa/mp157_alientek/tf-a-stm32mp-2.2.r1-r0/tf-a-stm32mp-2.2.r1/../build/serialboot/lib/libc.a(strnlen.o)
 .ARM.attributes
                0x00000000000013d4       0x33 /home/charles/linux/code/tfa/mp157_alientek/tf-a-stm32mp-2.2.r1-r0/tf-a-stm32mp-2.2.r1/../build/serialboot/lib/libc.a(strrchr.o)

.debug_loc      0x0000000000000000    0x2e51e
 .debug_loc     0x0000000000000000      0xd79 /home/charles/linux/code/tfa/mp157_alientek/tf-a-stm32mp-2.2.r1-r0/tf-a-stm32mp-2.2.r1/../build/serialboot/bl2/io_block.o
 .debug_loc     0x0000000000000d79      0x5b6 /home/charles/linux/code/tfa/mp157_alientek/tf-a-stm32mp-2.2.r1-r0/tf-a-stm32mp-2.2.r1/../build/serialboot/bl2/io_dummy.o
 .debug_loc     0x000000000000132f      0x89c /home/charles/linux/code/tfa/mp157_alientek/tf-a-stm32mp-2.2.r1-r0/tf-a-stm32mp-2.2.r1/../build/serialboot/bl2/io_mtd.o
 .debug_loc     0x0000000000001bcb     0x101a /home/charles/linux/code/tfa/mp157_alientek/tf-a-stm32mp-2.2.r1-r0/tf-a-stm32mp-2.2.r1/../build/serialboot/bl2/io_storage.o
 .debug_loc     0x0000000000002be5      0xa93 /home/charles/linux/code/tfa/mp157_alientek/tf-a-stm32mp-2.2.r1-r0/tf-a-stm32mp-2.2.r1/../build/serialboot/bl2/stm32_hash.o
 .debug_loc     0x0000000000003678      0x7ca /home/charles/linux/code/tfa/mp157_alientek/tf-a-stm32mp-2.2.r1-r0/tf-a-stm32mp-2.2.r1/../build/serialboot/bl2/io_stm32image.o
 .debug_loc     0x0000000000003e42      0x659 /home/charles/linux/code/tfa/mp157_alientek/tf-a-stm32mp-2.2.r1-r0/tf-a-stm32mp-2.2.r1/../build/serialboot/bl2/bl2_io_storage.o
 .debug_loc     0x000000000000449b      0x7b5 /home/charles/linux/code/tfa/mp157_alientek/tf-a-stm32mp-2.2.r1-r0/tf-a-stm32mp-2.2.r1/../build/serialboot/bl2/bl2_plat_setup.o
 .debug_loc     0x0000000000004c50      0x64f /home/charles/linux/code/tfa/mp157_alientek/tf-a-stm32mp-2.2.r1-r0/tf-a-stm32mp-2.2.r1/../build/serialboot/bl2/auth_mod.o
 .debug_loc     0x000000000000529f      0x3c2 /home/charles/linux/code/tfa/mp157_alientek/tf-a-stm32mp-2.2.r1-r0/tf-a-stm32mp-2.2.r1/../build/serialboot/bl2/crypto_mod.o
 .debug_loc     0x0000000000005661      0x460 /home/charles/linux/code/tfa/mp157_alientek/tf-a-stm32mp-2.2.r1-r0/tf-a-stm32mp-2.2.r1/../build/serialboot/bl2/img_parser_mod.o
 .debug_loc     0x0000000000005ac1      0x39d /home/charles/linux/code/tfa/mp157_alientek/tf-a-stm32mp-2.2.r1-r0/tf-a-stm32mp-2.2.r1/../build/serialboot/bl2/stm32mp_crypto_lib.o
 .debug_loc     0x0000000000005e5e      0x19b /home/charles/linux/code/tfa/mp157_alientek/tf-a-stm32mp-2.2.r1-r0/tf-a-stm32mp-2.2.r1/../build/serialboot/bl2/stm32mp_img_parser_lib.o
 .debug_loc     0x0000000000005ff9      0x1d7 /home/charles/linux/code/tfa/mp157_alientek/tf-a-stm32mp-2.2.r1-r0/tf-a-stm32mp-2.2.r1/../build/serialboot/bl2/stm32mp_trusted_boot.o
 .debug_loc     0x00000000000061d0     0x117b /home/charles/linux/code/tfa/mp157_alientek/tf-a-stm32mp-2.2.r1-r0/tf-a-stm32mp-2.2.r1/../build/serialboot/bl2/mmc.o
 .debug_loc     0x000000000000734b      0x15e /home/charles/linux/code/tfa/mp157_alientek/tf-a-stm32mp-2.2.r1-r0/tf-a-stm32mp-2.2.r1/../build/serialboot/bl2/gpt.o
 .debug_loc     0x00000000000074a9      0x4f8 /home/charles/linux/code/tfa/mp157_alientek/tf-a-stm32mp-2.2.r1-r0/tf-a-stm32mp-2.2.r1/../build/serialboot/bl2/partition.o
 .debug_loc     0x00000000000079a1      0x2b9 /home/charles/linux/code/tfa/mp157_alientek/tf-a-stm32mp-2.2.r1-r0/tf-a-stm32mp-2.2.r1/../build/serialboot/bl2/io_mmc.o
 .debug_loc     0x0000000000007c5a     0x1709 /home/charles/linux/code/tfa/mp157_alientek/tf-a-stm32mp-2.2.r1-r0/tf-a-stm32mp-2.2.r1/../build/serialboot/bl2/stm32_sdmmc2.o
 .debug_loc     0x0000000000009363      0xac2 /home/charles/linux/code/tfa/mp157_alientek/tf-a-stm32mp-2.2.r1-r0/tf-a-stm32mp-2.2.r1/../build/serialboot/bl2/raw_nand.o
 .debug_loc     0x0000000000009e25     0x2151 /home/charles/linux/code/tfa/mp157_alientek/tf-a-stm32mp-2.2.r1-r0/tf-a-stm32mp-2.2.r1/../build/serialboot/bl2/stm32_fmc2_nand.o
 .debug_loc     0x000000000000bf76      0x9ed /home/charles/linux/code/tfa/mp157_alientek/tf-a-stm32mp-2.2.r1-r0/tf-a-stm32mp-2.2.r1/../build/serialboot/bl2/spi_nand.o
 .debug_loc     0x000000000000c963      0x634 /home/charles/linux/code/tfa/mp157_alientek/tf-a-stm32mp-2.2.r1-r0/tf-a-stm32mp-2.2.r1/../build/serialboot/bl2/spi_nor.o
 .debug_loc     0x000000000000cf97      0x472 /home/charles/linux/code/tfa/mp157_alientek/tf-a-stm32mp-2.2.r1-r0/tf-a-stm32mp-2.2.r1/../build/serialboot/bl2/spi_mem.o
 .debug_loc     0x000000000000d409      0xf7e /home/charles/linux/code/tfa/mp157_alientek/tf-a-stm32mp-2.2.r1-r0/tf-a-stm32mp-2.2.r1/../build/serialboot/bl2/stm32_qspi.o
 .debug_loc     0x000000000000e387      0x353 /home/charles/linux/code/tfa/mp157_alientek/tf-a-stm32mp-2.2.r1-r0/tf-a-stm32mp-2.2.r1/../build/serialboot/bl2/core.o
 .debug_loc     0x000000000000e6da       0xc0 /home/charles/linux/code/tfa/mp157_alientek/tf-a-stm32mp-2.2.r1-r0/tf-a-stm32mp-2.2.r1/../build/serialboot/bl2/stm32mp1_boot_device.o
 .debug_loc     0x000000000000e79a     0x2813 /home/charles/linux/code/tfa/mp157_alientek/tf-a-stm32mp-2.2.r1-r0/tf-a-stm32mp-2.2.r1/../build/serialboot/bl2/stm32mp1_ddr.o
 .debug_loc     0x0000000000010fad      0x831 /home/charles/linux/code/tfa/mp157_alientek/tf-a-stm32mp-2.2.r1-r0/tf-a-stm32mp-2.2.r1/../build/serialboot/bl2/stm32mp1_ram.o
 .debug_loc     0x00000000000117de      0x8ad /home/charles/linux/code/tfa/mp157_alientek/tf-a-stm32mp-2.2.r1-r0/tf-a-stm32mp-2.2.r1/../build/serialboot/bl2/desc_image_load.o
 .debug_loc     0x000000000001208b       0xb7 /home/charles/linux/code/tfa/mp157_alientek/tf-a-stm32mp-2.2.r1-r0/tf-a-stm32mp-2.2.r1/../build/serialboot/bl2/plat_image_load.o
 .debug_loc     0x0000000000012142      0x156 /home/charles/linux/code/tfa/mp157_alientek/tf-a-stm32mp-2.2.r1-r0/tf-a-stm32mp-2.2.r1/../build/serialboot/bl2/bl2_image_load_v2.o
 .debug_loc     0x0000000000012298       0xc3 /home/charles/linux/code/tfa/mp157_alientek/tf-a-stm32mp-2.2.r1-r0/tf-a-stm32mp-2.2.r1/../build/serialboot/bl2/bl2_main.o
 .debug_loc     0x000000000001235b      0x3cb /home/charles/linux/code/tfa/mp157_alientek/tf-a-stm32mp-2.2.r1-r0/tf-a-stm32mp-2.2.r1/../build/serialboot/bl2/bl_common.o
 .debug_loc     0x0000000000012726       0xb5 /home/charles/linux/code/tfa/mp157_alientek/tf-a-stm32mp-2.2.r1-r0/tf-a-stm32mp-2.2.r1/../build/serialboot/bl2/tf_log.o
 .debug_loc     0x00000000000127db      0x331 /home/charles/linux/code/tfa/mp157_alientek/tf-a-stm32mp-2.2.r1-r0/tf-a-stm32mp-2.2.r1/../build/serialboot/bl2/multi_console.o
 .debug_loc     0x0000000000012b0c       0x91 /home/charles/linux/code/tfa/mp157_alientek/tf-a-stm32mp-2.2.r1-r0/tf-a-stm32mp-2.2.r1/../build/serialboot/bl2/plat_bl_common.o
 .debug_loc     0x0000000000012b9d       0x96 /home/charles/linux/code/tfa/mp157_alientek/tf-a-stm32mp-2.2.r1-r0/tf-a-stm32mp-2.2.r1/../build/serialboot/bl2/plat_log_common.o
 .debug_loc     0x0000000000012c33      0x12e /home/charles/linux/code/tfa/mp157_alientek/tf-a-stm32mp-2.2.r1-r0/tf-a-stm32mp-2.2.r1/../build/serialboot/bl2/popcountsi2.o
 .debug_loc     0x0000000000012d61       0x41 /home/charles/linux/code/tfa/mp157_alientek/tf-a-stm32mp-2.2.r1-r0/tf-a-stm32mp-2.2.r1/../build/serialboot/bl2/ctzdi2.o
 .debug_loc     0x0000000000012da2      0x2e7 /home/charles/linux/code/tfa/mp157_alientek/tf-a-stm32mp-2.2.r1-r0/tf-a-stm32mp-2.2.r1/../build/serialboot/bl2/udivmoddi4.o
 .debug_loc     0x0000000000013089      0x2d8 /home/charles/linux/code/tfa/mp157_alientek/tf-a-stm32mp-2.2.r1-r0/tf-a-stm32mp-2.2.r1/../build/serialboot/bl2/stm32mp_common.o
 .debug_loc     0x0000000000013361      0x893 /home/charles/linux/code/tfa/mp157_alientek/tf-a-stm32mp-2.2.r1-r0/tf-a-stm32mp-2.2.r1/../build/serialboot/bl2/stm32mp1_private.o
 .debug_loc     0x0000000000013bf4      0x4c4 /home/charles/linux/code/tfa/mp157_alientek/tf-a-stm32mp-2.2.r1-r0/tf-a-stm32mp-2.2.r1/../build/serialboot/bl2/xlat_tables_arch.o
 .debug_loc     0x00000000000140b8      0x593 /home/charles/linux/code/tfa/mp157_alientek/tf-a-stm32mp-2.2.r1-r0/tf-a-stm32mp-2.2.r1/../build/serialboot/bl2/xlat_tables_context.o
 .debug_loc     0x000000000001464b     0x1bc5 /home/charles/linux/code/tfa/mp157_alientek/tf-a-stm32mp-2.2.r1-r0/tf-a-stm32mp-2.2.r1/../build/serialboot/bl2/xlat_tables_core.o
 .debug_loc     0x0000000000016210      0x9a1 /home/charles/linux/code/tfa/mp157_alientek/tf-a-stm32mp-2.2.r1-r0/tf-a-stm32mp-2.2.r1/../build/serialboot/bl2/xlat_tables_utils.o
 .debug_loc     0x0000000000016bb1      0xd7b /home/charles/linux/code/tfa/mp157_alientek/tf-a-stm32mp-2.2.r1-r0/tf-a-stm32mp-2.2.r1/../build/serialboot/bl2/tzc400.o
 .debug_loc     0x000000000001792c      0x116 /home/charles/linux/code/tfa/mp157_alientek/tf-a-stm32mp-2.2.r1-r0/tf-a-stm32mp-2.2.r1/../build/serialboot/bl2/delay_timer.o
 .debug_loc     0x0000000000017a42       0xc6 /home/charles/linux/code/tfa/mp157_alientek/tf-a-stm32mp-2.2.r1-r0/tf-a-stm32mp-2.2.r1/../build/serialboot/bl2/generic_delay_timer.o
 .debug_loc     0x0000000000017b08     0x1497 /home/charles/linux/code/tfa/mp157_alientek/tf-a-stm32mp-2.2.r1-r0/tf-a-stm32mp-2.2.r1/../build/serialboot/bl2/bsec2.o
 .debug_loc     0x0000000000018f9f      0xbec /home/charles/linux/code/tfa/mp157_alientek/tf-a-stm32mp-2.2.r1-r0/tf-a-stm32mp-2.2.r1/../build/serialboot/bl2/stm32mp_clkfunc.o
 .debug_loc     0x0000000000019b8b     0x6667 /home/charles/linux/code/tfa/mp157_alientek/tf-a-stm32mp-2.2.r1-r0/tf-a-stm32mp-2.2.r1/../build/serialboot/bl2/stm32mp1_clk.o
 .debug_loc     0x00000000000201f2     0x34dd /home/charles/linux/code/tfa/mp157_alientek/tf-a-stm32mp-2.2.r1-r0/tf-a-stm32mp-2.2.r1/../build/serialboot/bl2/stm32mp1_ddr_helpers.o
 .debug_loc     0x00000000000236cf      0xfec /home/charles/linux/code/tfa/mp157_alientek/tf-a-stm32mp-2.2.r1-r0/tf-a-stm32mp-2.2.r1/../build/serialboot/bl2/stm32_gpio.o
 .debug_loc     0x00000000000246bb     0x2f45 /home/charles/linux/code/tfa/mp157_alientek/tf-a-stm32mp-2.2.r1-r0/tf-a-stm32mp-2.2.r1/../build/serialboot/bl2/stm32_i2c.o
 .debug_loc     0x0000000000027600      0x266 /home/charles/linux/code/tfa/mp157_alientek/tf-a-stm32mp-2.2.r1-r0/tf-a-stm32mp-2.2.r1/../build/serialboot/bl2/stm32_iwdg.o
 .debug_loc     0x0000000000027866      0x982 /home/charles/linux/code/tfa/mp157_alientek/tf-a-stm32mp-2.2.r1-r0/tf-a-stm32mp-2.2.r1/../build/serialboot/bl2/stm32mp_pmic.o
 .debug_loc     0x00000000000281e8      0x73d /home/charles/linux/code/tfa/mp157_alientek/tf-a-stm32mp-2.2.r1-r0/tf-a-stm32mp-2.2.r1/../build/serialboot/bl2/stpmic1.o
 .debug_loc     0x0000000000028925       0x25 /home/charles/linux/code/tfa/mp157_alientek/tf-a-stm32mp-2.2.r1-r0/tf-a-stm32mp-2.2.r1/../build/serialboot/bl2/stm32mp_dummy_regulator.o
 .debug_loc     0x000000000002894a       0xeb /home/charles/linux/code/tfa/mp157_alientek/tf-a-stm32mp-2.2.r1-r0/tf-a-stm32mp-2.2.r1/../build/serialboot/bl2/stm32mp_regulator.o
 .debug_loc     0x0000000000028a35      0x3f4 /home/charles/linux/code/tfa/mp157_alientek/tf-a-stm32mp-2.2.r1-r0/tf-a-stm32mp-2.2.r1/../build/serialboot/bl2/stm32mp1_reset.o
 .debug_loc     0x0000000000028e29     0x1064 /home/charles/linux/code/tfa/mp157_alientek/tf-a-stm32mp-2.2.r1-r0/tf-a-stm32mp-2.2.r1/../build/serialboot/bl2/stm32mp_dt.o
 .debug_loc     0x0000000000029e8d      0x2be /home/charles/linux/code/tfa/mp157_alientek/tf-a-stm32mp-2.2.r1-r0/tf-a-stm32mp-2.2.r1/../build/serialboot/bl2/stm32mp_shres_helpers.o
 .debug_loc     0x000000000002a14b      0x459 /home/charles/linux/code/tfa/mp157_alientek/tf-a-stm32mp-2.2.r1-r0/tf-a-stm32mp-2.2.r1/../build/serialboot/bl2/stm32mp1_context.o
 .debug_loc     0x000000000002a5a4      0x1b5 /home/charles/linux/code/tfa/mp157_alientek/tf-a-stm32mp-2.2.r1-r0/tf-a-stm32mp-2.2.r1/../build/serialboot/bl2/stm32mp1_dbgmcu.o
 .debug_loc     0x000000000002a759       0x9b /home/charles/linux/code/tfa/mp157_alientek/tf-a-stm32mp-2.2.r1-r0/tf-a-stm32mp-2.2.r1/../build/serialboot/bl2/stm32mp1_security.o
 .debug_loc     0x000000000002a7f4      0x52c /home/charles/linux/code/tfa/mp157_alientek/tf-a-stm32mp-2.2.r1-r0/tf-a-stm32mp-2.2.r1/../build/serialboot/bl2/stm32mp1_syscfg.o
 .debug_loc     0x000000000002ad20      0x60f /home/charles/linux/code/tfa/mp157_alientek/tf-a-stm32mp-2.2.r1-r0/tf-a-stm32mp-2.2.r1/../build/serialboot/lib/libfdt.a(fdt.o)
 .debug_loc     0x000000000002b32f      0x146 /home/charles/linux/code/tfa/mp157_alientek/tf-a-stm32mp-2.2.r1-r0/tf-a-stm32mp-2.2.r1/../build/serialboot/lib/libfdt.a(fdt_addresses.o)
 .debug_loc     0x000000000002b475     0x1fd8 /home/charles/linux/code/tfa/mp157_alientek/tf-a-stm32mp-2.2.r1-r0/tf-a-stm32mp-2.2.r1/../build/serialboot/lib/libfdt.a(fdt_ro.o)
 .debug_loc     0x000000000002d44d       0x64 /home/charles/linux/code/tfa/mp157_alientek/tf-a-stm32mp-2.2.r1-r0/tf-a-stm32mp-2.2.r1/../build/serialboot/lib/libc.a(assert.o)
 .debug_loc     0x000000000002d4b1      0x10a /home/charles/linux/code/tfa/mp157_alientek/tf-a-stm32mp-2.2.r1-r0/tf-a-stm32mp-2.2.r1/../build/serialboot/lib/libc.a(memchr.o)
 .debug_loc     0x000000000002d5bb      0x11a /home/charles/linux/code/tfa/mp157_alientek/tf-a-stm32mp-2.2.r1-r0/tf-a-stm32mp-2.2.r1/../build/serialboot/lib/libc.a(memcmp.o)
 .debug_loc     0x000000000002d6d5       0xa2 /home/charles/linux/code/tfa/mp157_alientek/tf-a-stm32mp-2.2.r1-r0/tf-a-stm32mp-2.2.r1/../build/serialboot/lib/libc.a(memcpy.o)
 .debug_loc     0x000000000002d777      0x170 /home/charles/linux/code/tfa/mp157_alientek/tf-a-stm32mp-2.2.r1-r0/tf-a-stm32mp-2.2.r1/../build/serialboot/lib/libc.a(memmove.o)
 .debug_loc     0x000000000002d8e7       0x63 /home/charles/linux/code/tfa/mp157_alientek/tf-a-stm32mp-2.2.r1-r0/tf-a-stm32mp-2.2.r1/../build/serialboot/lib/libc.a(memset.o)
 .debug_loc     0x000000000002d94a      0x6bd /home/charles/linux/code/tfa/mp157_alientek/tf-a-stm32mp-2.2.r1-r0/tf-a-stm32mp-2.2.r1/../build/serialboot/lib/libc.a(printf.o)
 .debug_loc     0x000000000002e007       0x22 /home/charles/linux/code/tfa/mp157_alientek/tf-a-stm32mp-2.2.r1-r0/tf-a-stm32mp-2.2.r1/../build/serialboot/lib/libc.a(putchar.o)
 .debug_loc     0x000000000002e029      0x203 /home/charles/linux/code/tfa/mp157_alientek/tf-a-stm32mp-2.2.r1-r0/tf-a-stm32mp-2.2.r1/../build/serialboot/lib/libc.a(snprintf.o)
 .debug_loc     0x000000000002e22c       0x6b /home/charles/linux/code/tfa/mp157_alientek/tf-a-stm32mp-2.2.r1-r0/tf-a-stm32mp-2.2.r1/../build/serialboot/lib/libc.a(strchr.o)
 .debug_loc     0x000000000002e297       0x71 /home/charles/linux/code/tfa/mp157_alientek/tf-a-stm32mp-2.2.r1-r0/tf-a-stm32mp-2.2.r1/../build/serialboot/lib/libc.a(strcmp.o)
 .debug_loc     0x000000000002e308       0x47 /home/charles/linux/code/tfa/mp157_alientek/tf-a-stm32mp-2.2.r1-r0/tf-a-stm32mp-2.2.r1/../build/serialboot/lib/libc.a(strlen.o)
 .debug_loc     0x000000000002e34f       0xfe /home/charles/linux/code/tfa/mp157_alientek/tf-a-stm32mp-2.2.r1-r0/tf-a-stm32mp-2.2.r1/../build/serialboot/lib/libc.a(strncmp.o)
 .debug_loc     0x000000000002e44d       0x38 /home/charles/linux/code/tfa/mp157_alientek/tf-a-stm32mp-2.2.r1-r0/tf-a-stm32mp-2.2.r1/../build/serialboot/lib/libc.a(strnlen.o)
 .debug_loc     0x000000000002e485       0x99 /home/charles/linux/code/tfa/mp157_alientek/tf-a-stm32mp-2.2.r1-r0/tf-a-stm32mp-2.2.r1/../build/serialboot/lib/libc.a(strrchr.o)

.debug_ranges   0x0000000000000000     0x6238
 .debug_ranges  0x0000000000000000      0x110 /home/charles/linux/code/tfa/mp157_alientek/tf-a-stm32mp-2.2.r1-r0/tf-a-stm32mp-2.2.r1/../build/serialboot/bl2/io_block.o
 .debug_ranges  0x0000000000000110       0x78 /home/charles/linux/code/tfa/mp157_alientek/tf-a-stm32mp-2.2.r1-r0/tf-a-stm32mp-2.2.r1/../build/serialboot/bl2/io_dummy.o
 .debug_ranges  0x0000000000000188       0xb8 /home/charles/linux/code/tfa/mp157_alientek/tf-a-stm32mp-2.2.r1-r0/tf-a-stm32mp-2.2.r1/../build/serialboot/bl2/io_mtd.o
 .debug_ranges  0x0000000000000240      0x130 /home/charles/linux/code/tfa/mp157_alientek/tf-a-stm32mp-2.2.r1-r0/tf-a-stm32mp-2.2.r1/../build/serialboot/bl2/io_storage.o
 .debug_ranges  0x0000000000000370      0x2a0 /home/charles/linux/code/tfa/mp157_alientek/tf-a-stm32mp-2.2.r1-r0/tf-a-stm32mp-2.2.r1/../build/serialboot/bl2/stm32_hash.o
 .debug_ranges  0x0000000000000610       0x68 /home/charles/linux/code/tfa/mp157_alientek/tf-a-stm32mp-2.2.r1-r0/tf-a-stm32mp-2.2.r1/../build/serialboot/bl2/io_stm32image.o
 .debug_ranges  0x0000000000000678       0x78 /home/charles/linux/code/tfa/mp157_alientek/tf-a-stm32mp-2.2.r1-r0/tf-a-stm32mp-2.2.r1/../build/serialboot/bl2/bl2_io_storage.o
 .debug_ranges  0x00000000000006f0      0x138 /home/charles/linux/code/tfa/mp157_alientek/tf-a-stm32mp-2.2.r1-r0/tf-a-stm32mp-2.2.r1/../build/serialboot/bl2/bl2_plat_setup.o
 .debug_ranges  0x0000000000000828       0x68 /home/charles/linux/code/tfa/mp157_alientek/tf-a-stm32mp-2.2.r1-r0/tf-a-stm32mp-2.2.r1/../build/serialboot/bl2/auth_mod.o
 .debug_ranges  0x0000000000000890       0x20 /home/charles/linux/code/tfa/mp157_alientek/tf-a-stm32mp-2.2.r1-r0/tf-a-stm32mp-2.2.r1/../build/serialboot/bl2/crypto_mod.o
 .debug_ranges  0x00000000000008b0       0x38 /home/charles/linux/code/tfa/mp157_alientek/tf-a-stm32mp-2.2.r1-r0/tf-a-stm32mp-2.2.r1/../build/serialboot/bl2/img_parser_mod.o
 .debug_ranges  0x00000000000008e8       0x20 /home/charles/linux/code/tfa/mp157_alientek/tf-a-stm32mp-2.2.r1-r0/tf-a-stm32mp-2.2.r1/../build/serialboot/bl2/stm32mp_crypto_lib.o
 .debug_ranges  0x0000000000000908       0x20 /home/charles/linux/code/tfa/mp157_alientek/tf-a-stm32mp-2.2.r1-r0/tf-a-stm32mp-2.2.r1/../build/serialboot/bl2/stm32mp_img_parser_lib.o
 .debug_ranges  0x0000000000000928       0x20 /home/charles/linux/code/tfa/mp157_alientek/tf-a-stm32mp-2.2.r1-r0/tf-a-stm32mp-2.2.r1/../build/serialboot/bl2/stm32mp_trusted_boot.o
 .debug_ranges  0x0000000000000948      0x200 /home/charles/linux/code/tfa/mp157_alientek/tf-a-stm32mp-2.2.r1-r0/tf-a-stm32mp-2.2.r1/../build/serialboot/bl2/mmc.o
 .debug_ranges  0x0000000000000b48       0x30 /home/charles/linux/code/tfa/mp157_alientek/tf-a-stm32mp-2.2.r1-r0/tf-a-stm32mp-2.2.r1/../build/serialboot/bl2/gpt.o
 .debug_ranges  0x0000000000000b78       0x58 /home/charles/linux/code/tfa/mp157_alientek/tf-a-stm32mp-2.2.r1-r0/tf-a-stm32mp-2.2.r1/../build/serialboot/bl2/partition.o
 .debug_ranges  0x0000000000000bd0       0x48 /home/charles/linux/code/tfa/mp157_alientek/tf-a-stm32mp-2.2.r1-r0/tf-a-stm32mp-2.2.r1/../build/serialboot/bl2/io_mmc.o
 .debug_ranges  0x0000000000000c18      0x2d0 /home/charles/linux/code/tfa/mp157_alientek/tf-a-stm32mp-2.2.r1-r0/tf-a-stm32mp-2.2.r1/../build/serialboot/bl2/stm32_sdmmc2.o
 .debug_ranges  0x0000000000000ee8      0x130 /home/charles/linux/code/tfa/mp157_alientek/tf-a-stm32mp-2.2.r1-r0/tf-a-stm32mp-2.2.r1/../build/serialboot/bl2/raw_nand.o
 .debug_ranges  0x0000000000001018      0x668 /home/charles/linux/code/tfa/mp157_alientek/tf-a-stm32mp-2.2.r1-r0/tf-a-stm32mp-2.2.r1/../build/serialboot/bl2/stm32_fmc2_nand.o
 .debug_ranges  0x0000000000001680      0x138 /home/charles/linux/code/tfa/mp157_alientek/tf-a-stm32mp-2.2.r1-r0/tf-a-stm32mp-2.2.r1/../build/serialboot/bl2/spi_nand.o
 .debug_ranges  0x00000000000017b8      0x128 /home/charles/linux/code/tfa/mp157_alientek/tf-a-stm32mp-2.2.r1-r0/tf-a-stm32mp-2.2.r1/../build/serialboot/bl2/spi_nor.o
 .debug_ranges  0x00000000000018e0       0x90 /home/charles/linux/code/tfa/mp157_alientek/tf-a-stm32mp-2.2.r1-r0/tf-a-stm32mp-2.2.r1/../build/serialboot/bl2/spi_mem.o
 .debug_ranges  0x0000000000001970      0x520 /home/charles/linux/code/tfa/mp157_alientek/tf-a-stm32mp-2.2.r1-r0/tf-a-stm32mp-2.2.r1/../build/serialboot/bl2/stm32_qspi.o
 .debug_ranges  0x0000000000001e90       0x40 /home/charles/linux/code/tfa/mp157_alientek/tf-a-stm32mp-2.2.r1-r0/tf-a-stm32mp-2.2.r1/../build/serialboot/bl2/core.o
 .debug_ranges  0x0000000000001ed0       0x28 /home/charles/linux/code/tfa/mp157_alientek/tf-a-stm32mp-2.2.r1-r0/tf-a-stm32mp-2.2.r1/../build/serialboot/bl2/stm32mp1_boot_device.o
 .debug_ranges  0x0000000000001ef8      0x688 /home/charles/linux/code/tfa/mp157_alientek/tf-a-stm32mp-2.2.r1-r0/tf-a-stm32mp-2.2.r1/../build/serialboot/bl2/stm32mp1_ddr.o
 .debug_ranges  0x0000000000002580      0x1d0 /home/charles/linux/code/tfa/mp157_alientek/tf-a-stm32mp-2.2.r1-r0/tf-a-stm32mp-2.2.r1/../build/serialboot/bl2/stm32mp1_ram.o
 .debug_ranges  0x0000000000002750       0x60 /home/charles/linux/code/tfa/mp157_alientek/tf-a-stm32mp-2.2.r1-r0/tf-a-stm32mp-2.2.r1/../build/serialboot/bl2/desc_image_load.o
 .debug_ranges  0x00000000000027b0       0x20 /home/charles/linux/code/tfa/mp157_alientek/tf-a-stm32mp-2.2.r1-r0/tf-a-stm32mp-2.2.r1/../build/serialboot/bl2/plat_image_load.o
 .debug_ranges  0x00000000000027d0       0x10 /home/charles/linux/code/tfa/mp157_alientek/tf-a-stm32mp-2.2.r1-r0/tf-a-stm32mp-2.2.r1/../build/serialboot/bl2/bl2_image_load_v2.o
 .debug_ranges  0x00000000000027e0       0x18 /home/charles/linux/code/tfa/mp157_alientek/tf-a-stm32mp-2.2.r1-r0/tf-a-stm32mp-2.2.r1/../build/serialboot/bl2/bl2_main.o
 .debug_ranges  0x00000000000027f8       0x10 /home/charles/linux/code/tfa/mp157_alientek/tf-a-stm32mp-2.2.r1-r0/tf-a-stm32mp-2.2.r1/../build/serialboot/bl2/bl2_arch_setup.o
 .debug_ranges  0x0000000000002808       0x68 /home/charles/linux/code/tfa/mp157_alientek/tf-a-stm32mp-2.2.r1-r0/tf-a-stm32mp-2.2.r1/../build/serialboot/bl2/bl_common.o
 .debug_ranges  0x0000000000002870       0x18 /home/charles/linux/code/tfa/mp157_alientek/tf-a-stm32mp-2.2.r1-r0/tf-a-stm32mp-2.2.r1/../build/serialboot/bl2/tf_log.o
 .debug_ranges  0x0000000000002888       0x90 /home/charles/linux/code/tfa/mp157_alientek/tf-a-stm32mp-2.2.r1-r0/tf-a-stm32mp-2.2.r1/../build/serialboot/bl2/multi_console.o
 .debug_ranges  0x0000000000002918       0x28 /home/charles/linux/code/tfa/mp157_alientek/tf-a-stm32mp-2.2.r1-r0/tf-a-stm32mp-2.2.r1/../build/serialboot/bl2/plat_bl_common.o
 .debug_ranges  0x0000000000002940       0x10 /home/charles/linux/code/tfa/mp157_alientek/tf-a-stm32mp-2.2.r1-r0/tf-a-stm32mp-2.2.r1/../build/serialboot/bl2/plat_log_common.o
 .debug_ranges  0x0000000000002950       0x10 /home/charles/linux/code/tfa/mp157_alientek/tf-a-stm32mp-2.2.r1-r0/tf-a-stm32mp-2.2.r1/../build/serialboot/bl2/popcountsi2.o
 .debug_ranges  0x0000000000002960       0x10 /home/charles/linux/code/tfa/mp157_alientek/tf-a-stm32mp-2.2.r1-r0/tf-a-stm32mp-2.2.r1/../build/serialboot/bl2/ctzdi2.o
 .debug_ranges  0x0000000000002970       0x28 /home/charles/linux/code/tfa/mp157_alientek/tf-a-stm32mp-2.2.r1-r0/tf-a-stm32mp-2.2.r1/../build/serialboot/bl2/udivmoddi4.o
 .debug_ranges  0x0000000000002998       0xb8 /home/charles/linux/code/tfa/mp157_alientek/tf-a-stm32mp-2.2.r1-r0/tf-a-stm32mp-2.2.r1/../build/serialboot/bl2/stm32mp_common.o
 .debug_ranges  0x0000000000002a50      0x140 /home/charles/linux/code/tfa/mp157_alientek/tf-a-stm32mp-2.2.r1-r0/tf-a-stm32mp-2.2.r1/../build/serialboot/bl2/stm32mp1_private.o
 .debug_ranges  0x0000000000002b90       0xe0 /home/charles/linux/code/tfa/mp157_alientek/tf-a-stm32mp-2.2.r1-r0/tf-a-stm32mp-2.2.r1/../build/serialboot/bl2/xlat_tables_arch.o
 .debug_ranges  0x0000000000002c70       0x68 /home/charles/linux/code/tfa/mp157_alientek/tf-a-stm32mp-2.2.r1-r0/tf-a-stm32mp-2.2.r1/../build/serialboot/bl2/xlat_tables_context.o
 .debug_ranges  0x0000000000002cd8      0x2b8 /home/charles/linux/code/tfa/mp157_alientek/tf-a-stm32mp-2.2.r1-r0/tf-a-stm32mp-2.2.r1/../build/serialboot/bl2/xlat_tables_core.o
 .debug_ranges  0x0000000000002f90       0xf8 /home/charles/linux/code/tfa/mp157_alientek/tf-a-stm32mp-2.2.r1-r0/tf-a-stm32mp-2.2.r1/../build/serialboot/bl2/xlat_tables_utils.o
 .debug_ranges  0x0000000000003088      0x288 /home/charles/linux/code/tfa/mp157_alientek/tf-a-stm32mp-2.2.r1-r0/tf-a-stm32mp-2.2.r1/../build/serialboot/bl2/tzc400.o
 .debug_ranges  0x0000000000003310       0x38 /home/charles/linux/code/tfa/mp157_alientek/tf-a-stm32mp-2.2.r1-r0/tf-a-stm32mp-2.2.r1/../build/serialboot/bl2/delay_timer.o
 .debug_ranges  0x0000000000003348       0x68 /home/charles/linux/code/tfa/mp157_alientek/tf-a-stm32mp-2.2.r1-r0/tf-a-stm32mp-2.2.r1/../build/serialboot/bl2/generic_delay_timer.o
 .debug_ranges  0x00000000000033b0      0x350 /home/charles/linux/code/tfa/mp157_alientek/tf-a-stm32mp-2.2.r1-r0/tf-a-stm32mp-2.2.r1/../build/serialboot/bl2/bsec2.o
 .debug_ranges  0x0000000000003700      0x170 /home/charles/linux/code/tfa/mp157_alientek/tf-a-stm32mp-2.2.r1-r0/tf-a-stm32mp-2.2.r1/../build/serialboot/bl2/stm32mp_clkfunc.o
 .debug_ranges  0x0000000000003870      0xd28 /home/charles/linux/code/tfa/mp157_alientek/tf-a-stm32mp-2.2.r1-r0/tf-a-stm32mp-2.2.r1/../build/serialboot/bl2/stm32mp1_clk.o
 .debug_ranges  0x0000000000004598      0x280 /home/charles/linux/code/tfa/mp157_alientek/tf-a-stm32mp-2.2.r1-r0/tf-a-stm32mp-2.2.r1/../build/serialboot/bl2/stm32mp1_ddr_helpers.o
 .debug_ranges  0x0000000000004818      0x250 /home/charles/linux/code/tfa/mp157_alientek/tf-a-stm32mp-2.2.r1-r0/tf-a-stm32mp-2.2.r1/../build/serialboot/bl2/stm32_gpio.o
 .debug_ranges  0x0000000000004a68      0x850 /home/charles/linux/code/tfa/mp157_alientek/tf-a-stm32mp-2.2.r1-r0/tf-a-stm32mp-2.2.r1/../build/serialboot/bl2/stm32_i2c.o
 .debug_ranges  0x00000000000052b8       0xa0 /home/charles/linux/code/tfa/mp157_alientek/tf-a-stm32mp-2.2.r1-r0/tf-a-stm32mp-2.2.r1/../build/serialboot/bl2/stm32_iwdg.o
 .debug_ranges  0x0000000000005358      0x178 /home/charles/linux/code/tfa/mp157_alientek/tf-a-stm32mp-2.2.r1-r0/tf-a-stm32mp-2.2.r1/../build/serialboot/bl2/stm32mp_pmic.o
 .debug_ranges  0x00000000000054d0       0xb0 /home/charles/linux/code/tfa/mp157_alientek/tf-a-stm32mp-2.2.r1-r0/tf-a-stm32mp-2.2.r1/../build/serialboot/bl2/stpmic1.o
 .debug_ranges  0x0000000000005580       0x18 /home/charles/linux/code/tfa/mp157_alientek/tf-a-stm32mp-2.2.r1-r0/tf-a-stm32mp-2.2.r1/../build/serialboot/bl2/stm32mp_dummy_regulator.o
 .debug_ranges  0x0000000000005598       0x28 /home/charles/linux/code/tfa/mp157_alientek/tf-a-stm32mp-2.2.r1-r0/tf-a-stm32mp-2.2.r1/../build/serialboot/bl2/stm32mp_regulator.o
 .debug_ranges  0x00000000000055c0      0x108 /home/charles/linux/code/tfa/mp157_alientek/tf-a-stm32mp-2.2.r1-r0/tf-a-stm32mp-2.2.r1/../build/serialboot/bl2/stm32mp1_reset.o
 .debug_ranges  0x00000000000056c8      0x170 /home/charles/linux/code/tfa/mp157_alientek/tf-a-stm32mp-2.2.r1-r0/tf-a-stm32mp-2.2.r1/../build/serialboot/bl2/stm32mp_dt.o
 .debug_ranges  0x0000000000005838       0x30 /home/charles/linux/code/tfa/mp157_alientek/tf-a-stm32mp-2.2.r1-r0/tf-a-stm32mp-2.2.r1/../build/serialboot/bl2/stm32mp_shres_helpers.o
 .debug_ranges  0x0000000000005868       0xb0 /home/charles/linux/code/tfa/mp157_alientek/tf-a-stm32mp-2.2.r1-r0/tf-a-stm32mp-2.2.r1/../build/serialboot/bl2/stm32mp1_context.o
 .debug_ranges  0x0000000000005918       0x58 /home/charles/linux/code/tfa/mp157_alientek/tf-a-stm32mp-2.2.r1-r0/tf-a-stm32mp-2.2.r1/../build/serialboot/bl2/stm32mp1_dbgmcu.o
 .debug_ranges  0x0000000000005970       0x58 /home/charles/linux/code/tfa/mp157_alientek/tf-a-stm32mp-2.2.r1-r0/tf-a-stm32mp-2.2.r1/../build/serialboot/bl2/stm32mp1_security.o
 .debug_ranges  0x00000000000059c8      0x120 /home/charles/linux/code/tfa/mp157_alientek/tf-a-stm32mp-2.2.r1-r0/tf-a-stm32mp-2.2.r1/../build/serialboot/bl2/stm32mp1_syscfg.o
 .debug_ranges  0x0000000000005ae8       0x20 /home/charles/linux/code/tfa/mp157_alientek/tf-a-stm32mp-2.2.r1-r0/tf-a-stm32mp-2.2.r1/../build/serialboot/bl2/spinlock.o
 .debug_ranges  0x0000000000005b08       0x20 /home/charles/linux/code/tfa/mp157_alientek/tf-a-stm32mp-2.2.r1-r0/tf-a-stm32mp-2.2.r1/../build/serialboot/bl2/platform_up_stack.o
 .debug_ranges  0x0000000000005b28       0x20 /home/charles/linux/code/tfa/mp157_alientek/tf-a-stm32mp-2.2.r1-r0/tf-a-stm32mp-2.2.r1/../build/serialboot/bl2/bl2_el3_entrypoint.o
 .debug_ranges  0x0000000000005b48       0x38 /home/charles/linux/code/tfa/mp157_alientek/tf-a-stm32mp-2.2.r1-r0/tf-a-stm32mp-2.2.r1/../build/serialboot/bl2/cpu_helpers.o
 .debug_ranges  0x0000000000005b80       0x50 /home/charles/linux/code/tfa/mp157_alientek/tf-a-stm32mp-2.2.r1-r0/tf-a-stm32mp-2.2.r1/../build/serialboot/bl2/debug.o
 .debug_ranges  0x0000000000005bd0       0x58 /home/charles/linux/code/tfa/mp157_alientek/tf-a-stm32mp-2.2.r1-r0/tf-a-stm32mp-2.2.r1/../build/serialboot/bl2/cache_helpers.o
 .debug_ranges  0x0000000000005c28       0x38 /home/charles/linux/code/tfa/mp157_alientek/tf-a-stm32mp-2.2.r1-r0/tf-a-stm32mp-2.2.r1/../build/serialboot/bl2/misc_helpers.o
 .debug_ranges  0x0000000000005c60       0x48 /home/charles/linux/code/tfa/mp157_alientek/tf-a-stm32mp-2.2.r1-r0/tf-a-stm32mp-2.2.r1/../build/serialboot/bl2/stm32_console.o
 .debug_ranges  0x0000000000005ca8       0x20 /home/charles/linux/code/tfa/mp157_alientek/tf-a-stm32mp-2.2.r1-r0/tf-a-stm32mp-2.2.r1/../build/serialboot/bl2/enable_mmu.o
 .debug_ranges  0x0000000000005cc8       0x38 /home/charles/linux/code/tfa/mp157_alientek/tf-a-stm32mp-2.2.r1-r0/tf-a-stm32mp-2.2.r1/../build/serialboot/bl2/cortex_a7.o
 .debug_ranges  0x0000000000005d00       0x90 /home/charles/linux/code/tfa/mp157_alientek/tf-a-stm32mp-2.2.r1-r0/tf-a-stm32mp-2.2.r1/../build/serialboot/bl2/stm32mp1_helper.o
 .debug_ranges  0x0000000000005d90       0x90 /home/charles/linux/code/tfa/mp157_alientek/tf-a-stm32mp-2.2.r1-r0/tf-a-stm32mp-2.2.r1/../build/serialboot/lib/libfdt.a(fdt.o)
 .debug_ranges  0x0000000000005e20       0x18 /home/charles/linux/code/tfa/mp157_alientek/tf-a-stm32mp-2.2.r1-r0/tf-a-stm32mp-2.2.r1/../build/serialboot/lib/libfdt.a(fdt_addresses.o)
 .debug_ranges  0x0000000000005e38      0x298 /home/charles/linux/code/tfa/mp157_alientek/tf-a-stm32mp-2.2.r1-r0/tf-a-stm32mp-2.2.r1/../build/serialboot/lib/libfdt.a(fdt_ro.o)
 .debug_ranges  0x00000000000060d0       0x10 /home/charles/linux/code/tfa/mp157_alientek/tf-a-stm32mp-2.2.r1-r0/tf-a-stm32mp-2.2.r1/../build/serialboot/lib/libc.a(assert.o)
 .debug_ranges  0x00000000000060e0       0x10 /home/charles/linux/code/tfa/mp157_alientek/tf-a-stm32mp-2.2.r1-r0/tf-a-stm32mp-2.2.r1/../build/serialboot/lib/libc.a(memchr.o)
 .debug_ranges  0x00000000000060f0       0x10 /home/charles/linux/code/tfa/mp157_alientek/tf-a-stm32mp-2.2.r1-r0/tf-a-stm32mp-2.2.r1/../build/serialboot/lib/libc.a(memcmp.o)
 .debug_ranges  0x0000000000006100       0x10 /home/charles/linux/code/tfa/mp157_alientek/tf-a-stm32mp-2.2.r1-r0/tf-a-stm32mp-2.2.r1/../build/serialboot/lib/libc.a(memcpy.o)
 .debug_ranges  0x0000000000006110       0x28 /home/charles/linux/code/tfa/mp157_alientek/tf-a-stm32mp-2.2.r1-r0/tf-a-stm32mp-2.2.r1/../build/serialboot/lib/libc.a(memmove.o)
 .debug_ranges  0x0000000000006138       0x10 /home/charles/linux/code/tfa/mp157_alientek/tf-a-stm32mp-2.2.r1-r0/tf-a-stm32mp-2.2.r1/../build/serialboot/lib/libc.a(memset.o)
 .debug_ranges  0x0000000000006148       0x50 /home/charles/linux/code/tfa/mp157_alientek/tf-a-stm32mp-2.2.r1-r0/tf-a-stm32mp-2.2.r1/../build/serialboot/lib/libc.a(printf.o)
 .debug_ranges  0x0000000000006198       0x10 /home/charles/linux/code/tfa/mp157_alientek/tf-a-stm32mp-2.2.r1-r0/tf-a-stm32mp-2.2.r1/../build/serialboot/lib/libc.a(putchar.o)
 .debug_ranges  0x00000000000061a8       0x30 /home/charles/linux/code/tfa/mp157_alientek/tf-a-stm32mp-2.2.r1-r0/tf-a-stm32mp-2.2.r1/../build/serialboot/lib/libc.a(snprintf.o)
 .debug_ranges  0x00000000000061d8       0x10 /home/charles/linux/code/tfa/mp157_alientek/tf-a-stm32mp-2.2.r1-r0/tf-a-stm32mp-2.2.r1/../build/serialboot/lib/libc.a(strchr.o)
 .debug_ranges  0x00000000000061e8       0x10 /home/charles/linux/code/tfa/mp157_alientek/tf-a-stm32mp-2.2.r1-r0/tf-a-stm32mp-2.2.r1/../build/serialboot/lib/libc.a(strcmp.o)
 .debug_ranges  0x00000000000061f8       0x10 /home/charles/linux/code/tfa/mp157_alientek/tf-a-stm32mp-2.2.r1-r0/tf-a-stm32mp-2.2.r1/../build/serialboot/lib/libc.a(strlen.o)
 .debug_ranges  0x0000000000006208       0x10 /home/charles/linux/code/tfa/mp157_alientek/tf-a-stm32mp-2.2.r1-r0/tf-a-stm32mp-2.2.r1/../build/serialboot/lib/libc.a(strncmp.o)
 .debug_ranges  0x0000000000006218       0x10 /home/charles/linux/code/tfa/mp157_alientek/tf-a-stm32mp-2.2.r1-r0/tf-a-stm32mp-2.2.r1/../build/serialboot/lib/libc.a(strnlen.o)
 .debug_ranges  0x0000000000006228       0x10 /home/charles/linux/code/tfa/mp157_alientek/tf-a-stm32mp-2.2.r1-r0/tf-a-stm32mp-2.2.r1/../build/serialboot/lib/libc.a(strrchr.o)

.debug_frame    0x0000000000000000     0x50cc
 .debug_frame   0x0000000000000000      0x118 /home/charles/linux/code/tfa/mp157_alientek/tf-a-stm32mp-2.2.r1-r0/tf-a-stm32mp-2.2.r1/../build/serialboot/bl2/io_block.o
 .debug_frame   0x0000000000000118       0xc0 /home/charles/linux/code/tfa/mp157_alientek/tf-a-stm32mp-2.2.r1-r0/tf-a-stm32mp-2.2.r1/../build/serialboot/bl2/io_dummy.o
 .debug_frame   0x00000000000001d8       0xe8 /home/charles/linux/code/tfa/mp157_alientek/tf-a-stm32mp-2.2.r1-r0/tf-a-stm32mp-2.2.r1/../build/serialboot/bl2/io_mtd.o
 .debug_frame   0x00000000000002c0      0x1c4 /home/charles/linux/code/tfa/mp157_alientek/tf-a-stm32mp-2.2.r1-r0/tf-a-stm32mp-2.2.r1/../build/serialboot/bl2/io_storage.o
 .debug_frame   0x0000000000000484       0xf0 /home/charles/linux/code/tfa/mp157_alientek/tf-a-stm32mp-2.2.r1-r0/tf-a-stm32mp-2.2.r1/../build/serialboot/bl2/stm32_hash.o
 .debug_frame   0x0000000000000574       0xf0 /home/charles/linux/code/tfa/mp157_alientek/tf-a-stm32mp-2.2.r1-r0/tf-a-stm32mp-2.2.r1/../build/serialboot/bl2/io_stm32image.o
 .debug_frame   0x0000000000000664       0xc4 /home/charles/linux/code/tfa/mp157_alientek/tf-a-stm32mp-2.2.r1-r0/tf-a-stm32mp-2.2.r1/../build/serialboot/bl2/bl2_io_storage.o
 .debug_frame   0x0000000000000728       0x94 /home/charles/linux/code/tfa/mp157_alientek/tf-a-stm32mp-2.2.r1-r0/tf-a-stm32mp-2.2.r1/../build/serialboot/bl2/bl2_plat_setup.o
 .debug_frame   0x00000000000007bc       0xa4 /home/charles/linux/code/tfa/mp157_alientek/tf-a-stm32mp-2.2.r1-r0/tf-a-stm32mp-2.2.r1/../build/serialboot/bl2/auth_mod.o
 .debug_frame   0x0000000000000860       0x80 /home/charles/linux/code/tfa/mp157_alientek/tf-a-stm32mp-2.2.r1-r0/tf-a-stm32mp-2.2.r1/../build/serialboot/bl2/crypto_mod.o
 .debug_frame   0x00000000000008e0       0x7c /home/charles/linux/code/tfa/mp157_alientek/tf-a-stm32mp-2.2.r1-r0/tf-a-stm32mp-2.2.r1/../build/serialboot/bl2/img_parser_mod.o
 .debug_frame   0x000000000000095c       0x80 /home/charles/linux/code/tfa/mp157_alientek/tf-a-stm32mp-2.2.r1-r0/tf-a-stm32mp-2.2.r1/../build/serialboot/bl2/stm32mp_crypto_lib.o
 .debug_frame   0x00000000000009dc       0x5c /home/charles/linux/code/tfa/mp157_alientek/tf-a-stm32mp-2.2.r1-r0/tf-a-stm32mp-2.2.r1/../build/serialboot/bl2/stm32mp_img_parser_lib.o
 .debug_frame   0x0000000000000a38       0x68 /home/charles/linux/code/tfa/mp157_alientek/tf-a-stm32mp-2.2.r1-r0/tf-a-stm32mp-2.2.r1/../build/serialboot/bl2/stm32mp_trusted_boot.o
 .debug_frame   0x0000000000000aa0      0x198 /home/charles/linux/code/tfa/mp157_alientek/tf-a-stm32mp-2.2.r1-r0/tf-a-stm32mp-2.2.r1/../build/serialboot/bl2/mmc.o
 .debug_frame   0x0000000000000c38       0x2c /home/charles/linux/code/tfa/mp157_alientek/tf-a-stm32mp-2.2.r1-r0/tf-a-stm32mp-2.2.r1/../build/serialboot/bl2/gpt.o
 .debug_frame   0x0000000000000c64       0x84 /home/charles/linux/code/tfa/mp157_alientek/tf-a-stm32mp-2.2.r1-r0/tf-a-stm32mp-2.2.r1/../build/serialboot/bl2/partition.o
 .debug_frame   0x0000000000000ce8       0xc4 /home/charles/linux/code/tfa/mp157_alientek/tf-a-stm32mp-2.2.r1-r0/tf-a-stm32mp-2.2.r1/../build/serialboot/bl2/io_mmc.o
 .debug_frame   0x0000000000000dac      0x17c /home/charles/linux/code/tfa/mp157_alientek/tf-a-stm32mp-2.2.r1-r0/tf-a-stm32mp-2.2.r1/../build/serialboot/bl2/stm32_sdmmc2.o
 .debug_frame   0x0000000000000f28      0x1b8 /home/charles/linux/code/tfa/mp157_alientek/tf-a-stm32mp-2.2.r1-r0/tf-a-stm32mp-2.2.r1/../build/serialboot/bl2/raw_nand.o
 .debug_frame   0x00000000000010e0       0xe4 /home/charles/linux/code/tfa/mp157_alientek/tf-a-stm32mp-2.2.r1-r0/tf-a-stm32mp-2.2.r1/../build/serialboot/bl2/stm32_fmc2_nand.o
 .debug_frame   0x00000000000011c4      0x138 /home/charles/linux/code/tfa/mp157_alientek/tf-a-stm32mp-2.2.r1-r0/tf-a-stm32mp-2.2.r1/../build/serialboot/bl2/spi_nand.o
 .debug_frame   0x00000000000012fc       0xf0 /home/charles/linux/code/tfa/mp157_alientek/tf-a-stm32mp-2.2.r1-r0/tf-a-stm32mp-2.2.r1/../build/serialboot/bl2/spi_nor.o
 .debug_frame   0x00000000000013ec       0x80 /home/charles/linux/code/tfa/mp157_alientek/tf-a-stm32mp-2.2.r1-r0/tf-a-stm32mp-2.2.r1/../build/serialboot/bl2/spi_mem.o
 .debug_frame   0x000000000000146c       0xfc /home/charles/linux/code/tfa/mp157_alientek/tf-a-stm32mp-2.2.r1-r0/tf-a-stm32mp-2.2.r1/../build/serialboot/bl2/stm32_qspi.o
 .debug_frame   0x0000000000001568       0x50 /home/charles/linux/code/tfa/mp157_alientek/tf-a-stm32mp-2.2.r1-r0/tf-a-stm32mp-2.2.r1/../build/serialboot/bl2/core.o
 .debug_frame   0x00000000000015b8       0x74 /home/charles/linux/code/tfa/mp157_alientek/tf-a-stm32mp-2.2.r1-r0/tf-a-stm32mp-2.2.r1/../build/serialboot/bl2/stm32mp1_boot_device.o
 .debug_frame   0x000000000000162c       0xf4 /home/charles/linux/code/tfa/mp157_alientek/tf-a-stm32mp-2.2.r1-r0/tf-a-stm32mp-2.2.r1/../build/serialboot/bl2/stm32mp1_ddr.o
 .debug_frame   0x0000000000001720       0x74 /home/charles/linux/code/tfa/mp157_alientek/tf-a-stm32mp-2.2.r1-r0/tf-a-stm32mp-2.2.r1/../build/serialboot/bl2/stm32mp1_ram.o
 .debug_frame   0x0000000000001794       0xe4 /home/charles/linux/code/tfa/mp157_alientek/tf-a-stm32mp-2.2.r1-r0/tf-a-stm32mp-2.2.r1/../build/serialboot/bl2/desc_image_load.o
 .debug_frame   0x0000000000001878       0x54 /home/charles/linux/code/tfa/mp157_alientek/tf-a-stm32mp-2.2.r1-r0/tf-a-stm32mp-2.2.r1/../build/serialboot/bl2/plat_image_load.o
 .debug_frame   0x00000000000018cc       0x34 /home/charles/linux/code/tfa/mp157_alientek/tf-a-stm32mp-2.2.r1-r0/tf-a-stm32mp-2.2.r1/../build/serialboot/bl2/bl2_image_load_v2.o
 .debug_frame   0x0000000000001900       0x48 /home/charles/linux/code/tfa/mp157_alientek/tf-a-stm32mp-2.2.r1-r0/tf-a-stm32mp-2.2.r1/../build/serialboot/bl2/bl2_main.o
 .debug_frame   0x0000000000001948       0x20 /home/charles/linux/code/tfa/mp157_alientek/tf-a-stm32mp-2.2.r1-r0/tf-a-stm32mp-2.2.r1/../build/serialboot/bl2/bl2_arch_setup.o
 .debug_frame   0x0000000000001968       0x80 /home/charles/linux/code/tfa/mp157_alientek/tf-a-stm32mp-2.2.r1-r0/tf-a-stm32mp-2.2.r1/../build/serialboot/bl2/bl_common.o
 .debug_frame   0x00000000000019e8       0x60 /home/charles/linux/code/tfa/mp157_alientek/tf-a-stm32mp-2.2.r1-r0/tf-a-stm32mp-2.2.r1/../build/serialboot/bl2/tf_log.o
 .debug_frame   0x0000000000001a48       0xdc /home/charles/linux/code/tfa/mp157_alientek/tf-a-stm32mp-2.2.r1-r0/tf-a-stm32mp-2.2.r1/../build/serialboot/bl2/multi_console.o
 .debug_frame   0x0000000000001b24       0x8c /home/charles/linux/code/tfa/mp157_alientek/tf-a-stm32mp-2.2.r1-r0/tf-a-stm32mp-2.2.r1/../build/serialboot/bl2/plat_bl_common.o
 .debug_frame   0x0000000000001bb0       0x20 /home/charles/linux/code/tfa/mp157_alientek/tf-a-stm32mp-2.2.r1-r0/tf-a-stm32mp-2.2.r1/../build/serialboot/bl2/plat_log_common.o
 .debug_frame   0x0000000000001bd0       0x20 /home/charles/linux/code/tfa/mp157_alientek/tf-a-stm32mp-2.2.r1-r0/tf-a-stm32mp-2.2.r1/../build/serialboot/bl2/popcountsi2.o
 .debug_frame   0x0000000000001bf0       0x20 /home/charles/linux/code/tfa/mp157_alientek/tf-a-stm32mp-2.2.r1-r0/tf-a-stm32mp-2.2.r1/../build/serialboot/bl2/ctzdi2.o
 .debug_frame   0x0000000000001c10       0x34 /home/charles/linux/code/tfa/mp157_alientek/tf-a-stm32mp-2.2.r1-r0/tf-a-stm32mp-2.2.r1/../build/serialboot/bl2/udivmoddi4.o
 .debug_frame   0x0000000000001c44      0x1ac /home/charles/linux/code/tfa/mp157_alientek/tf-a-stm32mp-2.2.r1-r0/tf-a-stm32mp-2.2.r1/../build/serialboot/bl2/stm32mp_common.o
 .debug_frame   0x0000000000001df0      0x210 /home/charles/linux/code/tfa/mp157_alientek/tf-a-stm32mp-2.2.r1-r0/tf-a-stm32mp-2.2.r1/../build/serialboot/bl2/stm32mp1_private.o
 .debug_frame   0x0000000000002000       0xf0 /home/charles/linux/code/tfa/mp157_alientek/tf-a-stm32mp-2.2.r1-r0/tf-a-stm32mp-2.2.r1/../build/serialboot/bl2/xlat_tables_arch.o
 .debug_frame   0x00000000000020f0      0x13c /home/charles/linux/code/tfa/mp157_alientek/tf-a-stm32mp-2.2.r1-r0/tf-a-stm32mp-2.2.r1/../build/serialboot/bl2/xlat_tables_context.o
 .debug_frame   0x000000000000222c      0x25c /home/charles/linux/code/tfa/mp157_alientek/tf-a-stm32mp-2.2.r1-r0/tf-a-stm32mp-2.2.r1/../build/serialboot/bl2/xlat_tables_core.o
 .debug_frame   0x0000000000002488       0xc8 /home/charles/linux/code/tfa/mp157_alientek/tf-a-stm32mp-2.2.r1-r0/tf-a-stm32mp-2.2.r1/../build/serialboot/bl2/xlat_tables_utils.o
 .debug_frame   0x0000000000002550      0x10c /home/charles/linux/code/tfa/mp157_alientek/tf-a-stm32mp-2.2.r1-r0/tf-a-stm32mp-2.2.r1/../build/serialboot/bl2/tzc400.o
 .debug_frame   0x000000000000265c       0x54 /home/charles/linux/code/tfa/mp157_alientek/tf-a-stm32mp-2.2.r1-r0/tf-a-stm32mp-2.2.r1/../build/serialboot/bl2/delay_timer.o
 .debug_frame   0x00000000000026b0       0x54 /home/charles/linux/code/tfa/mp157_alientek/tf-a-stm32mp-2.2.r1-r0/tf-a-stm32mp-2.2.r1/../build/serialboot/bl2/generic_delay_timer.o
 .debug_frame   0x0000000000002704      0x334 /home/charles/linux/code/tfa/mp157_alientek/tf-a-stm32mp-2.2.r1-r0/tf-a-stm32mp-2.2.r1/../build/serialboot/bl2/bsec2.o
 .debug_frame   0x0000000000002a38      0x224 /home/charles/linux/code/tfa/mp157_alientek/tf-a-stm32mp-2.2.r1-r0/tf-a-stm32mp-2.2.r1/../build/serialboot/bl2/stm32mp_clkfunc.o
 .debug_frame   0x0000000000002c5c      0x660 /home/charles/linux/code/tfa/mp157_alientek/tf-a-stm32mp-2.2.r1-r0/tf-a-stm32mp-2.2.r1/../build/serialboot/bl2/stm32mp1_clk.o
 .debug_frame   0x00000000000032bc      0x134 /home/charles/linux/code/tfa/mp157_alientek/tf-a-stm32mp-2.2.r1-r0/tf-a-stm32mp-2.2.r1/../build/serialboot/bl2/stm32mp1_ddr_helpers.o
 .debug_frame   0x00000000000033f0       0xb0 /home/charles/linux/code/tfa/mp157_alientek/tf-a-stm32mp-2.2.r1-r0/tf-a-stm32mp-2.2.r1/../build/serialboot/bl2/stm32_gpio.o
 .debug_frame   0x00000000000034a0      0x1fc /home/charles/linux/code/tfa/mp157_alientek/tf-a-stm32mp-2.2.r1-r0/tf-a-stm32mp-2.2.r1/../build/serialboot/bl2/stm32_i2c.o
 .debug_frame   0x000000000000369c       0x5c /home/charles/linux/code/tfa/mp157_alientek/tf-a-stm32mp-2.2.r1-r0/tf-a-stm32mp-2.2.r1/../build/serialboot/bl2/stm32_iwdg.o
 .debug_frame   0x00000000000036f8      0x1f4 /home/charles/linux/code/tfa/mp157_alientek/tf-a-stm32mp-2.2.r1-r0/tf-a-stm32mp-2.2.r1/../build/serialboot/bl2/stm32mp_pmic.o
 .debug_frame   0x00000000000038ec      0x250 /home/charles/linux/code/tfa/mp157_alientek/tf-a-stm32mp-2.2.r1-r0/tf-a-stm32mp-2.2.r1/../build/serialboot/bl2/stpmic1.o
 .debug_frame   0x0000000000003b3c       0x40 /home/charles/linux/code/tfa/mp157_alientek/tf-a-stm32mp-2.2.r1-r0/tf-a-stm32mp-2.2.r1/../build/serialboot/bl2/stm32mp_dummy_regulator.o
 .debug_frame   0x0000000000003b7c       0x6c /home/charles/linux/code/tfa/mp157_alientek/tf-a-stm32mp-2.2.r1-r0/tf-a-stm32mp-2.2.r1/../build/serialboot/bl2/stm32mp_regulator.o
 .debug_frame   0x0000000000003be8       0x68 /home/charles/linux/code/tfa/mp157_alientek/tf-a-stm32mp-2.2.r1-r0/tf-a-stm32mp-2.2.r1/../build/serialboot/bl2/stm32mp1_reset.o
 .debug_frame   0x0000000000003c50      0x344 /home/charles/linux/code/tfa/mp157_alientek/tf-a-stm32mp-2.2.r1-r0/tf-a-stm32mp-2.2.r1/../build/serialboot/bl2/stm32mp_dt.o
 .debug_frame   0x0000000000003f94       0xbc /home/charles/linux/code/tfa/mp157_alientek/tf-a-stm32mp-2.2.r1-r0/tf-a-stm32mp-2.2.r1/../build/serialboot/bl2/stm32mp_shres_helpers.o
 .debug_frame   0x0000000000004050      0x168 /home/charles/linux/code/tfa/mp157_alientek/tf-a-stm32mp-2.2.r1-r0/tf-a-stm32mp-2.2.r1/../build/serialboot/bl2/stm32mp1_context.o
 .debug_frame   0x00000000000041b8       0x70 /home/charles/linux/code/tfa/mp157_alientek/tf-a-stm32mp-2.2.r1-r0/tf-a-stm32mp-2.2.r1/../build/serialboot/bl2/stm32mp1_dbgmcu.o
 .debug_frame   0x0000000000004228       0x4c /home/charles/linux/code/tfa/mp157_alientek/tf-a-stm32mp-2.2.r1-r0/tf-a-stm32mp-2.2.r1/../build/serialboot/bl2/stm32mp1_security.o
 .debug_frame   0x0000000000004274       0x60 /home/charles/linux/code/tfa/mp157_alientek/tf-a-stm32mp-2.2.r1-r0/tf-a-stm32mp-2.2.r1/../build/serialboot/bl2/stm32mp1_syscfg.o
 .debug_frame   0x00000000000042d4       0x30 /home/charles/linux/code/tfa/mp157_alientek/tf-a-stm32mp-2.2.r1-r0/tf-a-stm32mp-2.2.r1/../build/serialboot/bl2/spinlock.o
 .debug_frame   0x0000000000004304       0x30 /home/charles/linux/code/tfa/mp157_alientek/tf-a-stm32mp-2.2.r1-r0/tf-a-stm32mp-2.2.r1/../build/serialboot/bl2/platform_up_stack.o
 .debug_frame   0x0000000000004334       0x30 /home/charles/linux/code/tfa/mp157_alientek/tf-a-stm32mp-2.2.r1-r0/tf-a-stm32mp-2.2.r1/../build/serialboot/bl2/bl2_el3_entrypoint.o
 .debug_frame   0x0000000000004364       0x60 /home/charles/linux/code/tfa/mp157_alientek/tf-a-stm32mp-2.2.r1-r0/tf-a-stm32mp-2.2.r1/../build/serialboot/bl2/cpu_helpers.o
 .debug_frame   0x00000000000043c4       0x90 /home/charles/linux/code/tfa/mp157_alientek/tf-a-stm32mp-2.2.r1-r0/tf-a-stm32mp-2.2.r1/../build/serialboot/bl2/debug.o
 .debug_frame   0x0000000000004454       0xa0 /home/charles/linux/code/tfa/mp157_alientek/tf-a-stm32mp-2.2.r1-r0/tf-a-stm32mp-2.2.r1/../build/serialboot/bl2/cache_helpers.o
 .debug_frame   0x00000000000044f4       0x60 /home/charles/linux/code/tfa/mp157_alientek/tf-a-stm32mp-2.2.r1-r0/tf-a-stm32mp-2.2.r1/../build/serialboot/bl2/misc_helpers.o
 .debug_frame   0x0000000000004554       0x80 /home/charles/linux/code/tfa/mp157_alientek/tf-a-stm32mp-2.2.r1-r0/tf-a-stm32mp-2.2.r1/../build/serialboot/bl2/stm32_console.o
 .debug_frame   0x00000000000045d4       0x30 /home/charles/linux/code/tfa/mp157_alientek/tf-a-stm32mp-2.2.r1-r0/tf-a-stm32mp-2.2.r1/../build/serialboot/bl2/enable_mmu.o
 .debug_frame   0x0000000000004604       0x60 /home/charles/linux/code/tfa/mp157_alientek/tf-a-stm32mp-2.2.r1-r0/tf-a-stm32mp-2.2.r1/../build/serialboot/bl2/cortex_a7.o
 .debug_frame   0x0000000000004664      0x110 /home/charles/linux/code/tfa/mp157_alientek/tf-a-stm32mp-2.2.r1-r0/tf-a-stm32mp-2.2.r1/../build/serialboot/bl2/stm32mp1_helper.o
 .debug_frame   0x0000000000004774      0x148 /home/charles/linux/code/tfa/mp157_alientek/tf-a-stm32mp-2.2.r1-r0/tf-a-stm32mp-2.2.r1/../build/serialboot/lib/libfdt.a(fdt.o)
 .debug_frame   0x00000000000048bc       0x48 /home/charles/linux/code/tfa/mp157_alientek/tf-a-stm32mp-2.2.r1-r0/tf-a-stm32mp-2.2.r1/../build/serialboot/lib/libfdt.a(fdt_addresses.o)
 .debug_frame   0x0000000000004904      0x4cc /home/charles/linux/code/tfa/mp157_alientek/tf-a-stm32mp-2.2.r1-r0/tf-a-stm32mp-2.2.r1/../build/serialboot/lib/libfdt.a(fdt_ro.o)
 .debug_frame   0x0000000000004dd0       0x28 /home/charles/linux/code/tfa/mp157_alientek/tf-a-stm32mp-2.2.r1-r0/tf-a-stm32mp-2.2.r1/../build/serialboot/lib/libc.a(assert.o)
 .debug_frame   0x0000000000004df8       0x28 /home/charles/linux/code/tfa/mp157_alientek/tf-a-stm32mp-2.2.r1-r0/tf-a-stm32mp-2.2.r1/../build/serialboot/lib/libc.a(memchr.o)
 .debug_frame   0x0000000000004e20       0x28 /home/charles/linux/code/tfa/mp157_alientek/tf-a-stm32mp-2.2.r1-r0/tf-a-stm32mp-2.2.r1/../build/serialboot/lib/libc.a(memcmp.o)
 .debug_frame   0x0000000000004e48       0x28 /home/charles/linux/code/tfa/mp157_alientek/tf-a-stm32mp-2.2.r1-r0/tf-a-stm32mp-2.2.r1/../build/serialboot/lib/libc.a(memcpy.o)
 .debug_frame   0x0000000000004e70       0x3c /home/charles/linux/code/tfa/mp157_alientek/tf-a-stm32mp-2.2.r1-r0/tf-a-stm32mp-2.2.r1/../build/serialboot/lib/libc.a(memmove.o)
 .debug_frame   0x0000000000004eac       0x20 /home/charles/linux/code/tfa/mp157_alientek/tf-a-stm32mp-2.2.r1-r0/tf-a-stm32mp-2.2.r1/../build/serialboot/lib/libc.a(memset.o)
 .debug_frame   0x0000000000004ecc       0x9c /home/charles/linux/code/tfa/mp157_alientek/tf-a-stm32mp-2.2.r1-r0/tf-a-stm32mp-2.2.r1/../build/serialboot/lib/libc.a(printf.o)
 .debug_frame   0x0000000000004f68       0x28 /home/charles/linux/code/tfa/mp157_alientek/tf-a-stm32mp-2.2.r1-r0/tf-a-stm32mp-2.2.r1/../build/serialboot/lib/libc.a(putchar.o)
 .debug_frame   0x0000000000004f90       0x6c /home/charles/linux/code/tfa/mp157_alientek/tf-a-stm32mp-2.2.r1-r0/tf-a-stm32mp-2.2.r1/../build/serialboot/lib/libc.a(snprintf.o)
 .debug_frame   0x0000000000004ffc       0x20 /home/charles/linux/code/tfa/mp157_alientek/tf-a-stm32mp-2.2.r1-r0/tf-a-stm32mp-2.2.r1/../build/serialboot/lib/libc.a(strchr.o)
 .debug_frame   0x000000000000501c       0x20 /home/charles/linux/code/tfa/mp157_alientek/tf-a-stm32mp-2.2.r1-r0/tf-a-stm32mp-2.2.r1/../build/serialboot/lib/libc.a(strcmp.o)
 .debug_frame   0x000000000000503c       0x20 /home/charles/linux/code/tfa/mp157_alientek/tf-a-stm32mp-2.2.r1-r0/tf-a-stm32mp-2.2.r1/../build/serialboot/lib/libc.a(strlen.o)
 .debug_frame   0x000000000000505c       0x28 /home/charles/linux/code/tfa/mp157_alientek/tf-a-stm32mp-2.2.r1-r0/tf-a-stm32mp-2.2.r1/../build/serialboot/lib/libc.a(strncmp.o)
 .debug_frame   0x0000000000005084       0x20 /home/charles/linux/code/tfa/mp157_alientek/tf-a-stm32mp-2.2.r1-r0/tf-a-stm32mp-2.2.r1/../build/serialboot/lib/libc.a(strnlen.o)
 .debug_frame   0x00000000000050a4       0x28 /home/charles/linux/code/tfa/mp157_alientek/tf-a-stm32mp-2.2.r1-r0/tf-a-stm32mp-2.2.r1/../build/serialboot/lib/libc.a(strrchr.o)
